---
triple:          'arm64-apple-darwin'
binary-path:     main
relocations:
  - { offsetInCU: 0x5C, offset: 0x5C, size: 0x8, addend: 0x0, symName: __ZNSt3__1L19piecewise_constructE, symObjAddr: 0xD908F, symBinAddr: 0x1000D9E6F, symSize: 0x0 }
  - { offsetInCU: 0x10085, offset: 0x10085, size: 0x8, addend: 0x0, symName: __ZNSt3__110__function10__not_nullB8ue170006IZN7httplib6ServerC1EvEUlvE_EEbRKT_, symObjAddr: 0x1280, symBinAddr: 0x100003838, symSize: 0x18 }
  - { offsetInCU: 0x100B6, offset: 0x100B6, size: 0x8, addend: 0x0, symName: __ZNSt3__110__function10__not_nullB8ue170006IFviEEEbPT_, symObjAddr: 0x885C, symBinAddr: 0x10000AE14, symSize: 0x20 }
  - { offsetInCU: 0x100EB, offset: 0x100EB, size: 0x8, addend: 0x0, symName: __ZNSt3__110__function10__not_nullB8ue170006IFlRN7httplib6StreamERKNS_8multimapINS_12basic_stringIcNS_11char_traitsIcEENS_9allocatorIcEEEESB_NS2_6detail2ciENS9_INS_4pairIKSB_SB_EEEEEEEEEbPT_, symObjAddr: 0xCB80, symBinAddr: 0x10000F138, symSize: 0x20 }
  - { offsetInCU: 0x10120, offset: 0x10120, size: 0x8, addend: 0x0, symName: __ZNSt3__110__function10__not_nullB8ue170006IZNK7httplib6Server12apply_rangesERKNS2_7RequestERNS2_8ResponseERNS_12basic_stringIcNS_11char_traitsIcEENS_9allocatorIcEEEESF_EUlPKcmE_EEbRKT_, symObjAddr: 0x2392C, symBinAddr: 0x100025EE4, symSize: 0x18 }
  - { offsetInCU: 0x10151, offset: 0x10151, size: 0x8, addend: 0x0, symName: __ZNSt3__110__function10__not_nullB8ue170006IZN7httplib6detail13write_contentIZNS2_6Server27write_content_with_providerERNS2_6StreamERKNS2_7RequestERNS2_8ResponseERKNS_12basic_stringIcNS_11char_traitsIcEENS_9allocatorIcEEEESK_EUlvE_EEbS7_RKNS_8functionIFbmmRNS2_8DataSinkEEEEmmT_RNS2_5ErrorEEUlPKcmE_EEbRKST_, symObjAddr: 0x26D48, symBinAddr: 0x100029300, symSize: 0x18 }
  - { offsetInCU: 0x10182, offset: 0x10182, size: 0x8, addend: 0x0, symName: __ZNSt3__110__function10__not_nullB8ue170006IZN7httplib6detail13write_contentIZNS2_6Server27write_content_with_providerERNS2_6StreamERKNS2_7RequestERNS2_8ResponseERKNS_12basic_stringIcNS_11char_traitsIcEENS_9allocatorIcEEEESK_EUlvE_EEbS7_RKNS_8functionIFbmmRNS2_8DataSinkEEEEmmT_RNS2_5ErrorEEUlvE_EEbRKST_, symObjAddr: 0x28BF8, symBinAddr: 0x10002B1B0, symSize: 0x18 }
  - { offsetInCU: 0x101B3, offset: 0x101B3, size: 0x8, addend: 0x0, symName: __ZNSt3__110__function10__not_nullB8ue170006IZN7httplib6detail21write_content_chunkedIZNS2_6Server27write_content_with_providerERNS2_6StreamERKNS2_7RequestERNS2_8ResponseERKNS_12basic_stringIcNS_11char_traitsIcEENS_9allocatorIcEEEESK_EUlvE_NS3_10compressorEEEbS7_RKNS_8functionIFbmmRNS2_8DataSinkEEEERKT_RT0_RNS2_5ErrorEEUlPKcmE_EEbSW_, symObjAddr: 0x2B8E4, symBinAddr: 0x10002DE9C, symSize: 0x18 }
  - { offsetInCU: 0x101E4, offset: 0x101E4, size: 0x8, addend: 0x0, symName: __ZNSt3__110__function10__not_nullB8ue170006IZZN7httplib6detail21write_content_chunkedIZNS2_6Server27write_content_with_providerERNS2_6StreamERKNS2_7RequestERNS2_8ResponseERKNS_12basic_stringIcNS_11char_traitsIcEENS_9allocatorIcEEEESK_EUlvE_NS3_10compressorEEEbS7_RKNS_8functionIFbmmRNS2_8DataSinkEEEERKT_RT0_RNS2_5ErrorEENKUlPKcmE_clES12_mEUlS12_mE_EEbSW_, symObjAddr: 0x2D730, symBinAddr: 0x10002FCE8, symSize: 0x18 }
  - { offsetInCU: 0x10215, offset: 0x10215, size: 0x8, addend: 0x0, symName: __ZNSt3__110__function10__not_nullB8ue170006IZN7httplib6detail21write_content_chunkedIZNS2_6Server27write_content_with_providerERNS2_6StreamERKNS2_7RequestERNS2_8ResponseERKNS_12basic_stringIcNS_11char_traitsIcEENS_9allocatorIcEEEESK_EUlvE_NS3_10compressorEEEbS7_RKNS_8functionIFbmmRNS2_8DataSinkEEEERKT_RT0_RNS2_5ErrorEEUlvE_EEbSW_, symObjAddr: 0x2FCB4, symBinAddr: 0x10003226C, symSize: 0x18 }
  - { offsetInCU: 0x10246, offset: 0x10246, size: 0x8, addend: 0x0, symName: __ZNSt3__110__function10__not_nullB8ue170006IZN7httplib6detail21write_content_chunkedIZNS2_6Server27write_content_with_providerERNS2_6StreamERKNS2_7RequestERNS2_8ResponseERKNS_12basic_stringIcNS_11char_traitsIcEENS_9allocatorIcEEEESK_EUlvE_NS3_10compressorEEEbS7_RKNS_8functionIFbmmRNS2_8DataSinkEEEERKT_RT0_RNS2_5ErrorEEUlvE0_EEbSW_, symObjAddr: 0x31548, symBinAddr: 0x100033B00, symSize: 0x18 }
  - { offsetInCU: 0x10277, offset: 0x10277, size: 0x8, addend: 0x0, symName: __ZNSt3__110__function10__not_nullB8ue170006IZZN7httplib6detail21write_content_chunkedIZNS2_6Server27write_content_with_providerERNS2_6StreamERKNS2_7RequestERNS2_8ResponseERKNS_12basic_stringIcNS_11char_traitsIcEENS_9allocatorIcEEEESK_EUlvE_NS3_10compressorEEEbS7_RKNS_8functionIFbmmRNS2_8DataSinkEEEERKT_RT0_RNS2_5ErrorEENKUlPKNS_8multimapISI_SI_NS3_2ciENSG_INS_4pairISJ_SI_EEEEEEE_clES18_EUlPKcmE_EEbSW_, symObjAddr: 0x33598, symBinAddr: 0x100035B50, symSize: 0x18 }
  - { offsetInCU: 0x102A8, offset: 0x102A8, size: 0x8, addend: 0x0, symName: __ZNSt3__110__function10__not_nullB8ue170006IZN7httplib6detail21write_content_chunkedIZNS2_6Server27write_content_with_providerERNS2_6StreamERKNS2_7RequestERNS2_8ResponseERKNS_12basic_stringIcNS_11char_traitsIcEENS_9allocatorIcEEEESK_EUlvE_NS3_10compressorEEEbS7_RKNS_8functionIFbmmRNS2_8DataSinkEEEERKT_RT0_RNS2_5ErrorEEUlRKNS_8multimapISI_SI_NS3_2ciENSG_INS_4pairISJ_SI_EEEEEEE_EEbSW_, symObjAddr: 0x34EC0, symBinAddr: 0x100037478, symSize: 0x18 }
  - { offsetInCU: 0x102D9, offset: 0x102D9, size: 0x8, addend: 0x0, symName: __ZNSt3__110__function10__not_nullB8ue170006IZN7httplib6detail28write_content_without_lengthIZNS2_6Server27write_content_with_providerERNS2_6StreamERKNS2_7RequestERNS2_8ResponseERKNS_12basic_stringIcNS_11char_traitsIcEENS_9allocatorIcEEEESK_EUlvE_EEbS7_RKNS_8functionIFbmmRNS2_8DataSinkEEEERKT_EUlPKcmE_EEbSV_, symObjAddr: 0x36D20, symBinAddr: 0x1000392D8, symSize: 0x18 }
  - { offsetInCU: 0x1030A, offset: 0x1030A, size: 0x8, addend: 0x0, symName: __ZNSt3__110__function10__not_nullB8ue170006IZN7httplib6detail28write_content_without_lengthIZNS2_6Server27write_content_with_providerERNS2_6StreamERKNS2_7RequestERNS2_8ResponseERKNS_12basic_stringIcNS_11char_traitsIcEENS_9allocatorIcEEEESK_EUlvE_EEbS7_RKNS_8functionIFbmmRNS2_8DataSinkEEEERKT_EUlvE_EEbSV_, symObjAddr: 0x38848, symBinAddr: 0x10003AE00, symSize: 0x18 }
  - { offsetInCU: 0x1033B, offset: 0x1033B, size: 0x8, addend: 0x0, symName: __ZNSt3__110__function10__not_nullB8ue170006IZN7httplib6detail28write_content_without_lengthIZNS2_6Server27write_content_with_providerERNS2_6StreamERKNS2_7RequestERNS2_8ResponseERKNS_12basic_stringIcNS_11char_traitsIcEENS_9allocatorIcEEEESK_EUlvE_EEbS7_RKNS_8functionIFbmmRNS2_8DataSinkEEEERKT_EUlvE0_EEbSV_, symObjAddr: 0x3A0DC, symBinAddr: 0x10003C694, symSize: 0x18 }
  - { offsetInCU: 0x103BE, offset: 0x103BE, size: 0x8, addend: 0x0, symName: __ZNSt3__110__function10__not_nullB8ue170006IZNK7httplib6Server18parse_request_lineEPKcRNS2_7RequestEEUlS5_S5_E_EEbRKT_, symObjAddr: 0x3C2C0, symBinAddr: 0x10003E878, symSize: 0x18 }
  - { offsetInCU: 0x103EF, offset: 0x103EF, size: 0x8, addend: 0x0, symName: __ZNSt3__110__function10__not_nullB8ue170006IZNK7httplib6Server18parse_request_lineEPKcRNS2_7RequestEEUlS5_mS5_mE_EEbRKT_, symObjAddr: 0x40038, symBinAddr: 0x1000425F0, symSize: 0x18 }
  - { offsetInCU: 0x10420, offset: 0x10420, size: 0x8, addend: 0x0, symName: __ZNSt3__110__function10__not_nullB8ue170006IZN7httplib6detail16parse_query_textEPKcmRNS_8multimapINS_12basic_stringIcNS_11char_traitsIcEENS_9allocatorIcEEEESC_NS_4lessISC_EENSA_INS_4pairIKSC_SC_EEEEEEEUlS5_S5_E_EEbRKT_, symObjAddr: 0x41C18, symBinAddr: 0x1000441D0, symSize: 0x18 }
  - { offsetInCU: 0x10451, offset: 0x10451, size: 0x8, addend: 0x0, symName: __ZNSt3__110__function10__not_nullB8ue170006IZZN7httplib6detail16parse_query_textEPKcmRNS_8multimapINS_12basic_stringIcNS_11char_traitsIcEENS_9allocatorIcEEEESC_NS_4lessISC_EENSA_INS_4pairIKSC_SC_EEEEEEENKUlS5_S5_E_clES5_S5_EUlS5_mS5_mE_EEbRKT_, symObjAddr: 0x43DDC, symBinAddr: 0x100046394, symSize: 0x18 }
  - { offsetInCU: 0x10482, offset: 0x10482, size: 0x8, addend: 0x0, symName: __ZNSt3__110__function10__not_nullB8ue170006IZN7httplib6detail18parse_range_headerERKNS_12basic_stringIcNS_11char_traitsIcEENS_9allocatorIcEEEERNS_6vectorINS_4pairIllEENS7_ISE_EEEEEUlPKcSJ_E_EEbRKT_, symObjAddr: 0x45F74, symBinAddr: 0x10004852C, symSize: 0x18 }
  - { offsetInCU: 0x104B3, offset: 0x104B3, size: 0x8, addend: 0x0, symName: __ZNSt3__110__function10__not_nullB8ue170006IZN7httplib6Server19handle_file_requestERKNS2_7RequestERNS2_8ResponseEbEUlmmRNS2_8DataSinkEE_EEbRKT_, symObjAddr: 0x718D0, symBinAddr: 0x100073E88, symSize: 0x18 }
  - { offsetInCU: 0x104E4, offset: 0x104E4, size: 0x8, addend: 0x0, symName: __ZNSt3__110__function10__not_nullB8ue170006IZN7httplib6Server7routingERNS2_7RequestERNS2_8ResponseERNS2_6StreamEEUlNS_8functionIFbPKcmEEEE_EEbRKT_, symObjAddr: 0x737B8, symBinAddr: 0x100075D70, symSize: 0x18 }
  - { offsetInCU: 0x10515, offset: 0x10515, size: 0x8, addend: 0x0, symName: __ZNSt3__110__function10__not_nullB8ue170006IZNK7httplib6Server17read_content_coreERNS2_6StreamERNS2_7RequestERNS2_8ResponseENS_8functionIFbPKcmEEENSA_IFbRKNS2_17MultipartFormDataEEEESE_EUlSC_myyE_EEbRKT_, symObjAddr: 0x767C4, symBinAddr: 0x100078D7C, symSize: 0x18 }
  - { offsetInCU: 0x10546, offset: 0x10546, size: 0x8, addend: 0x0, symName: __ZNSt3__110__function10__not_nullB8ue170006IZN7httplib6detail24parse_disposition_paramsERKNS_12basic_stringIcNS_11char_traitsIcEENS_9allocatorIcEEEERNS_8multimapIS9_S9_NS_4lessIS9_EENS7_INS_4pairISA_S9_EEEEEEEUlPKcSL_E_EEbRKT_, symObjAddr: 0x79FE4, symBinAddr: 0x10007C59C, symSize: 0x18 }
  - { offsetInCU: 0x10577, offset: 0x10577, size: 0x8, addend: 0x0, symName: __ZNSt3__110__function10__not_nullB8ue170006IZZN7httplib6detail24parse_disposition_paramsERKNS_12basic_stringIcNS_11char_traitsIcEENS_9allocatorIcEEEERNS_8multimapIS9_S9_NS_4lessIS9_EENS7_INS_4pairISA_S9_EEEEEEENKUlPKcSL_E_clESL_SL_EUlSL_SL_E_EEbRKT_, symObjAddr: 0x7BCA0, symBinAddr: 0x10007E258, symSize: 0x18 }
  - { offsetInCU: 0x105A8, offset: 0x105A8, size: 0x8, addend: 0x0, symName: __ZNSt3__110__function10__not_nullB8ue170006IZNK7httplib6Server17read_content_coreERNS2_6StreamERNS2_7RequestERNS2_8ResponseENS_8functionIFbPKcmEEENSA_IFbRKNS2_17MultipartFormDataEEEESE_EUlSC_myyE0_EEbRKT_, symObjAddr: 0x7E000, symBinAddr: 0x1000805B8, symSize: 0x18 }
  - { offsetInCU: 0x105D9, offset: 0x105D9, size: 0x8, addend: 0x0, symName: __ZNSt3__110__function10__not_nullB8ue170006IZN7httplib6detail24prepare_content_receiverINS2_7RequestEZNS3_12read_contentIS5_EEbRNS2_6StreamERT_mRiNS_8functionIFbyyEEENSC_IFbPKcmyyEEEbEUlRKSI_E_EEbSA_SB_SI_bT0_EUlSG_myyE_EEbRKS9_, symObjAddr: 0x805CC, symBinAddr: 0x100082B84, symSize: 0x18 }
  - { offsetInCU: 0x1060A, offset: 0x1060A, size: 0x8, addend: 0x0, symName: __ZNSt3__110__function10__not_nullB8ue170006IZZN7httplib6detail24prepare_content_receiverINS2_7RequestEZNS3_12read_contentIS5_EEbRNS2_6StreamERT_mRiNS_8functionIFbyyEEENSC_IFbPKcmyyEEEbEUlRKSI_E_EEbSA_SB_SI_bT0_ENKUlSG_myyE_clESG_myyEUlSG_mE_EEbRKS9_, symObjAddr: 0x82024, symBinAddr: 0x1000845DC, symSize: 0x18 }
  - { offsetInCU: 0x1063B, offset: 0x1063B, size: 0x8, addend: 0x0, symName: __ZNSt3__110__function10__not_nullB8ue170006IZN7httplib6detail24prepare_content_receiverINS2_7RequestEZNS3_12read_contentIS5_EEbRNS2_6StreamERT_mRiNS_8functionIFbyyEEENSC_IFbPKcmyyEEEbEUlRKSI_E_EEbSA_SB_SI_bT0_EUlSG_myyE0_EEbRKS9_, symObjAddr: 0x84DB0, symBinAddr: 0x100087368, symSize: 0x18 }
  - { offsetInCU: 0x1066C, offset: 0x1066C, size: 0x8, addend: 0x0, symName: __ZNSt3__110__function10__not_nullB8ue170006IZN7httplib6Server7routingERNS2_7RequestERNS2_8ResponseERNS2_6StreamEEUlNS_8functionIFbRKNS2_17MultipartFormDataEEEENSA_IFbPKcmEEEE_EEbRKT_, symObjAddr: 0x8709C, symBinAddr: 0x100089654, symSize: 0x18 }
  - { offsetInCU: 0x1069D, offset: 0x1069D, size: 0x8, addend: 0x0, symName: __ZNSt3__110__function10__not_nullB8ue170006IZN7httplib6Server12read_contentERNS2_6StreamERNS2_7RequestERNS2_8ResponseEEUlPKcmE_EEbRKT_, symObjAddr: 0x896D4, symBinAddr: 0x10008BC8C, symSize: 0x18 }
  - { offsetInCU: 0x106CE, offset: 0x106CE, size: 0x8, addend: 0x0, symName: __ZNSt3__110__function10__not_nullB8ue170006IZN7httplib6Server12read_contentERNS2_6StreamERNS2_7RequestERNS2_8ResponseEEUlRKNS2_17MultipartFormDataEE_EEbRKT_, symObjAddr: 0x8B054, symBinAddr: 0x10008D60C, symSize: 0x18 }
  - { offsetInCU: 0x106FF, offset: 0x106FF, size: 0x8, addend: 0x0, symName: __ZNSt3__110__function10__not_nullB8ue170006IZN7httplib6Server12read_contentERNS2_6StreamERNS2_7RequestERNS2_8ResponseEEUlPKcmE0_EEbRKT_, symObjAddr: 0x8D920, symBinAddr: 0x10008FED8, symSize: 0x18 }
  - { offsetInCU: 0x10730, offset: 0x10730, size: 0x8, addend: 0x0, symName: __ZNSt3__110__function10__not_nullB8ue170006IZN7httplib6Server6listenERKNS_12basic_stringIcNS_11char_traitsIcEENS_9allocatorIcEEEEiiEUlvE_EEbRKT_, symObjAddr: 0x9DAC8, symBinAddr: 0x1000A0080, symSize: 0x18 }
  - { offsetInCU: 0x10761, offset: 0x10761, size: 0x8, addend: 0x0, symName: __ZNSt3__110__function10__not_nullB8ue170006IZN7httplib6Server15listen_internalEvEUlvE_EEbRKT_, symObjAddr: 0xA05F0, symBinAddr: 0x1000A2BA8, symSize: 0x18 }
  - { offsetInCU: 0x10792, offset: 0x10792, size: 0x8, addend: 0x0, symName: __ZNSt3__110__function10__not_nullB8ue170006IZN7httplib6Server15listen_internalEvEUlvE0_EEbRKT_, symObjAddr: 0xA1FC4, symBinAddr: 0x1000A457C, symSize: 0x18 }
  - { offsetInCU: 0x107C3, offset: 0x107C3, size: 0x8, addend: 0x0, symName: '__ZNSt3__110__function10__not_nullB8ue170006IZ4mainE3$_0EEbRKT_', symObjAddr: 0xA43D8, symBinAddr: 0x1000A6990, symSize: 0x18 }
  - { offsetInCU: 0x107F4, offset: 0x107F4, size: 0x8, addend: 0x0, symName: '__ZNSt3__110__function10__not_nullB8ue170006IZ4mainE3$_1EEbRKT_', symObjAddr: 0xCDD60, symBinAddr: 0x1000D0318, symSize: 0x18 }
  - { offsetInCU: 0x1D71E, offset: 0x1D71E, size: 0x8, addend: 0x0, symName: __ZNSt3__115regex_constants13__get_grammarB8ue170006ENS0_18syntax_option_typeE, symObjAddr: 0x4C900, symBinAddr: 0x10004EEB8, symSize: 0x18 }
  - { offsetInCU: 0x1D74C, offset: 0x1D74C, size: 0x8, addend: 0x0, symName: __ZNSt3__115regex_constantsoRB8ue170006ERNS0_18syntax_option_typeES1_, symObjAddr: 0x4C918, symBinAddr: 0x10004EED0, symSize: 0x3C }
  - { offsetInCU: 0x1D789, offset: 0x1D789, size: 0x8, addend: 0x0, symName: __ZNSt3__115regex_constantsorB8ue170006ENS0_18syntax_option_typeES1_, symObjAddr: 0x4CBD0, symBinAddr: 0x10004F188, symSize: 0x20 }
  - { offsetInCU: 0x1D7C6, offset: 0x1D7C6, size: 0x8, addend: 0x0, symName: __ZNSt3__115regex_constantsanB8ue170006ENS0_18syntax_option_typeES1_, symObjAddr: 0x4FC94, symBinAddr: 0x10005224C, symSize: 0x20 }
  - { offsetInCU: 0x1D803, offset: 0x1D803, size: 0x8, addend: 0x0, symName: __ZNSt3__115regex_constantsanB8ue170006ENS0_15match_flag_typeES1_, symObjAddr: 0x4FEB4, symBinAddr: 0x10005246C, symSize: 0x20 }
  - { offsetInCU: 0x1D840, offset: 0x1D840, size: 0x8, addend: 0x0, symName: __ZNSt3__115regex_constantsorB8ue170006ENS0_15match_flag_typeES1_, symObjAddr: 0x51490, symBinAddr: 0x100053A48, symSize: 0x20 }
  - { offsetInCU: 0x1D87D, offset: 0x1D87D, size: 0x8, addend: 0x0, symName: __ZNSt3__115regex_constantscoB8ue170006ENS0_15match_flag_typeE, symObjAddr: 0x514B0, symBinAddr: 0x100053A68, symSize: 0x1C }
  - { offsetInCU: 0x1D8AB, offset: 0x1D8AB, size: 0x8, addend: 0x0, symName: __ZNSt3__115regex_constantsaNB8ue170006ERNS0_15match_flag_typeES1_, symObjAddr: 0x69244, symBinAddr: 0x10006B7FC, symSize: 0x3C }
  - { offsetInCU: 0x1D8E8, offset: 0x1D8E8, size: 0x8, addend: 0x0, symName: __ZNSt3__115regex_constantsoRB8ue170006ERNS0_15match_flag_typeES1_, symObjAddr: 0x693F8, symBinAddr: 0x10006B9B0, symSize: 0x3C }
  - { offsetInCU: 0x42E37, offset: 0x42E37, size: 0x8, addend: 0x0, symName: __ZNSt3__16chronomiB8ue170006IxNS_5ratioILl1ELl1000000000EEExS3_EENS_11common_typeIJNS0_8durationIT_T0_EENS5_IT1_T2_EEEE4typeERKS8_RKSB_, symObjAddr: 0x109B4, symBinAddr: 0x100012F6C, symSize: 0x70 }
  - { offsetInCU: 0x433BB, offset: 0x433BB, size: 0x8, addend: 0x0, symName: __ZNSt3__16chrono13duration_castB8ue170006INS0_8durationIxNS_5ratioILl1ELl1000EEEEExNS3_ILl1ELl1000000000EEEEENS_9enable_ifIXsr13__is_durationIT_EE5valueES8_E4typeERKNS2_IT0_T1_EE, symObjAddr: 0x106A0, symBinAddr: 0x100012C58, symSize: 0x30 }
  - { offsetInCU: 0x43402, offset: 0x43402, size: 0x8, addend: 0x0, symName: __ZNSt3__16chronomiB8ue170006INS0_12steady_clockENS0_8durationIxNS_5ratioILl1ELl1000000000EEEEES6_EENS_11common_typeIJT0_T1_EE4typeERKNS0_10time_pointIT_S8_EERKNSC_ISD_S9_EE, symObjAddr: 0x106D0, symBinAddr: 0x100012C88, symSize: 0x58 }
  - { offsetInCU: 0x4354E, offset: 0x4354E, size: 0x8, addend: 0x0, symName: __ZNSt3__16chronogtB8ue170006IxNS_5ratioILl1ELl1000EEExS3_EEbRKNS0_8durationIT_T0_EERKNS4_IT1_T2_EE, symObjAddr: 0x10AA8, symBinAddr: 0x100013060, symSize: 0x30 }
  - { offsetInCU: 0x435AF, offset: 0x435AF, size: 0x8, addend: 0x0, symName: __ZNSt3__16chronoltB8ue170006IxNS_5ratioILl1ELl1000EEEeNS2_ILl1ELl1EEEEEbRKNS0_8durationIT_T0_EERKNS5_IT1_T2_EE, symObjAddr: 0x10B14, symBinAddr: 0x1000130CC, symSize: 0x34 }
  - { offsetInCU: 0x43610, offset: 0x43610, size: 0x8, addend: 0x0, symName: __ZNSt3__16chrono13duration_castB8ue170006INS0_8durationIxNS_5ratioILl1ELl1000000000EEEEExNS3_ILl1ELl1000EEEEENS_9enable_ifIXsr13__is_durationIT_EE5valueES8_E4typeERKNS2_IT0_T1_EE, symObjAddr: 0x10B48, symBinAddr: 0x100013100, symSize: 0x30 }
  - { offsetInCU: 0x43657, offset: 0x43657, size: 0x8, addend: 0x0, symName: __ZNSt3__16chronoltB8ue170006IxNS_5ratioILl1ELl1000000000EEExNS2_ILl1ELl1000EEEEEbRKNS0_8durationIT_T0_EERKNS5_IT1_T2_EE, symObjAddr: 0x10B78, symBinAddr: 0x100013130, symSize: 0x34 }
  - { offsetInCU: 0x436B8, offset: 0x436B8, size: 0x8, addend: 0x0, symName: __ZNSt3__16chronoltB8ue170006IxNS_5ratioILl1ELl1000EEExS3_EEbRKNS0_8durationIT_T0_EERKNS4_IT1_T2_EE, symObjAddr: 0x10C08, symBinAddr: 0x1000131C0, symSize: 0x34 }
  - { offsetInCU: 0x43796, offset: 0x43796, size: 0x8, addend: 0x0, symName: __ZNSt3__16chrono13duration_castB8ue170006INS0_8durationIeNS_5ratioILl1ELl1000EEEEExS4_EENS_9enable_ifIXsr13__is_durationIT_EE5valueES7_E4typeERKNS2_IT0_T1_EE, symObjAddr: 0x10DE0, symBinAddr: 0x100013398, symSize: 0x30 }
  - { offsetInCU: 0x43828, offset: 0x43828, size: 0x8, addend: 0x0, symName: __ZNSt3__16chrono13duration_castB8ue170006INS0_8durationIeNS_5ratioILl1ELl1000EEEEEeNS3_ILl1ELl1EEEEENS_9enable_ifIXsr13__is_durationIT_EE5valueES8_E4typeERKNS2_IT0_T1_EE, symObjAddr: 0x10F00, symBinAddr: 0x1000134B8, symSize: 0x30 }
  - { offsetInCU: 0x47698, offset: 0x47698, size: 0x8, addend: 0x0, symName: __ZNSt3__117__cxx_atomic_loadB8ue170006IiEET_PKNS_22__cxx_atomic_base_implIS1_EENS_12memory_orderE, symObjAddr: 0x104CC, symBinAddr: 0x100012A84, symSize: 0x80 }
  - { offsetInCU: 0x47BC7, offset: 0x47BC7, size: 0x8, addend: 0x0, symName: __ZNSt3__17advanceB8ue170006INS_20__map_const_iteratorINS_21__tree_const_iteratorINS_12__value_typeINS_12basic_stringIcNS_11char_traitsIcEENS_9allocatorIcEEEES9_EEPNS_11__tree_nodeISA_PvEElEEEEllvEEvRT_T0_, symObjAddr: 0x223DC, symBinAddr: 0x100024994, symSize: 0x38 }
  - { offsetInCU: 0x4CE26, offset: 0x4CE26, size: 0x8, addend: 0x0, symName: __ZNSt3__16copy_nB8ue170006IPKcmPcEENS_9enable_ifIXsr37__has_random_access_iterator_categoryIT_EE5valueET1_E4typeES5_T0_S6_, symObjAddr: 0x2F300, symBinAddr: 0x1000318B8, symSize: 0x44 }
  - { offsetInCU: 0x54B2F, offset: 0x54B2F, size: 0x8, addend: 0x0, symName: __ZNSt3__17advanceB8ue170006INS_21__tree_const_iteratorINS_12basic_stringIcNS_11char_traitsIcEENS_9allocatorIcEEEEPNS_11__tree_nodeIS7_PvEElEEllvEEvRT_T0_, symObjAddr: 0x3EE98, symBinAddr: 0x100041450, symSize: 0x38 }
  - { offsetInCU: 0x59398, offset: 0x59398, size: 0x8, addend: 0x0, symName: __ZNSt3__17advanceB8ue170006IPKcllvEEvRT_T0_, symObjAddr: 0x4FF58, symBinAddr: 0x100052510, symSize: 0x38 }
  - { offsetInCU: 0x5D319, offset: 0x5D319, size: 0x8, addend: 0x0, symName: __ZNSt3__17advanceB8ue170006IPNS_9sub_matchIPKcEEllvEEvRT_T0_, symObjAddr: 0x6EF98, symBinAddr: 0x100071550, symSize: 0x38 }
  - { offsetInCU: 0x5D386, offset: 0x5D386, size: 0x8, addend: 0x0, symName: __ZNSt3__17advanceB8ue170006IPNS_4pairImPKcEEllvEEvRT_T0_, symObjAddr: 0x6F54C, symBinAddr: 0x100071B04, symSize: 0x38 }
  - { offsetInCU: 0x5D928, offset: 0x5D928, size: 0x8, addend: 0x0, symName: __ZNSt3__17advanceB8ue170006INS_11__wrap_iterIPKcEEllvEEvRT_T0_, symObjAddr: 0x71068, symBinAddr: 0x100073620, symSize: 0x38 }
  - { offsetInCU: 0x6FF44, offset: 0x6FF44, size: 0x8, addend: 0x0, symName: __ZNSt3__124__put_character_sequenceB8ue170006IcNS_11char_traitsIcEEEERNS_13basic_ostreamIT_T0_EES7_PKS4_m, symObjAddr: 0xA39C4, symBinAddr: 0x1000A5F7C, symSize: 0x1EC }
  - { offsetInCU: 0x710BB, offset: 0x710BB, size: 0x8, addend: 0x0, symName: __ZNSt3__17advanceB8ue170006INS_11__wrap_iterIPKcEEiivEEvRT_T0_, symObjAddr: 0xA9658, symBinAddr: 0x1000ABC10, symSize: 0x40 }
  - { offsetInCU: 0x743E3, offset: 0x743E3, size: 0x8, addend: 0x0, symName: __ZNSt3__17advanceB8ue170006INS_21__tree_const_iteratorINS_12__value_typeINS_12basic_stringIcNS_11char_traitsIcEENS_9allocatorIcEEEEN8nlohmann16json_abi_v3_11_310basic_jsonINS_3mapENS_6vectorES8_bxydS6_NSA_14adl_serializerENSD_IhNS6_IhEEEEvEEEEPNS_11__tree_nodeISI_PvEElEEllvEEvRT_T0_, symObjAddr: 0xB6F00, symBinAddr: 0x1000B94B8, symSize: 0x38 }
  - { offsetInCU: 0x7481F, offset: 0x7481F, size: 0x8, addend: 0x0, symName: __ZNSt3__17advanceB8ue170006INS_14__map_iteratorINS_15__tree_iteratorINS_12__value_typeINS_12basic_stringIcNS_11char_traitsIcEENS_9allocatorIcEEEEN8nlohmann16json_abi_v3_11_310basic_jsonINS_3mapENS_6vectorES9_bxydS7_NSB_14adl_serializerENSE_IhNS7_IhEEEEvEEEEPNS_11__tree_nodeISJ_PvEElEEEEiivEEvRT_T0_, symObjAddr: 0xBE0BC, symBinAddr: 0x1000C0674, symSize: 0x40 }
  - { offsetInCU: 0x748B2, offset: 0x748B2, size: 0x8, addend: 0x0, symName: __ZNSt3__17advanceB8ue170006INS_11__wrap_iterIPN8nlohmann16json_abi_v3_11_310basic_jsonINS_3mapENS_6vectorENS_12basic_stringIcNS_11char_traitsIcEENS_9allocatorIcEEEEbxydSA_NS3_14adl_serializerENS6_IhNSA_IhEEEEvEEEEiivEEvRT_T0_, symObjAddr: 0xBE0FC, symBinAddr: 0x1000C06B4, symSize: 0x40 }
  - { offsetInCU: 0x75089, offset: 0x75089, size: 0x8, addend: 0x0, symName: __ZNSt3__17advanceB8ue170006INS_20__map_const_iteratorINS_21__tree_const_iteratorINS_12__value_typeINS_12basic_stringIcNS_11char_traitsIcEENS_9allocatorIcEEEEN8nlohmann16json_abi_v3_11_310basic_jsonINS_3mapENS_6vectorES9_bxydS7_NSB_14adl_serializerENSE_IhNS7_IhEEEEvEEEEPNS_11__tree_nodeISJ_PvEElEEEEllvEEvRT_T0_, symObjAddr: 0xCB808, symBinAddr: 0x1000CDDC0, symSize: 0x38 }
  - { offsetInCU: 0x77E63, offset: 0x77E63, size: 0x8, addend: 0x0, symName: __ZNSt3__1lsB8ue170006INS_11char_traitsIcEEEERNS_13basic_ostreamIcT_EES6_PKc, symObjAddr: 0x3F4, symBinAddr: 0x1000029AC, symSize: 0x48 }
  - { offsetInCU: 0x77EA9, offset: 0x77EA9, size: 0x8, addend: 0x0, symName: __ZNSt3__14endlB8ue170006IcNS_11char_traitsIcEEEERNS_13basic_ostreamIT_T0_EES7_, symObjAddr: 0x468, symBinAddr: 0x100002A20, symSize: 0x58 }
  - { offsetInCU: 0x7804C, offset: 0x7804C, size: 0x8, addend: 0x0, symName: __ZNSt3__116forward_as_tupleB8ue170006IJZN7httplib6ServerC1EvEUlvE_EEENS_5tupleIJDpOT_EEES7_, symObjAddr: 0x17F8, symBinAddr: 0x100003DB0, symSize: 0x2C }
  - { offsetInCU: 0x78085, offset: 0x78085, size: 0x8, addend: 0x0, symName: __ZNSt3__116forward_as_tupleB8ue170006IJNS_9allocatorIZN7httplib6ServerC1EvEUlvE_EEEEENS_5tupleIJDpOT_EEES9_, symObjAddr: 0x1824, symBinAddr: 0x100003DDC, symSize: 0x2C }
  - { offsetInCU: 0x78103, offset: 0x78103, size: 0x8, addend: 0x0, symName: __ZNSt3__13getB8ue170006ILm0EJOZN7httplib6ServerC1EvEUlvE_EEERNS_13tuple_elementIXT_ENS_5tupleIJDpT0_EEEE4typeERS9_, symObjAddr: 0x1B30, symBinAddr: 0x1000040E8, symSize: 0x24 }
  - { offsetInCU: 0x78145, offset: 0x78145, size: 0x8, addend: 0x0, symName: __ZNSt3__13getB8ue170006ILm0EJONS_9allocatorIZN7httplib6ServerC1EvEUlvE_EEEEERNS_13tuple_elementIXT_ENS_5tupleIJDpT0_EEEE4typeERSB_, symObjAddr: 0x1B6C, symBinAddr: 0x100004124, symSize: 0x24 }
  - { offsetInCU: 0x7866B, offset: 0x7866B, size: 0x8, addend: 0x0, symName: __ZNSt3__117__libcpp_allocateB8ue170006Emm, symObjAddr: 0x1E50, symBinAddr: 0x100004408, symSize: 0x28 }
  - { offsetInCU: 0x786A8, offset: 0x786A8, size: 0x8, addend: 0x0, symName: __ZNSt3__121__libcpp_operator_newB8ue170006IJmEEEPvDpT_, symObjAddr: 0x1E8C, symBinAddr: 0x100004444, symSize: 0x24 }
  - { offsetInCU: 0x786E1, offset: 0x786E1, size: 0x8, addend: 0x0, symName: __ZNSt3__116forward_as_tupleB8ue170006IJRKZN7httplib6ServerC1EvEUlvE_EEENS_5tupleIJDpOT_EEES9_, symObjAddr: 0x218C, symBinAddr: 0x100004744, symSize: 0x2C }
  - { offsetInCU: 0x7872F, offset: 0x7872F, size: 0x8, addend: 0x0, symName: __ZNSt3__13getB8ue170006ILm0EJRKZN7httplib6ServerC1EvEUlvE_EEERNS_13tuple_elementIXT_ENS_5tupleIJDpT0_EEEE4typeERSA_, symObjAddr: 0x2370, symBinAddr: 0x100004928, symSize: 0x24 }
  - { offsetInCU: 0x78772, offset: 0x78772, size: 0x8, addend: 0x0, symName: __ZNSt3__119__libcpp_deallocateB8ue170006EPvmm, symObjAddr: 0x2570, symBinAddr: 0x100004B28, symSize: 0x30 }
  - { offsetInCU: 0x787BB, offset: 0x787BB, size: 0x8, addend: 0x0, symName: __ZNSt3__127__do_deallocate_handle_sizeB8ue170006IJEEEvPvmDpT_, symObjAddr: 0x25A0, symBinAddr: 0x100004B58, symSize: 0x28 }
  - { offsetInCU: 0x787FA, offset: 0x787FA, size: 0x8, addend: 0x0, symName: __ZNSt3__124__libcpp_operator_deleteB8ue170006IJPvEEEvDpT_, symObjAddr: 0x25C8, symBinAddr: 0x100004B80, symSize: 0x24 }
  - { offsetInCU: 0x7882F, offset: 0x7882F, size: 0x8, addend: 0x0, symName: __ZNSt3__116forward_as_tupleB8ue170006IJRKNS_9allocatorIZN7httplib6ServerC1EvEUlvE_EEEEENS_5tupleIJDpOT_EEESB_, symObjAddr: 0x2748, symBinAddr: 0x100004D00, symSize: 0x2C }
  - { offsetInCU: 0x7887D, offset: 0x7887D, size: 0x8, addend: 0x0, symName: __ZNSt3__13getB8ue170006ILm0EJRKNS_9allocatorIZN7httplib6ServerC1EvEUlvE_EEEEERNS_13tuple_elementIXT_ENS_5tupleIJDpT0_EEEE4typeERSC_, symObjAddr: 0x292C, symBinAddr: 0x100004EE4, symSize: 0x24 }
  - { offsetInCU: 0x788FA, offset: 0x788FA, size: 0x8, addend: 0x0, symName: __ZNSt3__18__invokeB8ue170006IRZN7httplib6ServerC1EvEUlvE_JEEEDTclclsr3stdE7declvalIT_EEspclsr3stdE7declvalIT0_EEEEOS5_DpOS6_, symObjAddr: 0x29E8, symBinAddr: 0x100004FA0, symSize: 0x24 }
  - { offsetInCU: 0x78936, offset: 0x78936, size: 0x8, addend: 0x0, symName: __ZNSt3__13maxB8ue170006IjEERKT_S3_S3_, symObjAddr: 0x2ACC, symBinAddr: 0x100005084, symSize: 0x2C }
  - { offsetInCU: 0x78979, offset: 0x78979, size: 0x8, addend: 0x0, symName: __ZNSt3__13maxB8ue170006IjNS_6__lessIvvEEEERKT_S5_S5_T0_, symObjAddr: 0x2B34, symBinAddr: 0x1000050EC, symSize: 0x54 }
  - { offsetInCU: 0x78AAF, offset: 0x78AAF, size: 0x8, addend: 0x0, symName: __ZNSt3__112__to_addressB8ue170006INS_6threadEEEPT_S3_, symObjAddr: 0x37A8, symBinAddr: 0x100005D60, symSize: 0x14 }
  - { offsetInCU: 0x78EE1, offset: 0x78EE1, size: 0x8, addend: 0x0, symName: __ZNSt3__122__libcpp_thread_createB8ue170006EPP17_opaque_pthread_tPFPvS3_ES3_, symObjAddr: 0x3A7C, symBinAddr: 0x100006034, symSize: 0x38 }
  - { offsetInCU: 0x78F2D, offset: 0x78F2D, size: 0x8, addend: 0x0, symName: __ZNSt3__114__thread_proxyB8ue170006INS_5tupleIJNS_10unique_ptrINS_15__thread_structENS_14default_deleteIS3_EEEEN7httplib10ThreadPool6workerEEEEEEPvSB_, symObjAddr: 0x3AB4, symBinAddr: 0x10000606C, symSize: 0x90 }
  - { offsetInCU: 0x79072, offset: 0x79072, size: 0x8, addend: 0x0, symName: __ZNSt3__13getB8ue170006ILm0EJNS_10unique_ptrINS_15__thread_structENS_14default_deleteIS2_EEEEN7httplib10ThreadPool6workerEEEERNS_13tuple_elementIXT_ENS_5tupleIJDpT0_EEEE4typeERSD_, symObjAddr: 0x4168, symBinAddr: 0x100006720, symSize: 0x24 }
  - { offsetInCU: 0x790BB, offset: 0x790BB, size: 0x8, addend: 0x0, symName: __ZNSt3__116__thread_executeB8ue170006INS_10unique_ptrINS_15__thread_structENS_14default_deleteIS2_EEEEN7httplib10ThreadPool6workerEJEJEEEvRNS_5tupleIJT_T0_DpT1_EEENS_15__tuple_indicesIJXspT2_EEEE, symObjAddr: 0x418C, symBinAddr: 0x100006744, symSize: 0x28 }
  - { offsetInCU: 0x79109, offset: 0x79109, size: 0x8, addend: 0x0, symName: __ZNSt3__116__libcpp_tls_setB8ue170006EmPv, symObjAddr: 0x41B4, symBinAddr: 0x10000676C, symSize: 0x2C }
  - { offsetInCU: 0x79147, offset: 0x79147, size: 0x8, addend: 0x0, symName: __ZNSt3__18__invokeB8ue170006IN7httplib10ThreadPool6workerEJEEEDTclclsr3stdE7declvalIT_EEspclsr3stdE7declvalIT0_EEEEOS4_DpOS5_, symObjAddr: 0x41F4, symBinAddr: 0x1000067AC, symSize: 0x24 }
  - { offsetInCU: 0x7917F, offset: 0x7917F, size: 0x8, addend: 0x0, symName: __ZNSt3__13getB8ue170006ILm1EJNS_10unique_ptrINS_15__thread_structENS_14default_deleteIS2_EEEEN7httplib10ThreadPool6workerEEEERNS_13tuple_elementIXT_ENS_5tupleIJDpT0_EEEE4typeERSD_, symObjAddr: 0x4218, symBinAddr: 0x1000067D0, symSize: 0x28 }
  - { offsetInCU: 0x791C7, offset: 0x791C7, size: 0x8, addend: 0x0, symName: __ZNSt3__14swapB8ue170006IPNS_10__function6__baseIFvvEEEEENS_9enable_ifIXaasr21is_move_constructibleIT_EE5valuesr18is_move_assignableIS7_EE5valueEvE4typeERS7_SA_, symObjAddr: 0x4CF4, symBinAddr: 0x1000072AC, symSize: 0x3C }
  - { offsetInCU: 0x7921A, offset: 0x7921A, size: 0x8, addend: 0x0, symName: __ZNSt3__125__throw_bad_function_callB8ue170006Ev, symObjAddr: 0x4F8C, symBinAddr: 0x100007544, symSize: 0x38 }
  - { offsetInCU: 0x7926A, offset: 0x7926A, size: 0x8, addend: 0x0, symName: __ZNSt3__13maxB8ue170006ImEERKT_S3_S3_, symObjAddr: 0x58B8, symBinAddr: 0x100007E70, symSize: 0x2C }
  - { offsetInCU: 0x792AD, offset: 0x792AD, size: 0x8, addend: 0x0, symName: __ZNSt3__13minB8ue170006ImEERKT_S3_S3_, symObjAddr: 0x58E4, symBinAddr: 0x100007E9C, symSize: 0x2C }
  - { offsetInCU: 0x794F1, offset: 0x794F1, size: 0x8, addend: 0x0, symName: __ZNSt3__13minB8ue170006ImNS_6__lessIvvEEEERKT_S5_S5_T0_, symObjAddr: 0x5970, symBinAddr: 0x100007F28, symSize: 0x54 }
  - { offsetInCU: 0x7954C, offset: 0x7954C, size: 0x8, addend: 0x0, symName: __ZNSt3__120__throw_length_errorB8ue170006EPKc, symObjAddr: 0x5A4C, symBinAddr: 0x100008004, symSize: 0x64 }
  - { offsetInCU: 0x79576, offset: 0x79576, size: 0x8, addend: 0x0, symName: __ZNSt3__13maxB8ue170006ImNS_6__lessIvvEEEERKT_S5_S5_T0_, symObjAddr: 0x5B90, symBinAddr: 0x100008148, symSize: 0x54 }
  - { offsetInCU: 0x795D0, offset: 0x795D0, size: 0x8, addend: 0x0, symName: __ZNSt3__119__allocate_at_leastB8ue170006INS_9allocatorINS_6threadEEEEENS_19__allocation_resultINS_16allocator_traitsIT_E7pointerEEERS6_m, symObjAddr: 0x5CF4, symBinAddr: 0x1000082AC, symSize: 0x40 }
  - { offsetInCU: 0x79613, offset: 0x79613, size: 0x8, addend: 0x0, symName: __ZNSt3__142__uninitialized_allocator_move_if_noexceptB8ue170006INS_9allocatorINS_6threadEEENS_16reverse_iteratorIPS2_EES6_S6_EET2_RT_T0_T1_S7_, symObjAddr: 0x5F60, symBinAddr: 0x100008518, symSize: 0x12C }
  - { offsetInCU: 0x796B5, offset: 0x796B5, size: 0x8, addend: 0x0, symName: __ZNSt3__14swapB8ue170006IPNS_6threadEEENS_9enable_ifIXaasr21is_move_constructibleIT_EE5valuesr18is_move_assignableIS4_EE5valueEvE4typeERS4_S7_, symObjAddr: 0x60D8, symBinAddr: 0x100008690, symSize: 0x3C }
  - { offsetInCU: 0x79707, offset: 0x79707, size: 0x8, addend: 0x0, symName: __ZNSt3__122__make_exception_guardB8ue170006INS_29_AllocatorDestroyRangeReverseINS_9allocatorINS_6threadEEENS_16reverse_iteratorIPS3_EEEEEENS_28__exception_guard_exceptionsIT_EESA_, symObjAddr: 0x6208, symBinAddr: 0x1000087C0, symSize: 0x4C }
  - { offsetInCU: 0x7973D, offset: 0x7973D, size: 0x8, addend: 0x0, symName: __ZNSt3__1neB8ue170006IPNS_6threadES2_EEbRKNS_16reverse_iteratorIT_EERKNS3_IT0_EE, symObjAddr: 0x6298, symBinAddr: 0x100008850, symSize: 0x48 }
  - { offsetInCU: 0x79789, offset: 0x79789, size: 0x8, addend: 0x0, symName: __ZNSt3__112__to_addressB8ue170006INS_16reverse_iteratorIPNS_6threadEEEvEEu7__decayIDTclsr19__to_address_helperIT_EE6__callclsr3stdE7declvalIRKS5_EEEEES7_, symObjAddr: 0x6314, symBinAddr: 0x1000088CC, symSize: 0x24 }
  - { offsetInCU: 0x797EA, offset: 0x797EA, size: 0x8, addend: 0x0, symName: __ZNSt3__119__allocator_destroyB8ue170006INS_9allocatorINS_6threadEEENS_16reverse_iteratorINS4_IPS2_EEEES7_EEvRT_T0_T1_, symObjAddr: 0x6654, symBinAddr: 0x100008C0C, symSize: 0x70 }
  - { offsetInCU: 0x7984F, offset: 0x7984F, size: 0x8, addend: 0x0, symName: __ZNSt3__1neB8ue170006INS_16reverse_iteratorIPNS_6threadEEES4_EEbRKNS1_IT_EERKNS1_IT0_EE, symObjAddr: 0x6700, symBinAddr: 0x100008CB8, symSize: 0x60 }
  - { offsetInCU: 0x7989B, offset: 0x7989B, size: 0x8, addend: 0x0, symName: __ZNSt3__112__to_addressB8ue170006INS_16reverse_iteratorINS1_IPNS_6threadEEEEEvEEu7__decayIDTclsr19__to_address_helperIT_EE6__callclsr3stdE7declvalIRKS6_EEEEES8_, symObjAddr: 0x678C, symBinAddr: 0x100008D44, symSize: 0x24 }
  - { offsetInCU: 0x79919, offset: 0x79919, size: 0x8, addend: 0x0, symName: __ZNSt3__1neB8ue170006IPNS_6threadEEEbRKNS_11__wrap_iterIT_EES7_, symObjAddr: 0x782C, symBinAddr: 0x100009DE4, symSize: 0x34 }
  - { offsetInCU: 0x7995C, offset: 0x7995C, size: 0x8, addend: 0x0, symName: __ZNSt3__1eqB8ue170006IPNS_6threadEEEbRKNS_11__wrap_iterIT_EES7_, symObjAddr: 0x791C, symBinAddr: 0x100009ED4, symSize: 0x48 }
  - { offsetInCU: 0x79B35, offset: 0x79B35, size: 0x8, addend: 0x0, symName: __ZNSt3__116forward_as_tupleB8ue170006IJPFviEEEENS_5tupleIJDpOT_EEES6_, symObjAddr: 0x8DE4, symBinAddr: 0x10000B39C, symSize: 0x2C }
  - { offsetInCU: 0x79B6E, offset: 0x79B6E, size: 0x8, addend: 0x0, symName: __ZNSt3__116forward_as_tupleB8ue170006IJNS_9allocatorIPFviEEEEEENS_5tupleIJDpOT_EEES8_, symObjAddr: 0x8E10, symBinAddr: 0x10000B3C8, symSize: 0x2C }
  - { offsetInCU: 0x79BD1, offset: 0x79BD1, size: 0x8, addend: 0x0, symName: __ZNSt3__13getB8ue170006ILm0EJOPFviEEEERNS_13tuple_elementIXT_ENS_5tupleIJDpT0_EEEE4typeERS8_, symObjAddr: 0x9128, symBinAddr: 0x10000B6E0, symSize: 0x24 }
  - { offsetInCU: 0x79C13, offset: 0x79C13, size: 0x8, addend: 0x0, symName: __ZNSt3__13getB8ue170006ILm0EJONS_9allocatorIPFviEEEEEERNS_13tuple_elementIXT_ENS_5tupleIJDpT0_EEEE4typeERSA_, symObjAddr: 0x9164, symBinAddr: 0x10000B71C, symSize: 0x24 }
  - { offsetInCU: 0x7A139, offset: 0x7A139, size: 0x8, addend: 0x0, symName: __ZNSt3__116forward_as_tupleB8ue170006IJRKPFviEEEENS_5tupleIJDpOT_EEES8_, symObjAddr: 0x96F8, symBinAddr: 0x10000BCB0, symSize: 0x2C }
  - { offsetInCU: 0x7A187, offset: 0x7A187, size: 0x8, addend: 0x0, symName: __ZNSt3__13getB8ue170006ILm0EJRKPFviEEEERNS_13tuple_elementIXT_ENS_5tupleIJDpT0_EEEE4typeERS9_, symObjAddr: 0x98E8, symBinAddr: 0x10000BEA0, symSize: 0x24 }
  - { offsetInCU: 0x7A1C9, offset: 0x7A1C9, size: 0x8, addend: 0x0, symName: __ZNSt3__116forward_as_tupleB8ue170006IJRKNS_9allocatorIPFviEEEEEENS_5tupleIJDpOT_EEESA_, symObjAddr: 0x9C44, symBinAddr: 0x10000C1FC, symSize: 0x2C }
  - { offsetInCU: 0x7A217, offset: 0x7A217, size: 0x8, addend: 0x0, symName: __ZNSt3__13getB8ue170006ILm0EJRKNS_9allocatorIPFviEEEEEERNS_13tuple_elementIXT_ENS_5tupleIJDpT0_EEEE4typeERSB_, symObjAddr: 0x9E28, symBinAddr: 0x10000C3E0, symSize: 0x24 }
  - { offsetInCU: 0x7A532, offset: 0x7A532, size: 0x8, addend: 0x0, symName: __ZNSt3__18__invokeB8ue170006IRPFviEJiEEEDTclclsr3stdE7declvalIT_EEspclsr3stdE7declvalIT0_EEEEOS4_DpOS5_, symObjAddr: 0x9EF4, symBinAddr: 0x10000C4AC, symSize: 0x34 }
  - { offsetInCU: 0x7A57F, offset: 0x7A57F, size: 0x8, addend: 0x0, symName: __ZNSt3__1neB8ue170006ERKNS_20__map_const_iteratorINS_21__tree_const_iteratorINS_12__value_typeINS_12basic_stringIcNS_11char_traitsIcEENS_9allocatorIcEEEES8_EEPNS_11__tree_nodeIS9_PvEElEEEESH_, symObjAddr: 0xA1B4, symBinAddr: 0x10000C76C, symSize: 0x30 }
  - { offsetInCU: 0x7A5BC, offset: 0x7A5BC, size: 0x8, addend: 0x0, symName: __ZNSt3__1neB8ue170006ERKNS_21__tree_const_iteratorINS_12__value_typeINS_12basic_stringIcNS_11char_traitsIcEENS_9allocatorIcEEEES7_EEPNS_11__tree_nodeIS8_PvEElEESF_, symObjAddr: 0xA6B4, symBinAddr: 0x10000CC6C, symSize: 0x34 }
  - { offsetInCU: 0x7A5F9, offset: 0x7A5F9, size: 0x8, addend: 0x0, symName: __ZNSt3__1eqB8ue170006ERKNS_21__tree_const_iteratorINS_12__value_typeINS_12basic_stringIcNS_11char_traitsIcEENS_9allocatorIcEEEES7_EEPNS_11__tree_nodeIS8_PvEElEESF_, symObjAddr: 0xA6E8, symBinAddr: 0x10000CCA0, symSize: 0x30 }
  - { offsetInCU: 0x7A933, offset: 0x7A933, size: 0x8, addend: 0x0, symName: __ZNSt3__122__make_exception_guardB8ue170006INS_6vectorIcNS_9allocatorIcEEE16__destroy_vectorEEENS_28__exception_guard_exceptionsIT_EES7_, symObjAddr: 0xA9F4, symBinAddr: 0x10000CFAC, symSize: 0x40 }
  - { offsetInCU: 0x7A968, offset: 0x7A968, size: 0x8, addend: 0x0, symName: __ZNSt3__119__allocate_at_leastB8ue170006INS_9allocatorIcEEEENS_19__allocation_resultINS_16allocator_traitsIT_E7pointerEEERS5_m, symObjAddr: 0xADE0, symBinAddr: 0x10000D398, symSize: 0x40 }
  - { offsetInCU: 0x7A9AB, offset: 0x7A9AB, size: 0x8, addend: 0x0, symName: __ZNSt3__112__to_addressB8ue170006IcEEPT_S2_, symObjAddr: 0xB0FC, symBinAddr: 0x10000D6B4, symSize: 0x14 }
  - { offsetInCU: 0x7A9E0, offset: 0x7A9E0, size: 0x8, addend: 0x0, symName: __ZNSt3__142__uninitialized_allocator_move_if_noexceptB8ue170006INS_9allocatorIcEENS_16reverse_iteratorIPcEES5_cvEET1_RT_T0_S9_S6_, symObjAddr: 0xBCB0, symBinAddr: 0x10000E268, symSize: 0x78 }
  - { offsetInCU: 0x7AA5E, offset: 0x7AA5E, size: 0x8, addend: 0x0, symName: __ZNSt3__14swapB8ue170006IPcEENS_9enable_ifIXaasr21is_move_constructibleIT_EE5valuesr18is_move_assignableIS3_EE5valueEvE4typeERS3_S6_, symObjAddr: 0xBD74, symBinAddr: 0x10000E32C, symSize: 0x3C }
  - { offsetInCU: 0x7AAB0, offset: 0x7AAB0, size: 0x8, addend: 0x0, symName: __ZNSt3__14moveB8ue170006INS_16reverse_iteratorIPcEES3_EET0_T_S5_S4_, symObjAddr: 0xBDB0, symBinAddr: 0x10000E368, symSize: 0x78 }
  - { offsetInCU: 0x7AB0A, offset: 0x7AB0A, size: 0x8, addend: 0x0, symName: __ZNSt3__16__moveB8ue170006INS_17_ClassicAlgPolicyENS_16reverse_iteratorIPcEES4_S4_EENS_4pairIT0_T2_EES6_T1_S7_, symObjAddr: 0xBE28, symBinAddr: 0x10000E3E0, symSize: 0x64 }
  - { offsetInCU: 0x7AB76, offset: 0x7AB76, size: 0x8, addend: 0x0, symName: __ZNSt3__123__dispatch_copy_or_moveB8ue170006INS_17_ClassicAlgPolicyENS_11__move_loopIS1_EENS_14__move_trivialENS_16reverse_iteratorIPcEES7_S7_EENS_4pairIT2_T4_EES9_T3_SA_, symObjAddr: 0xBE8C, symBinAddr: 0x10000E444, symSize: 0x64 }
  - { offsetInCU: 0x7ABF4, offset: 0x7ABF4, size: 0x8, addend: 0x0, symName: __ZNSt3__121__unwrap_and_dispatchB8ue170006INS_10__overloadINS_11__move_loopINS_17_ClassicAlgPolicyEEENS_14__move_trivialEEENS_16reverse_iteratorIPcEES9_S9_Li0EEENS_4pairIT0_T2_EESB_T1_SC_, symObjAddr: 0xBEF0, symBinAddr: 0x10000E4A8, symSize: 0x12C }
  - { offsetInCU: 0x7AC86, offset: 0x7AC86, size: 0x8, addend: 0x0, symName: __ZNSt3__114__unwrap_rangeB8ue170006INS_16reverse_iteratorIPcEES3_EENS_4pairIT0_S5_EET_S7_, symObjAddr: 0xC01C, symBinAddr: 0x10000E5D4, symSize: 0x84 }
  - { offsetInCU: 0x7AEFD, offset: 0x7AEFD, size: 0x8, addend: 0x0, symName: __ZNSt3__113__unwrap_iterB8ue170006INS_16reverse_iteratorIPcEENS_18__unwrap_iter_implIS3_Lb0EEELi0EEEDTclsrT0_8__unwrapclsr3stdE7declvalIT_EEEES7_, symObjAddr: 0xC140, symBinAddr: 0x10000E6F8, symSize: 0x44 }
  - { offsetInCU: 0x7AF41, offset: 0x7AF41, size: 0x8, addend: 0x0, symName: __ZNSt3__19make_pairB8ue170006INS_16reverse_iteratorIPcEES3_EENS_4pairINS_18__unwrap_ref_decayIT_E4typeENS5_IT0_E4typeEEEOS6_OS9_, symObjAddr: 0xC184, symBinAddr: 0x10000E73C, symSize: 0x38 }
  - { offsetInCU: 0x7AF90, offset: 0x7AF90, size: 0x8, addend: 0x0, symName: __ZNSt3__114__rewrap_rangeB8ue170006INS_16reverse_iteratorIPcEES3_EET_S4_T0_, symObjAddr: 0xC1BC, symBinAddr: 0x10000E774, symSize: 0x5C }
  - { offsetInCU: 0x7AFDC, offset: 0x7AFDC, size: 0x8, addend: 0x0, symName: __ZNSt3__113__rewrap_iterB8ue170006INS_16reverse_iteratorIPcEES3_NS_18__unwrap_iter_implIS3_Lb0EEEEET_S6_T0_, symObjAddr: 0xC218, symBinAddr: 0x10000E7D0, symSize: 0x74 }
  - { offsetInCU: 0x7B031, offset: 0x7B031, size: 0x8, addend: 0x0, symName: __ZNSt3__1neB8ue170006IPcS1_EEbRKNS_16reverse_iteratorIT_EERKNS2_IT0_EE, symObjAddr: 0xC28C, symBinAddr: 0x10000E844, symSize: 0x48 }
  - { offsetInCU: 0x7B229, offset: 0x7B229, size: 0x8, addend: 0x0, symName: __ZNSt3__112__to_addressB8ue170006IKcEEPT_S3_, symObjAddr: 0xC730, symBinAddr: 0x10000ECE8, symSize: 0x14 }
  - { offsetInCU: 0x7B29C, offset: 0x7B29C, size: 0x8, addend: 0x0, symName: __ZNSt3__116__tree_next_iterB8ue170006IPNS_15__tree_end_nodeIPNS_16__tree_node_baseIPvEEEES5_EET_T0_, symObjAddr: 0xC8A4, symBinAddr: 0x10000EE5C, symSize: 0x90 }
  - { offsetInCU: 0x7B2DA, offset: 0x7B2DA, size: 0x8, addend: 0x0, symName: __ZNSt3__110__tree_minB8ue170006IPNS_16__tree_node_baseIPvEEEET_S5_, symObjAddr: 0xC934, symBinAddr: 0x10000EEEC, symSize: 0x40 }
  - { offsetInCU: 0x7B30F, offset: 0x7B30F, size: 0x8, addend: 0x0, symName: __ZNSt3__120__tree_is_left_childB8ue170006IPNS_16__tree_node_baseIPvEEEEbT_, symObjAddr: 0xC974, symBinAddr: 0x10000EF2C, symSize: 0x2C }
  - { offsetInCU: 0x7B4A7, offset: 0x7B4A7, size: 0x8, addend: 0x0, symName: __ZNSt3__116forward_as_tupleB8ue170006IJPFlRN7httplib6StreamERKNS_8multimapINS_12basic_stringIcNS_11char_traitsIcEENS_9allocatorIcEEEESA_NS1_6detail2ciENS8_INS_4pairIKSA_SA_EEEEEEEEEENS_5tupleIJDpOT_EEESP_, symObjAddr: 0xD110, symBinAddr: 0x10000F6C8, symSize: 0x2C }
  - { offsetInCU: 0x7B4E0, offset: 0x7B4E0, size: 0x8, addend: 0x0, symName: __ZNSt3__116forward_as_tupleB8ue170006IJNS_9allocatorIPFlRN7httplib6StreamERKNS_8multimapINS_12basic_stringIcNS_11char_traitsIcEENS1_IcEEEESA_NS2_6detail2ciENS1_INS_4pairIKSA_SA_EEEEEEEEEEEENS_5tupleIJDpOT_EEESQ_, symObjAddr: 0xD13C, symBinAddr: 0x10000F6F4, symSize: 0x2C }
  - { offsetInCU: 0x7B543, offset: 0x7B543, size: 0x8, addend: 0x0, symName: __ZNSt3__13getB8ue170006ILm0EJOPFlRN7httplib6StreamERKNS_8multimapINS_12basic_stringIcNS_11char_traitsIcEENS_9allocatorIcEEEESA_NS1_6detail2ciENS8_INS_4pairIKSA_SA_EEEEEEEEEERNS_13tuple_elementIXT_ENS_5tupleIJDpT0_EEEE4typeERSR_, symObjAddr: 0xD454, symBinAddr: 0x10000FA0C, symSize: 0x24 }
  - { offsetInCU: 0x7B585, offset: 0x7B585, size: 0x8, addend: 0x0, symName: __ZNSt3__13getB8ue170006ILm0EJONS_9allocatorIPFlRN7httplib6StreamERKNS_8multimapINS_12basic_stringIcNS_11char_traitsIcEENS1_IcEEEESA_NS2_6detail2ciENS1_INS_4pairIKSA_SA_EEEEEEEEEEEERNS_13tuple_elementIXT_ENS_5tupleIJDpT0_EEEE4typeERSS_, symObjAddr: 0xD490, symBinAddr: 0x10000FA48, symSize: 0x24 }
  - { offsetInCU: 0x7BAAB, offset: 0x7BAAB, size: 0x8, addend: 0x0, symName: __ZNSt3__116forward_as_tupleB8ue170006IJRKPFlRN7httplib6StreamERKNS_8multimapINS_12basic_stringIcNS_11char_traitsIcEENS_9allocatorIcEEEESA_NS1_6detail2ciENS8_INS_4pairIKSA_SA_EEEEEEEEEENS_5tupleIJDpOT_EEESR_, symObjAddr: 0xDA24, symBinAddr: 0x10000FFDC, symSize: 0x2C }
  - { offsetInCU: 0x7BAF9, offset: 0x7BAF9, size: 0x8, addend: 0x0, symName: __ZNSt3__13getB8ue170006ILm0EJRKPFlRN7httplib6StreamERKNS_8multimapINS_12basic_stringIcNS_11char_traitsIcEENS_9allocatorIcEEEESA_NS1_6detail2ciENS8_INS_4pairIKSA_SA_EEEEEEEEEERNS_13tuple_elementIXT_ENS_5tupleIJDpT0_EEEE4typeERSS_, symObjAddr: 0xDC14, symBinAddr: 0x1000101CC, symSize: 0x24 }
  - { offsetInCU: 0x7BB3B, offset: 0x7BB3B, size: 0x8, addend: 0x0, symName: __ZNSt3__116forward_as_tupleB8ue170006IJRKNS_9allocatorIPFlRN7httplib6StreamERKNS_8multimapINS_12basic_stringIcNS_11char_traitsIcEENS1_IcEEEESA_NS2_6detail2ciENS1_INS_4pairIKSA_SA_EEEEEEEEEEEENS_5tupleIJDpOT_EEESS_, symObjAddr: 0xDF70, symBinAddr: 0x100010528, symSize: 0x2C }
  - { offsetInCU: 0x7BB89, offset: 0x7BB89, size: 0x8, addend: 0x0, symName: __ZNSt3__13getB8ue170006ILm0EJRKNS_9allocatorIPFlRN7httplib6StreamERKNS_8multimapINS_12basic_stringIcNS_11char_traitsIcEENS1_IcEEEESA_NS2_6detail2ciENS1_INS_4pairIKSA_SA_EEEEEEEEEEEERNS_13tuple_elementIXT_ENS_5tupleIJDpT0_EEEE4typeERST_, symObjAddr: 0xE154, symBinAddr: 0x10001070C, symSize: 0x24 }
  - { offsetInCU: 0x7BC1A, offset: 0x7BC1A, size: 0x8, addend: 0x0, symName: __ZNSt3__18__invokeB8ue170006IRPFlRN7httplib6StreamERKNS_8multimapINS_12basic_stringIcNS_11char_traitsIcEENS_9allocatorIcEEEESA_NS1_6detail2ciENS8_INS_4pairIKSA_SA_EEEEEEEJS3_RSH_EEEDTclclsr3stdE7declvalIT_EEspclsr3stdE7declvalIT0_EEEEOSO_DpOSP_, symObjAddr: 0xE230, symBinAddr: 0x1000107E8, symSize: 0x38 }
  - { offsetInCU: 0x7BC7F, offset: 0x7BC7F, size: 0x8, addend: 0x0, symName: __ZNSt3__112__to_addressB8ue170006INS_4pairINS_10unique_ptrIN7httplib6detail11MatcherBaseENS_14default_deleteIS5_EEEENS_8functionIFvRKNS3_7RequestERNS3_8ResponseEEEEEEEEPT_SJ_, symObjAddr: 0xEE64, symBinAddr: 0x10001141C, symSize: 0x14 }
  - { offsetInCU: 0x7BCB4, offset: 0x7BCB4, size: 0x8, addend: 0x0, symName: __ZNSt3__112__to_addressB8ue170006INS_4pairINS_10unique_ptrIN7httplib6detail11MatcherBaseENS_14default_deleteIS5_EEEENS_8functionIFvRKNS3_7RequestERNS3_8ResponseERKNS3_13ContentReaderEEEEEEEEPT_SM_, symObjAddr: 0xF558, symBinAddr: 0x100011B10, symSize: 0x14 }
  - { offsetInCU: 0x7BCE9, offset: 0x7BCE9, size: 0x8, addend: 0x0, symName: __ZNSt3__112__to_addressB8ue170006IN7httplib6Server15MountPointEntryEEEPT_S5_, symObjAddr: 0xFD84, symBinAddr: 0x10001233C, symSize: 0x14 }
  - { offsetInCU: 0x7BD24, offset: 0x7BD24, size: 0x8, addend: 0x0, symName: __ZNSt3__111this_thread9sleep_forB8ue170006IxNS_5ratioILl1ELl1000EEEEEvRKNS_6chrono8durationIT_T0_EE, symObjAddr: 0x10740, symBinAddr: 0x100012CF8, symSize: 0xBC }
  - { offsetInCU: 0x7C275, offset: 0x7C275, size: 0x8, addend: 0x0, symName: __ZNSt3__1eqB8ue170006IcNS_11char_traitsIcEENS_9allocatorIcEEEEbRKNS_12basic_stringIT_T0_T1_EEPKS6_, symObjAddr: 0x13D30, symBinAddr: 0x1000162E8, symSize: 0xAC }
  - { offsetInCU: 0x7C2DD, offset: 0x7C2DD, size: 0x8, addend: 0x0, symName: __ZNSt3__1neB8ue170006IcNS_11char_traitsIcEENS_9allocatorIcEEEEbRKNS_12basic_stringIT_T0_T1_EEPKS6_, symObjAddr: 0x13E30, symBinAddr: 0x1000163E8, symSize: 0x34 }
  - { offsetInCU: 0x7C335, offset: 0x7C335, size: 0x8, addend: 0x0, symName: __ZNSt3__112__to_addressB8ue170006INS_9sub_matchINS_11__wrap_iterIPKcEEEEEEPT_S8_, symObjAddr: 0x16D7C, symBinAddr: 0x100019334, symSize: 0x14 }
  - { offsetInCU: 0x7C36A, offset: 0x7C36A, size: 0x8, addend: 0x0, symName: __ZNSt3__112__to_addressB8ue170006INS_4pairIllEEEEPT_S4_, symObjAddr: 0x17A34, symBinAddr: 0x100019FEC, symSize: 0x14 }
  - { offsetInCU: 0x7C39F, offset: 0x7C39F, size: 0x8, addend: 0x0, symName: __ZNSt3__123lexicographical_compareB8ue170006INS_11__wrap_iterIPKcEES4_ZNK7httplib6detail2ciclERKNS_12basic_stringIcNS_11char_traitsIcEENS_9allocatorIcEEEESF_EUlhhE_EEbT_SH_T0_SI_T1_, symObjAddr: 0x18B14, symBinAddr: 0x10001B0CC, symSize: 0x64 }
  - { offsetInCU: 0x7C41E, offset: 0x7C41E, size: 0x8, addend: 0x0, symName: __ZNSt3__125__lexicographical_compareB8ue170006IRZNK7httplib6detail2ciclERKNS_12basic_stringIcNS_11char_traitsIcEENS_9allocatorIcEEEESB_EUlhhE_NS_11__wrap_iterIPKcEESH_EEbT0_SI_T1_SJ_T_, symObjAddr: 0x18C18, symBinAddr: 0x10001B1D0, symSize: 0x12C }
  - { offsetInCU: 0x7C49D, offset: 0x7C49D, size: 0x8, addend: 0x0, symName: __ZNSt3__1neB8ue170006IPKcEEbRKNS_11__wrap_iterIT_EES7_, symObjAddr: 0x18D44, symBinAddr: 0x10001B2FC, symSize: 0x34 }
  - { offsetInCU: 0x7C4E0, offset: 0x7C4E0, size: 0x8, addend: 0x0, symName: __ZNSt3__1eqB8ue170006IPKcEEbRKNS_11__wrap_iterIT_EES7_, symObjAddr: 0x18D78, symBinAddr: 0x10001B330, symSize: 0x48 }
  - { offsetInCU: 0x7C524, offset: 0x7C524, size: 0x8, addend: 0x0, symName: __ZNSt3__127__tree_balance_after_insertB8ue170006IPNS_16__tree_node_baseIPvEEEEvT_S5_, symObjAddr: 0x18F04, symBinAddr: 0x10001B4BC, symSize: 0x27C }
  - { offsetInCU: 0x7C5A5, offset: 0x7C5A5, size: 0x8, addend: 0x0, symName: __ZNSt3__118__tree_left_rotateB8ue170006IPNS_16__tree_node_baseIPvEEEEvT_, symObjAddr: 0x19180, symBinAddr: 0x10001B738, symSize: 0xD8 }
  - { offsetInCU: 0x7C5E9, offset: 0x7C5E9, size: 0x8, addend: 0x0, symName: __ZNSt3__119__tree_right_rotateB8ue170006IPNS_16__tree_node_baseIPvEEEEvT_, symObjAddr: 0x19258, symBinAddr: 0x10001B810, symSize: 0xCC }
  - { offsetInCU: 0x7C62C, offset: 0x7C62C, size: 0x8, addend: 0x0, symName: __ZNSt3__111__tree_leafB8ue170006IPNS_16__tree_node_baseIPvEEEET_S5_, symObjAddr: 0x19454, symBinAddr: 0x10001BA0C, symSize: 0x70 }
  - { offsetInCU: 0x7C67F, offset: 0x7C67F, size: 0x8, addend: 0x0, symName: __ZNSt3__18distanceB8ue170006IPKcEENS_15iterator_traitsIT_E15difference_typeES4_S4_, symObjAddr: 0x1A808, symBinAddr: 0x10001CDC0, symSize: 0x2C }
  - { offsetInCU: 0x7C6C2, offset: 0x7C6C2, size: 0x8, addend: 0x0, symName: __ZNSt3__110__distanceB8ue170006IPKcEENS_15iterator_traitsIT_E15difference_typeES4_S4_NS_26random_access_iterator_tagE, symObjAddr: 0x1A978, symBinAddr: 0x10001CF30, symSize: 0x20 }
  - { offsetInCU: 0x7D08A, offset: 0x7D08A, size: 0x8, addend: 0x0, symName: __ZNSt3__1neB8ue170006ERKNS_14__map_iteratorINS_15__tree_iteratorINS_12__value_typeINS_12basic_stringIcNS_11char_traitsIcEENS_9allocatorIcEEEES8_EEPNS_11__tree_nodeIS9_PvEElEEEESH_, symObjAddr: 0x1D62C, symBinAddr: 0x10001FBE4, symSize: 0x30 }
  - { offsetInCU: 0x7D4F2, offset: 0x7D4F2, size: 0x8, addend: 0x0, symName: __ZNSt3__1neB8ue170006ERKNS_15__tree_iteratorINS_12__value_typeINS_12basic_stringIcNS_11char_traitsIcEENS_9allocatorIcEEEES7_EEPNS_11__tree_nodeIS8_PvEElEESF_, symObjAddr: 0x1E0C0, symBinAddr: 0x100020678, symSize: 0x34 }
  - { offsetInCU: 0x7D52F, offset: 0x7D52F, size: 0x8, addend: 0x0, symName: __ZNSt3__1eqB8ue170006ERKNS_15__tree_iteratorINS_12__value_typeINS_12basic_stringIcNS_11char_traitsIcEENS_9allocatorIcEEEES7_EEPNS_11__tree_nodeIS8_PvEElEESF_, symObjAddr: 0x1E1EC, symBinAddr: 0x1000207A4, symSize: 0x30 }
  - { offsetInCU: 0x7D5D3, offset: 0x7D5D3, size: 0x8, addend: 0x0, symName: __ZNSt3__113__tree_removeB8ue170006IPNS_16__tree_node_baseIPvEEEEvT_S5_, symObjAddr: 0x1E440, symBinAddr: 0x1000209F8, symSize: 0x6E0 }
  - { offsetInCU: 0x7D655, offset: 0x7D655, size: 0x8, addend: 0x0, symName: __ZNSt3__111__tree_nextB8ue170006IPNS_16__tree_node_baseIPvEEEET_S5_, symObjAddr: 0x1EB20, symBinAddr: 0x1000210D8, symSize: 0x80 }
  - { offsetInCU: 0x7D68A, offset: 0x7D68A, size: 0x8, addend: 0x0, symName: __ZNSt3__1plB8ue170006IcNS_11char_traitsIcEENS_9allocatorIcEEEENS_12basic_stringIT_T0_T1_EEPKS6_OS9_, symObjAddr: 0x1EBC0, symBinAddr: 0x100021178, symSize: 0x44 }
  - { offsetInCU: 0x7D6E2, offset: 0x7D6E2, size: 0x8, addend: 0x0, symName: __ZNSt3__112__to_addressB8ue170006IjEEPT_S2_, symObjAddr: 0x1F844, symBinAddr: 0x100021DFC, symSize: 0x14 }
  - { offsetInCU: 0x7D717, offset: 0x7D717, size: 0x8, addend: 0x0, symName: __ZNSt3__119__allocate_at_leastB8ue170006INS_9allocatorIjEEEENS_19__allocation_resultINS_16allocator_traitsIT_E7pointerEEERS5_m, symObjAddr: 0x1FE68, symBinAddr: 0x100022420, symSize: 0x40 }
  - { offsetInCU: 0x7D75A, offset: 0x7D75A, size: 0x8, addend: 0x0, symName: __ZNSt3__142__uninitialized_allocator_move_if_noexceptB8ue170006INS_9allocatorIjEENS_16reverse_iteratorIPjEES5_jvEET1_RT_T0_S9_S6_, symObjAddr: 0x200D4, symBinAddr: 0x10002268C, symSize: 0x78 }
  - { offsetInCU: 0x7D7D8, offset: 0x7D7D8, size: 0x8, addend: 0x0, symName: __ZNSt3__14swapB8ue170006IPjEENS_9enable_ifIXaasr21is_move_constructibleIT_EE5valuesr18is_move_assignableIS3_EE5valueEvE4typeERS3_S6_, symObjAddr: 0x20198, symBinAddr: 0x100022750, symSize: 0x3C }
  - { offsetInCU: 0x7D82A, offset: 0x7D82A, size: 0x8, addend: 0x0, symName: __ZNSt3__14moveB8ue170006INS_16reverse_iteratorIPjEES3_EET0_T_S5_S4_, symObjAddr: 0x202C8, symBinAddr: 0x100022880, symSize: 0x78 }
  - { offsetInCU: 0x7D884, offset: 0x7D884, size: 0x8, addend: 0x0, symName: __ZNSt3__16__moveB8ue170006INS_17_ClassicAlgPolicyENS_16reverse_iteratorIPjEES4_S4_EENS_4pairIT0_T2_EES6_T1_S7_, symObjAddr: 0x20340, symBinAddr: 0x1000228F8, symSize: 0x64 }
  - { offsetInCU: 0x7D8F0, offset: 0x7D8F0, size: 0x8, addend: 0x0, symName: __ZNSt3__123__dispatch_copy_or_moveB8ue170006INS_17_ClassicAlgPolicyENS_11__move_loopIS1_EENS_14__move_trivialENS_16reverse_iteratorIPjEES7_S7_EENS_4pairIT2_T4_EES9_T3_SA_, symObjAddr: 0x203A4, symBinAddr: 0x10002295C, symSize: 0x64 }
  - { offsetInCU: 0x7D96E, offset: 0x7D96E, size: 0x8, addend: 0x0, symName: __ZNSt3__121__unwrap_and_dispatchB8ue170006INS_10__overloadINS_11__move_loopINS_17_ClassicAlgPolicyEEENS_14__move_trivialEEENS_16reverse_iteratorIPjEES9_S9_Li0EEENS_4pairIT0_T2_EESB_T1_SC_, symObjAddr: 0x20408, symBinAddr: 0x1000229C0, symSize: 0x12C }
  - { offsetInCU: 0x7DA00, offset: 0x7DA00, size: 0x8, addend: 0x0, symName: __ZNSt3__114__unwrap_rangeB8ue170006INS_16reverse_iteratorIPjEES3_EENS_4pairIT0_S5_EET_S7_, symObjAddr: 0x20534, symBinAddr: 0x100022AEC, symSize: 0x84 }
  - { offsetInCU: 0x7DB20, offset: 0x7DB20, size: 0x8, addend: 0x0, symName: __ZNSt3__113__unwrap_iterB8ue170006INS_16reverse_iteratorIPjEENS_18__unwrap_iter_implIS3_Lb0EEELi0EEEDTclsrT0_8__unwrapclsr3stdE7declvalIT_EEEES7_, symObjAddr: 0x20658, symBinAddr: 0x100022C10, symSize: 0x44 }
  - { offsetInCU: 0x7DB64, offset: 0x7DB64, size: 0x8, addend: 0x0, symName: __ZNSt3__19make_pairB8ue170006INS_16reverse_iteratorIPjEES3_EENS_4pairINS_18__unwrap_ref_decayIT_E4typeENS5_IT0_E4typeEEEOS6_OS9_, symObjAddr: 0x2069C, symBinAddr: 0x100022C54, symSize: 0x38 }
  - { offsetInCU: 0x7DBB3, offset: 0x7DBB3, size: 0x8, addend: 0x0, symName: __ZNSt3__114__rewrap_rangeB8ue170006INS_16reverse_iteratorIPjEES3_EET_S4_T0_, symObjAddr: 0x206D4, symBinAddr: 0x100022C8C, symSize: 0x5C }
  - { offsetInCU: 0x7DBFF, offset: 0x7DBFF, size: 0x8, addend: 0x0, symName: __ZNSt3__113__rewrap_iterB8ue170006INS_16reverse_iteratorIPjEES3_NS_18__unwrap_iter_implIS3_Lb0EEEEET_S6_T0_, symObjAddr: 0x20730, symBinAddr: 0x100022CE8, symSize: 0x74 }
  - { offsetInCU: 0x7DC54, offset: 0x7DC54, size: 0x8, addend: 0x0, symName: __ZNSt3__1neB8ue170006IPjS1_EEbRKNS_16reverse_iteratorIT_EERKNS2_IT0_EE, symObjAddr: 0x207A4, symBinAddr: 0x100022D5C, symSize: 0x48 }
  - { offsetInCU: 0x7DD56, offset: 0x7DD56, size: 0x8, addend: 0x0, symName: __ZNSt3__14fillB8ue170006IPjjEEvT_S2_RKT0_, symObjAddr: 0x21728, symBinAddr: 0x100023CE0, symSize: 0x34 }
  - { offsetInCU: 0x7DDAD, offset: 0x7DDAD, size: 0x8, addend: 0x0, symName: __ZNSt3__16__fillB8ue170006IPjjEEvT_S2_RKT0_NS_26random_access_iterator_tagE, symObjAddr: 0x2179C, symBinAddr: 0x100023D54, symSize: 0x44 }
  - { offsetInCU: 0x7DE0D, offset: 0x7DE0D, size: 0x8, addend: 0x0, symName: __ZNSt3__16fill_nB8ue170006IPjljEET_S2_T0_RKT1_, symObjAddr: 0x217E0, symBinAddr: 0x100023D98, symSize: 0x44 }
  - { offsetInCU: 0x7DE70, offset: 0x7DE70, size: 0x8, addend: 0x0, symName: __ZNSt3__18__fill_nB8ue170006IPjljEET_S2_T0_RKT1_, symObjAddr: 0x21824, symBinAddr: 0x100023DDC, symSize: 0x64 }
  - { offsetInCU: 0x7DED3, offset: 0x7DED3, size: 0x8, addend: 0x0, symName: __ZNSt3__121__convert_to_integralB8ue170006El, symObjAddr: 0x21888, symBinAddr: 0x100023E40, symSize: 0x14 }
  - { offsetInCU: 0x7E124, offset: 0x7E124, size: 0x8, addend: 0x0, symName: __ZNSt3__111__str_rfindB8ue170006IcmNS_11char_traitsIcEELm18446744073709551615EEET0_PKT_S3_S6_S3_S3_, symObjAddr: 0x21DE8, symBinAddr: 0x1000243A0, symSize: 0x128 }
  - { offsetInCU: 0x7E1CC, offset: 0x7E1CC, size: 0x8, addend: 0x0, symName: __ZNSt3__118__find_end_classicB8ue170006IPKcS2_FbccEEET_S4_S4_T0_S5_RT1_, symObjAddr: 0x21F44, symBinAddr: 0x1000244FC, symSize: 0x64 }
  - { offsetInCU: 0x7E25A, offset: 0x7E25A, size: 0x8, addend: 0x0, symName: __ZNSt3__115__find_end_implB8ue170006INS_17_ClassicAlgPolicyEPKcS3_S3_S3_FbccENS_10__identityES5_EENS_4pairIT0_S7_EES7_T1_T2_T3_RT4_RT5_RT6_NS_20forward_iterator_tagESI_, symObjAddr: 0x21FD0, symBinAddr: 0x100024588, symSize: 0x1F4 }
  - { offsetInCU: 0x7E383, offset: 0x7E383, size: 0x8, addend: 0x0, symName: __ZNSt3__18__invokeB8ue170006IRFbccEJRKcS4_EEEDTclclsr3stdE7declvalIT_EEspclsr3stdE7declvalIT0_EEEEOS5_DpOS6_, symObjAddr: 0x22218, symBinAddr: 0x1000247D0, symSize: 0x40 }
  - { offsetInCU: 0x7E3E8, offset: 0x7E3E8, size: 0x8, addend: 0x0, symName: __ZNSt3__18__invokeB8ue170006IRNS_10__identityEJRKcEEEDTclclsr3stdE7declvalIT_EEspclsr3stdE7declvalIT0_EEEEOS5_DpOS6_, symObjAddr: 0x22258, symBinAddr: 0x100024810, symSize: 0x2C }
  - { offsetInCU: 0x7E489, offset: 0x7E489, size: 0x8, addend: 0x0, symName: __ZNSt3__118__constexpr_strlenB8ue170006EPKc, symObjAddr: 0x222D0, symBinAddr: 0x100024888, symSize: 0x24 }
  - { offsetInCU: 0x7E58A, offset: 0x7E58A, size: 0x8, addend: 0x0, symName: __ZNSt3__19__advanceB8ue170006INS_20__map_const_iteratorINS_21__tree_const_iteratorINS_12__value_typeINS_12basic_stringIcNS_11char_traitsIcEENS_9allocatorIcEEEES9_EEPNS_11__tree_nodeISA_PvEElEEEEEEvRT_NS_15iterator_traitsISH_E15difference_typeENS_26bidirectional_iterator_tagE, symObjAddr: 0x227E4, symBinAddr: 0x100024D9C, symSize: 0xA4 }
  - { offsetInCU: 0x7E5D3, offset: 0x7E5D3, size: 0x8, addend: 0x0, symName: __ZNSt3__116__tree_prev_iterB8ue170006IPNS_16__tree_node_baseIPvEEPNS_15__tree_end_nodeIS4_EEEET_T0_, symObjAddr: 0x228EC, symBinAddr: 0x100024EA4, symSize: 0x88 }
  - { offsetInCU: 0x7E620, offset: 0x7E620, size: 0x8, addend: 0x0, symName: __ZNSt3__110__tree_maxB8ue170006IPNS_16__tree_node_baseIPvEEEET_S5_, symObjAddr: 0x22974, symBinAddr: 0x100024F2C, symSize: 0x40 }
  - { offsetInCU: 0x7E688, offset: 0x7E688, size: 0x8, addend: 0x0, symName: __ZNSt3__19make_pairB8ue170006IRlmEENS_4pairINS_18__unwrap_ref_decayIT_E4typeENS3_IT0_E4typeEEEOS4_OS7_, symObjAddr: 0x229C8, symBinAddr: 0x100024F80, symSize: 0x38 }
  - { offsetInCU: 0x7E7AB, offset: 0x7E7AB, size: 0x8, addend: 0x0, symName: __ZNSt3__14swapB8ue170006INS_12basic_stringIcNS_11char_traitsIcEENS_9allocatorIcEEE5__repEEENS_9enable_ifIXaasr21is_move_constructibleIT_EE5valuesr18is_move_assignableIS9_EE5valueEvE4typeERS9_SC_, symObjAddr: 0x235BC, symBinAddr: 0x100025B74, symSize: 0x54 }
  - { offsetInCU: 0x7E7FE, offset: 0x7E7FE, size: 0x8, addend: 0x0, symName: __ZNSt3__116__swap_allocatorB8ue170006INS_9allocatorIcEEEEvRT_S4_, symObjAddr: 0x23610, symBinAddr: 0x100025BC8, symSize: 0x2C }
  - { offsetInCU: 0x7E83E, offset: 0x7E83E, size: 0x8, addend: 0x0, symName: __ZNSt3__116__swap_allocatorB8ue170006INS_9allocatorIcEEEEvRT_S4_NS_17integral_constantIbLb0EEE, symObjAddr: 0x2363C, symBinAddr: 0x100025BF4, symSize: 0x14 }
  - { offsetInCU: 0x7E9E2, offset: 0x7E9E2, size: 0x8, addend: 0x0, symName: __ZNSt3__116forward_as_tupleB8ue170006IJZNK7httplib6Server12apply_rangesERKNS1_7RequestERNS1_8ResponseERNS_12basic_stringIcNS_11char_traitsIcEENS_9allocatorIcEEEESE_EUlPKcmE_EEENS_5tupleIJDpOT_EEESL_, symObjAddr: 0x23EB8, symBinAddr: 0x100026470, symSize: 0x2C }
  - { offsetInCU: 0x7EA1B, offset: 0x7EA1B, size: 0x8, addend: 0x0, symName: __ZNSt3__116forward_as_tupleB8ue170006IJNS_9allocatorIZNK7httplib6Server12apply_rangesERKNS2_7RequestERNS2_8ResponseERNS_12basic_stringIcNS_11char_traitsIcEENS1_IcEEEESE_EUlPKcmE_EEEEENS_5tupleIJDpOT_EEESM_, symObjAddr: 0x23EE4, symBinAddr: 0x10002649C, symSize: 0x2C }
  - { offsetInCU: 0x7EA7E, offset: 0x7EA7E, size: 0x8, addend: 0x0, symName: __ZNSt3__13getB8ue170006ILm0EJOZNK7httplib6Server12apply_rangesERKNS1_7RequestERNS1_8ResponseERNS_12basic_stringIcNS_11char_traitsIcEENS_9allocatorIcEEEESE_EUlPKcmE_EEERNS_13tuple_elementIXT_ENS_5tupleIJDpT0_EEEE4typeERSN_, symObjAddr: 0x241FC, symBinAddr: 0x1000267B4, symSize: 0x24 }
  - { offsetInCU: 0x7EAC0, offset: 0x7EAC0, size: 0x8, addend: 0x0, symName: __ZNSt3__13getB8ue170006ILm0EJONS_9allocatorIZNK7httplib6Server12apply_rangesERKNS2_7RequestERNS2_8ResponseERNS_12basic_stringIcNS_11char_traitsIcEENS1_IcEEEESE_EUlPKcmE_EEEEERNS_13tuple_elementIXT_ENS_5tupleIJDpT0_EEEE4typeERSO_, symObjAddr: 0x24238, symBinAddr: 0x1000267F0, symSize: 0x24 }
  - { offsetInCU: 0x7EFE6, offset: 0x7EFE6, size: 0x8, addend: 0x0, symName: __ZNSt3__116forward_as_tupleB8ue170006IJRKZNK7httplib6Server12apply_rangesERKNS1_7RequestERNS1_8ResponseERNS_12basic_stringIcNS_11char_traitsIcEENS_9allocatorIcEEEESE_EUlPKcmE_EEENS_5tupleIJDpOT_EEESN_, symObjAddr: 0x247CC, symBinAddr: 0x100026D84, symSize: 0x2C }
  - { offsetInCU: 0x7F034, offset: 0x7F034, size: 0x8, addend: 0x0, symName: __ZNSt3__13getB8ue170006ILm0EJRKZNK7httplib6Server12apply_rangesERKNS1_7RequestERNS1_8ResponseERNS_12basic_stringIcNS_11char_traitsIcEENS_9allocatorIcEEEESE_EUlPKcmE_EEERNS_13tuple_elementIXT_ENS_5tupleIJDpT0_EEEE4typeERSO_, symObjAddr: 0x249BC, symBinAddr: 0x100026F74, symSize: 0x24 }
  - { offsetInCU: 0x7F076, offset: 0x7F076, size: 0x8, addend: 0x0, symName: __ZNSt3__116forward_as_tupleB8ue170006IJRKNS_9allocatorIZNK7httplib6Server12apply_rangesERKNS2_7RequestERNS2_8ResponseERNS_12basic_stringIcNS_11char_traitsIcEENS1_IcEEEESE_EUlPKcmE_EEEEENS_5tupleIJDpOT_EEESO_, symObjAddr: 0x24D18, symBinAddr: 0x1000272D0, symSize: 0x2C }
  - { offsetInCU: 0x7F0C4, offset: 0x7F0C4, size: 0x8, addend: 0x0, symName: __ZNSt3__13getB8ue170006ILm0EJRKNS_9allocatorIZNK7httplib6Server12apply_rangesERKNS2_7RequestERNS2_8ResponseERNS_12basic_stringIcNS_11char_traitsIcEENS1_IcEEEESE_EUlPKcmE_EEEEERNS_13tuple_elementIXT_ENS_5tupleIJDpT0_EEEE4typeERSP_, symObjAddr: 0x24EFC, symBinAddr: 0x1000274B4, symSize: 0x24 }
  - { offsetInCU: 0x7F54E, offset: 0x7F54E, size: 0x8, addend: 0x0, symName: __ZNSt3__18__invokeB8ue170006IRZNK7httplib6Server12apply_rangesERKNS1_7RequestERNS1_8ResponseERNS_12basic_stringIcNS_11char_traitsIcEENS_9allocatorIcEEEESE_EUlPKcmE_JSG_mEEEDTclclsr3stdE7declvalIT_EEspclsr3stdE7declvalIT0_EEEEOSJ_DpOSK_, symObjAddr: 0x24FE0, symBinAddr: 0x100027598, symSize: 0x40 }
  - { offsetInCU: 0x7F5B3, offset: 0x7F5B3, size: 0x8, addend: 0x0, symName: __ZNSt3__1neB8ue170006IN7httplib6detail10compressorENS_14default_deleteIS3_EEEEbRKNS_10unique_ptrIT_T0_EEDn, symObjAddr: 0x25C20, symBinAddr: 0x1000281D8, symSize: 0x2C }
  - { offsetInCU: 0x7FC46, offset: 0x7FC46, size: 0x8, addend: 0x0, symName: __ZNSt3__116forward_as_tupleB8ue170006IJZN7httplib6detail13write_contentIZNS1_6Server27write_content_with_providerERNS1_6StreamERKNS1_7RequestERNS1_8ResponseERKNS_12basic_stringIcNS_11char_traitsIcEENS_9allocatorIcEEEESJ_EUlvE_EEbS6_RKNS_8functionIFbmmRNS1_8DataSinkEEEEmmT_RNS1_5ErrorEEUlPKcmE_EEENS_5tupleIJDpOT_EEES11_, symObjAddr: 0x27530, symBinAddr: 0x100029AE8, symSize: 0x2C }
  - { offsetInCU: 0x7FC7F, offset: 0x7FC7F, size: 0x8, addend: 0x0, symName: __ZNSt3__116forward_as_tupleB8ue170006IJNS_9allocatorIZN7httplib6detail13write_contentIZNS2_6Server27write_content_with_providerERNS2_6StreamERKNS2_7RequestERNS2_8ResponseERKNS_12basic_stringIcNS_11char_traitsIcEENS1_IcEEEESJ_EUlvE_EEbS7_RKNS_8functionIFbmmRNS2_8DataSinkEEEEmmT_RNS2_5ErrorEEUlPKcmE_EEEEENS_5tupleIJDpOT_EEES12_, symObjAddr: 0x2755C, symBinAddr: 0x100029B14, symSize: 0x2C }
  - { offsetInCU: 0x7FCE2, offset: 0x7FCE2, size: 0x8, addend: 0x0, symName: __ZNSt3__13getB8ue170006ILm0EJOZN7httplib6detail13write_contentIZNS1_6Server27write_content_with_providerERNS1_6StreamERKNS1_7RequestERNS1_8ResponseERKNS_12basic_stringIcNS_11char_traitsIcEENS_9allocatorIcEEEESJ_EUlvE_EEbS6_RKNS_8functionIFbmmRNS1_8DataSinkEEEEmmT_RNS1_5ErrorEEUlPKcmE_EEERNS_13tuple_elementIXT_ENS_5tupleIJDpT0_EEEE4typeERS13_, symObjAddr: 0x2787C, symBinAddr: 0x100029E34, symSize: 0x24 }
  - { offsetInCU: 0x7FD24, offset: 0x7FD24, size: 0x8, addend: 0x0, symName: __ZNSt3__13getB8ue170006ILm0EJONS_9allocatorIZN7httplib6detail13write_contentIZNS2_6Server27write_content_with_providerERNS2_6StreamERKNS2_7RequestERNS2_8ResponseERKNS_12basic_stringIcNS_11char_traitsIcEENS1_IcEEEESJ_EUlvE_EEbS7_RKNS_8functionIFbmmRNS2_8DataSinkEEEEmmT_RNS2_5ErrorEEUlPKcmE_EEEEERNS_13tuple_elementIXT_ENS_5tupleIJDpT0_EEEE4typeERS14_, symObjAddr: 0x278B8, symBinAddr: 0x100029E70, symSize: 0x24 }
  - { offsetInCU: 0x7FEF2, offset: 0x7FEF2, size: 0x8, addend: 0x0, symName: __ZNSt3__116forward_as_tupleB8ue170006IJRKZN7httplib6detail13write_contentIZNS1_6Server27write_content_with_providerERNS1_6StreamERKNS1_7RequestERNS1_8ResponseERKNS_12basic_stringIcNS_11char_traitsIcEENS_9allocatorIcEEEESJ_EUlvE_EEbS6_RKNS_8functionIFbmmRNS1_8DataSinkEEEEmmT_RNS1_5ErrorEEUlPKcmE_EEENS_5tupleIJDpOT_EEES13_, symObjAddr: 0x27CB4, symBinAddr: 0x10002A26C, symSize: 0x2C }
  - { offsetInCU: 0x7FF40, offset: 0x7FF40, size: 0x8, addend: 0x0, symName: __ZNSt3__13getB8ue170006ILm0EJRKZN7httplib6detail13write_contentIZNS1_6Server27write_content_with_providerERNS1_6StreamERKNS1_7RequestERNS1_8ResponseERKNS_12basic_stringIcNS_11char_traitsIcEENS_9allocatorIcEEEESJ_EUlvE_EEbS6_RKNS_8functionIFbmmRNS1_8DataSinkEEEEmmT_RNS1_5ErrorEEUlPKcmE_EEERNS_13tuple_elementIXT_ENS_5tupleIJDpT0_EEEE4typeERS14_, symObjAddr: 0x27EAC, symBinAddr: 0x10002A464, symSize: 0x24 }
  - { offsetInCU: 0x7FF82, offset: 0x7FF82, size: 0x8, addend: 0x0, symName: __ZNSt3__116forward_as_tupleB8ue170006IJRKNS_9allocatorIZN7httplib6detail13write_contentIZNS2_6Server27write_content_with_providerERNS2_6StreamERKNS2_7RequestERNS2_8ResponseERKNS_12basic_stringIcNS_11char_traitsIcEENS1_IcEEEESJ_EUlvE_EEbS7_RKNS_8functionIFbmmRNS2_8DataSinkEEEEmmT_RNS2_5ErrorEEUlPKcmE_EEEEENS_5tupleIJDpOT_EEES14_, symObjAddr: 0x28208, symBinAddr: 0x10002A7C0, symSize: 0x2C }
  - { offsetInCU: 0x7FFD0, offset: 0x7FFD0, size: 0x8, addend: 0x0, symName: __ZNSt3__13getB8ue170006ILm0EJRKNS_9allocatorIZN7httplib6detail13write_contentIZNS2_6Server27write_content_with_providerERNS2_6StreamERKNS2_7RequestERNS2_8ResponseERKNS_12basic_stringIcNS_11char_traitsIcEENS1_IcEEEESJ_EUlvE_EEbS7_RKNS_8functionIFbmmRNS2_8DataSinkEEEEmmT_RNS2_5ErrorEEUlPKcmE_EEEEERNS_13tuple_elementIXT_ENS_5tupleIJDpT0_EEEE4typeERS15_, symObjAddr: 0x283EC, symBinAddr: 0x10002A9A4, symSize: 0x24 }
  - { offsetInCU: 0x80012, offset: 0x80012, size: 0x8, addend: 0x0, symName: __ZNSt3__18__invokeB8ue170006IRZN7httplib6detail13write_contentIZNS1_6Server27write_content_with_providerERNS1_6StreamERKNS1_7RequestERNS1_8ResponseERKNS_12basic_stringIcNS_11char_traitsIcEENS_9allocatorIcEEEESJ_EUlvE_EEbS6_RKNS_8functionIFbmmRNS1_8DataSinkEEEEmmT_RNS1_5ErrorEEUlPKcmE_JSW_mEEEDTclclsr3stdE7declvalISS_EEspclsr3stdE7declvalIT0_EEEEOSS_DpOSZ_, symObjAddr: 0x284D0, symBinAddr: 0x10002AA88, symSize: 0x40 }
  - { offsetInCU: 0x80077, offset: 0x80077, size: 0x8, addend: 0x0, symName: __ZNSt3__14swapB8ue170006IPNS_10__function6__baseIFbPKcmEEEEENS_9enable_ifIXaasr21is_move_constructibleIT_EE5valuesr18is_move_assignableIS9_EE5valueEvE4typeERS9_SC_, symObjAddr: 0x28998, symBinAddr: 0x10002AF50, symSize: 0x3C }
  - { offsetInCU: 0x8022C, offset: 0x8022C, size: 0x8, addend: 0x0, symName: __ZNSt3__116forward_as_tupleB8ue170006IJZN7httplib6detail13write_contentIZNS1_6Server27write_content_with_providerERNS1_6StreamERKNS1_7RequestERNS1_8ResponseERKNS_12basic_stringIcNS_11char_traitsIcEENS_9allocatorIcEEEESJ_EUlvE_EEbS6_RKNS_8functionIFbmmRNS1_8DataSinkEEEEmmT_RNS1_5ErrorEEUlvE_EEENS_5tupleIJDpOT_EEESZ_, symObjAddr: 0x29174, symBinAddr: 0x10002B72C, symSize: 0x2C }
  - { offsetInCU: 0x80265, offset: 0x80265, size: 0x8, addend: 0x0, symName: __ZNSt3__116forward_as_tupleB8ue170006IJNS_9allocatorIZN7httplib6detail13write_contentIZNS2_6Server27write_content_with_providerERNS2_6StreamERKNS2_7RequestERNS2_8ResponseERKNS_12basic_stringIcNS_11char_traitsIcEENS1_IcEEEESJ_EUlvE_EEbS7_RKNS_8functionIFbmmRNS2_8DataSinkEEEEmmT_RNS2_5ErrorEEUlvE_EEEEENS_5tupleIJDpOT_EEES10_, symObjAddr: 0x291A0, symBinAddr: 0x10002B758, symSize: 0x2C }
  - { offsetInCU: 0x802C8, offset: 0x802C8, size: 0x8, addend: 0x0, symName: __ZNSt3__13getB8ue170006ILm0EJOZN7httplib6detail13write_contentIZNS1_6Server27write_content_with_providerERNS1_6StreamERKNS1_7RequestERNS1_8ResponseERKNS_12basic_stringIcNS_11char_traitsIcEENS_9allocatorIcEEEESJ_EUlvE_EEbS6_RKNS_8functionIFbmmRNS1_8DataSinkEEEEmmT_RNS1_5ErrorEEUlvE_EEERNS_13tuple_elementIXT_ENS_5tupleIJDpT0_EEEE4typeERS11_, symObjAddr: 0x294B8, symBinAddr: 0x10002BA70, symSize: 0x24 }
  - { offsetInCU: 0x8030A, offset: 0x8030A, size: 0x8, addend: 0x0, symName: __ZNSt3__13getB8ue170006ILm0EJONS_9allocatorIZN7httplib6detail13write_contentIZNS2_6Server27write_content_with_providerERNS2_6StreamERKNS2_7RequestERNS2_8ResponseERKNS_12basic_stringIcNS_11char_traitsIcEENS1_IcEEEESJ_EUlvE_EEbS7_RKNS_8functionIFbmmRNS2_8DataSinkEEEEmmT_RNS2_5ErrorEEUlvE_EEEEERNS_13tuple_elementIXT_ENS_5tupleIJDpT0_EEEE4typeERS12_, symObjAddr: 0x294F4, symBinAddr: 0x10002BAAC, symSize: 0x24 }
  - { offsetInCU: 0x80830, offset: 0x80830, size: 0x8, addend: 0x0, symName: __ZNSt3__116forward_as_tupleB8ue170006IJRKZN7httplib6detail13write_contentIZNS1_6Server27write_content_with_providerERNS1_6StreamERKNS1_7RequestERNS1_8ResponseERKNS_12basic_stringIcNS_11char_traitsIcEENS_9allocatorIcEEEESJ_EUlvE_EEbS6_RKNS_8functionIFbmmRNS1_8DataSinkEEEEmmT_RNS1_5ErrorEEUlvE_EEENS_5tupleIJDpOT_EEES11_, symObjAddr: 0x29A88, symBinAddr: 0x10002C040, symSize: 0x2C }
  - { offsetInCU: 0x8087E, offset: 0x8087E, size: 0x8, addend: 0x0, symName: __ZNSt3__13getB8ue170006ILm0EJRKZN7httplib6detail13write_contentIZNS1_6Server27write_content_with_providerERNS1_6StreamERKNS1_7RequestERNS1_8ResponseERKNS_12basic_stringIcNS_11char_traitsIcEENS_9allocatorIcEEEESJ_EUlvE_EEbS6_RKNS_8functionIFbmmRNS1_8DataSinkEEEEmmT_RNS1_5ErrorEEUlvE_EEERNS_13tuple_elementIXT_ENS_5tupleIJDpT0_EEEE4typeERS12_, symObjAddr: 0x29C78, symBinAddr: 0x10002C230, symSize: 0x24 }
  - { offsetInCU: 0x808C0, offset: 0x808C0, size: 0x8, addend: 0x0, symName: __ZNSt3__116forward_as_tupleB8ue170006IJRKNS_9allocatorIZN7httplib6detail13write_contentIZNS2_6Server27write_content_with_providerERNS2_6StreamERKNS2_7RequestERNS2_8ResponseERKNS_12basic_stringIcNS_11char_traitsIcEENS1_IcEEEESJ_EUlvE_EEbS7_RKNS_8functionIFbmmRNS2_8DataSinkEEEEmmT_RNS2_5ErrorEEUlvE_EEEEENS_5tupleIJDpOT_EEES12_, symObjAddr: 0x29FD4, symBinAddr: 0x10002C58C, symSize: 0x2C }
  - { offsetInCU: 0x8090E, offset: 0x8090E, size: 0x8, addend: 0x0, symName: __ZNSt3__13getB8ue170006ILm0EJRKNS_9allocatorIZN7httplib6detail13write_contentIZNS2_6Server27write_content_with_providerERNS2_6StreamERKNS2_7RequestERNS2_8ResponseERKNS_12basic_stringIcNS_11char_traitsIcEENS1_IcEEEESJ_EUlvE_EEbS7_RKNS_8functionIFbmmRNS2_8DataSinkEEEEmmT_RNS2_5ErrorEEUlvE_EEEEERNS_13tuple_elementIXT_ENS_5tupleIJDpT0_EEEE4typeERS13_, symObjAddr: 0x2A1B8, symBinAddr: 0x10002C770, symSize: 0x24 }
  - { offsetInCU: 0x80950, offset: 0x80950, size: 0x8, addend: 0x0, symName: __ZNSt3__18__invokeB8ue170006IRZN7httplib6detail13write_contentIZNS1_6Server27write_content_with_providerERNS1_6StreamERKNS1_7RequestERNS1_8ResponseERKNS_12basic_stringIcNS_11char_traitsIcEENS_9allocatorIcEEEESJ_EUlvE_EEbS6_RKNS_8functionIFbmmRNS1_8DataSinkEEEEmmT_RNS1_5ErrorEEUlvE_JEEEDTclclsr3stdE7declvalISS_EEspclsr3stdE7declvalIT0_EEEEOSS_DpOSX_, symObjAddr: 0x2A27C, symBinAddr: 0x10002C834, symSize: 0x28 }
  - { offsetInCU: 0x8098C, offset: 0x8098C, size: 0x8, addend: 0x0, symName: __ZNSt3__14swapB8ue170006IPNS_10__function6__baseIFbvEEEEENS_9enable_ifIXaasr21is_move_constructibleIT_EE5valuesr18is_move_assignableIS7_EE5valueEvE4typeERS7_SA_, symObjAddr: 0x2A604, symBinAddr: 0x10002CBBC, symSize: 0x3C }
  - { offsetInCU: 0x8101A, offset: 0x8101A, size: 0x8, addend: 0x0, symName: __ZNSt3__116forward_as_tupleB8ue170006IJZN7httplib6detail21write_content_chunkedIZNS1_6Server27write_content_with_providerERNS1_6StreamERKNS1_7RequestERNS1_8ResponseERKNS_12basic_stringIcNS_11char_traitsIcEENS_9allocatorIcEEEESJ_EUlvE_NS2_10compressorEEEbS6_RKNS_8functionIFbmmRNS1_8DataSinkEEEERKT_RT0_RNS1_5ErrorEEUlPKcmE_EEENS_5tupleIJDpOT_EEES16_, symObjAddr: 0x2C0D4, symBinAddr: 0x10002E68C, symSize: 0x2C }
  - { offsetInCU: 0x81053, offset: 0x81053, size: 0x8, addend: 0x0, symName: __ZNSt3__116forward_as_tupleB8ue170006IJNS_9allocatorIZN7httplib6detail21write_content_chunkedIZNS2_6Server27write_content_with_providerERNS2_6StreamERKNS2_7RequestERNS2_8ResponseERKNS_12basic_stringIcNS_11char_traitsIcEENS1_IcEEEESJ_EUlvE_NS3_10compressorEEEbS7_RKNS_8functionIFbmmRNS2_8DataSinkEEEERKT_RT0_RNS2_5ErrorEEUlPKcmE_EEEEENS_5tupleIJDpOT_EEES17_, symObjAddr: 0x2C100, symBinAddr: 0x10002E6B8, symSize: 0x2C }
  - { offsetInCU: 0x810B6, offset: 0x810B6, size: 0x8, addend: 0x0, symName: __ZNSt3__13getB8ue170006ILm0EJOZN7httplib6detail21write_content_chunkedIZNS1_6Server27write_content_with_providerERNS1_6StreamERKNS1_7RequestERNS1_8ResponseERKNS_12basic_stringIcNS_11char_traitsIcEENS_9allocatorIcEEEESJ_EUlvE_NS2_10compressorEEEbS6_RKNS_8functionIFbmmRNS1_8DataSinkEEEERKT_RT0_RNS1_5ErrorEEUlPKcmE_EEERNS_13tuple_elementIXT_ENS_5tupleIJDpT0_EEEE4typeERS18_, symObjAddr: 0x2C41C, symBinAddr: 0x10002E9D4, symSize: 0x24 }
  - { offsetInCU: 0x810F8, offset: 0x810F8, size: 0x8, addend: 0x0, symName: __ZNSt3__13getB8ue170006ILm0EJONS_9allocatorIZN7httplib6detail21write_content_chunkedIZNS2_6Server27write_content_with_providerERNS2_6StreamERKNS2_7RequestERNS2_8ResponseERKNS_12basic_stringIcNS_11char_traitsIcEENS1_IcEEEESJ_EUlvE_NS3_10compressorEEEbS7_RKNS_8functionIFbmmRNS2_8DataSinkEEEERKT_RT0_RNS2_5ErrorEEUlPKcmE_EEEEERNS_13tuple_elementIXT_ENS_5tupleIJDpT0_EEEE4typeERS19_, symObjAddr: 0x2C458, symBinAddr: 0x10002EA10, symSize: 0x24 }
  - { offsetInCU: 0x812C6, offset: 0x812C6, size: 0x8, addend: 0x0, symName: __ZNSt3__116forward_as_tupleB8ue170006IJRKZN7httplib6detail21write_content_chunkedIZNS1_6Server27write_content_with_providerERNS1_6StreamERKNS1_7RequestERNS1_8ResponseERKNS_12basic_stringIcNS_11char_traitsIcEENS_9allocatorIcEEEESJ_EUlvE_NS2_10compressorEEEbS6_RKNS_8functionIFbmmRNS1_8DataSinkEEEERKT_RT0_RNS1_5ErrorEEUlPKcmE_EEENS_5tupleIJDpOT_EEES18_, symObjAddr: 0x2C854, symBinAddr: 0x10002EE0C, symSize: 0x2C }
  - { offsetInCU: 0x81314, offset: 0x81314, size: 0x8, addend: 0x0, symName: __ZNSt3__13getB8ue170006ILm0EJRKZN7httplib6detail21write_content_chunkedIZNS1_6Server27write_content_with_providerERNS1_6StreamERKNS1_7RequestERNS1_8ResponseERKNS_12basic_stringIcNS_11char_traitsIcEENS_9allocatorIcEEEESJ_EUlvE_NS2_10compressorEEEbS6_RKNS_8functionIFbmmRNS1_8DataSinkEEEERKT_RT0_RNS1_5ErrorEEUlPKcmE_EEERNS_13tuple_elementIXT_ENS_5tupleIJDpT0_EEEE4typeERS19_, symObjAddr: 0x2CA48, symBinAddr: 0x10002F000, symSize: 0x24 }
  - { offsetInCU: 0x81356, offset: 0x81356, size: 0x8, addend: 0x0, symName: __ZNSt3__116forward_as_tupleB8ue170006IJRKNS_9allocatorIZN7httplib6detail21write_content_chunkedIZNS2_6Server27write_content_with_providerERNS2_6StreamERKNS2_7RequestERNS2_8ResponseERKNS_12basic_stringIcNS_11char_traitsIcEENS1_IcEEEESJ_EUlvE_NS3_10compressorEEEbS7_RKNS_8functionIFbmmRNS2_8DataSinkEEEERKT_RT0_RNS2_5ErrorEEUlPKcmE_EEEEENS_5tupleIJDpOT_EEES19_, symObjAddr: 0x2CDA8, symBinAddr: 0x10002F360, symSize: 0x2C }
  - { offsetInCU: 0x813A4, offset: 0x813A4, size: 0x8, addend: 0x0, symName: __ZNSt3__13getB8ue170006ILm0EJRKNS_9allocatorIZN7httplib6detail21write_content_chunkedIZNS2_6Server27write_content_with_providerERNS2_6StreamERKNS2_7RequestERNS2_8ResponseERKNS_12basic_stringIcNS_11char_traitsIcEENS1_IcEEEESJ_EUlvE_NS3_10compressorEEEbS7_RKNS_8functionIFbmmRNS2_8DataSinkEEEERKT_RT0_RNS2_5ErrorEEUlPKcmE_EEEEERNS_13tuple_elementIXT_ENS_5tupleIJDpT0_EEEE4typeERS1A_, symObjAddr: 0x2CF8C, symBinAddr: 0x10002F544, symSize: 0x24 }
  - { offsetInCU: 0x813E6, offset: 0x813E6, size: 0x8, addend: 0x0, symName: __ZNSt3__18__invokeB8ue170006IRZN7httplib6detail21write_content_chunkedIZNS1_6Server27write_content_with_providerERNS1_6StreamERKNS1_7RequestERNS1_8ResponseERKNS_12basic_stringIcNS_11char_traitsIcEENS_9allocatorIcEEEESJ_EUlvE_NS2_10compressorEEEbS6_RKNS_8functionIFbmmRNS1_8DataSinkEEEERKT_RT0_RNS1_5ErrorEEUlPKcmE_JS11_mEEEDTclclsr3stdE7declvalIST_EEspclsr3stdE7declvalIT0_EEEEOST_DpOS14_, symObjAddr: 0x2D070, symBinAddr: 0x10002F628, symSize: 0x40 }
  - { offsetInCU: 0x8144B, offset: 0x8144B, size: 0x8, addend: 0x0, symName: __ZNSt3__1plB8ue170006IcNS_11char_traitsIcEENS_9allocatorIcEEEENS_12basic_stringIT_T0_T1_EEOS9_PKS6_, symObjAddr: 0x2D3F8, symBinAddr: 0x10002F9B0, symSize: 0x40 }
  - { offsetInCU: 0x814A3, offset: 0x814A3, size: 0x8, addend: 0x0, symName: __ZNSt3__1plB8ue170006IcNS_11char_traitsIcEENS_9allocatorIcEEEENS_12basic_stringIT_T0_T1_EEOS9_RKS9_, symObjAddr: 0x2D438, symBinAddr: 0x10002F9F0, symSize: 0x40 }
  - { offsetInCU: 0x8165E, offset: 0x8165E, size: 0x8, addend: 0x0, symName: __ZNSt3__116forward_as_tupleB8ue170006IJZZN7httplib6detail21write_content_chunkedIZNS1_6Server27write_content_with_providerERNS1_6StreamERKNS1_7RequestERNS1_8ResponseERKNS_12basic_stringIcNS_11char_traitsIcEENS_9allocatorIcEEEESJ_EUlvE_NS2_10compressorEEEbS6_RKNS_8functionIFbmmRNS1_8DataSinkEEEERKT_RT0_RNS1_5ErrorEENKUlPKcmE_clES11_mEUlS11_mE_EEENS_5tupleIJDpOT_EEES17_, symObjAddr: 0x2DC64, symBinAddr: 0x10003021C, symSize: 0x2C }
  - { offsetInCU: 0x81697, offset: 0x81697, size: 0x8, addend: 0x0, symName: __ZNSt3__116forward_as_tupleB8ue170006IJNS_9allocatorIZZN7httplib6detail21write_content_chunkedIZNS2_6Server27write_content_with_providerERNS2_6StreamERKNS2_7RequestERNS2_8ResponseERKNS_12basic_stringIcNS_11char_traitsIcEENS1_IcEEEESJ_EUlvE_NS3_10compressorEEEbS7_RKNS_8functionIFbmmRNS2_8DataSinkEEEERKT_RT0_RNS2_5ErrorEENKUlPKcmE_clES11_mEUlS11_mE_EEEEENS_5tupleIJDpOT_EEES18_, symObjAddr: 0x2DC90, symBinAddr: 0x100030248, symSize: 0x2C }
  - { offsetInCU: 0x816FA, offset: 0x816FA, size: 0x8, addend: 0x0, symName: __ZNSt3__13getB8ue170006ILm0EJOZZN7httplib6detail21write_content_chunkedIZNS1_6Server27write_content_with_providerERNS1_6StreamERKNS1_7RequestERNS1_8ResponseERKNS_12basic_stringIcNS_11char_traitsIcEENS_9allocatorIcEEEESJ_EUlvE_NS2_10compressorEEEbS6_RKNS_8functionIFbmmRNS1_8DataSinkEEEERKT_RT0_RNS1_5ErrorEENKUlPKcmE_clES11_mEUlS11_mE_EEERNS_13tuple_elementIXT_ENS_5tupleIJDpT0_EEEE4typeERS19_, symObjAddr: 0x2DFA8, symBinAddr: 0x100030560, symSize: 0x24 }
  - { offsetInCU: 0x8173C, offset: 0x8173C, size: 0x8, addend: 0x0, symName: __ZNSt3__13getB8ue170006ILm0EJONS_9allocatorIZZN7httplib6detail21write_content_chunkedIZNS2_6Server27write_content_with_providerERNS2_6StreamERKNS2_7RequestERNS2_8ResponseERKNS_12basic_stringIcNS_11char_traitsIcEENS1_IcEEEESJ_EUlvE_NS3_10compressorEEEbS7_RKNS_8functionIFbmmRNS2_8DataSinkEEEERKT_RT0_RNS2_5ErrorEENKUlPKcmE_clES11_mEUlS11_mE_EEEEERNS_13tuple_elementIXT_ENS_5tupleIJDpT0_EEEE4typeERS1A_, symObjAddr: 0x2DFE4, symBinAddr: 0x10003059C, symSize: 0x24 }
  - { offsetInCU: 0x81C62, offset: 0x81C62, size: 0x8, addend: 0x0, symName: __ZNSt3__116forward_as_tupleB8ue170006IJRKZZN7httplib6detail21write_content_chunkedIZNS1_6Server27write_content_with_providerERNS1_6StreamERKNS1_7RequestERNS1_8ResponseERKNS_12basic_stringIcNS_11char_traitsIcEENS_9allocatorIcEEEESJ_EUlvE_NS2_10compressorEEEbS6_RKNS_8functionIFbmmRNS1_8DataSinkEEEERKT_RT0_RNS1_5ErrorEENKUlPKcmE_clES11_mEUlS11_mE_EEENS_5tupleIJDpOT_EEES19_, symObjAddr: 0x2E578, symBinAddr: 0x100030B30, symSize: 0x2C }
  - { offsetInCU: 0x81CB0, offset: 0x81CB0, size: 0x8, addend: 0x0, symName: __ZNSt3__13getB8ue170006ILm0EJRKZZN7httplib6detail21write_content_chunkedIZNS1_6Server27write_content_with_providerERNS1_6StreamERKNS1_7RequestERNS1_8ResponseERKNS_12basic_stringIcNS_11char_traitsIcEENS_9allocatorIcEEEESJ_EUlvE_NS2_10compressorEEEbS6_RKNS_8functionIFbmmRNS1_8DataSinkEEEERKT_RT0_RNS1_5ErrorEENKUlPKcmE_clES11_mEUlS11_mE_EEERNS_13tuple_elementIXT_ENS_5tupleIJDpT0_EEEE4typeERS1A_, symObjAddr: 0x2E768, symBinAddr: 0x100030D20, symSize: 0x24 }
  - { offsetInCU: 0x81CF2, offset: 0x81CF2, size: 0x8, addend: 0x0, symName: __ZNSt3__116forward_as_tupleB8ue170006IJRKNS_9allocatorIZZN7httplib6detail21write_content_chunkedIZNS2_6Server27write_content_with_providerERNS2_6StreamERKNS2_7RequestERNS2_8ResponseERKNS_12basic_stringIcNS_11char_traitsIcEENS1_IcEEEESJ_EUlvE_NS3_10compressorEEEbS7_RKNS_8functionIFbmmRNS2_8DataSinkEEEERKT_RT0_RNS2_5ErrorEENKUlPKcmE_clES11_mEUlS11_mE_EEEEENS_5tupleIJDpOT_EEES1A_, symObjAddr: 0x2EAC4, symBinAddr: 0x10003107C, symSize: 0x2C }
  - { offsetInCU: 0x81D40, offset: 0x81D40, size: 0x8, addend: 0x0, symName: __ZNSt3__13getB8ue170006ILm0EJRKNS_9allocatorIZZN7httplib6detail21write_content_chunkedIZNS2_6Server27write_content_with_providerERNS2_6StreamERKNS2_7RequestERNS2_8ResponseERKNS_12basic_stringIcNS_11char_traitsIcEENS1_IcEEEESJ_EUlvE_NS3_10compressorEEEbS7_RKNS_8functionIFbmmRNS2_8DataSinkEEEERKT_RT0_RNS2_5ErrorEENKUlPKcmE_clES11_mEUlS11_mE_EEEEERNS_13tuple_elementIXT_ENS_5tupleIJDpT0_EEEE4typeERS1B_, symObjAddr: 0x2ECA8, symBinAddr: 0x100031260, symSize: 0x24 }
  - { offsetInCU: 0x81D82, offset: 0x81D82, size: 0x8, addend: 0x0, symName: __ZNSt3__18__invokeB8ue170006IRZZN7httplib6detail21write_content_chunkedIZNS1_6Server27write_content_with_providerERNS1_6StreamERKNS1_7RequestERNS1_8ResponseERKNS_12basic_stringIcNS_11char_traitsIcEENS_9allocatorIcEEEESJ_EUlvE_NS2_10compressorEEEbS6_RKNS_8functionIFbmmRNS1_8DataSinkEEEERKT_RT0_RNS1_5ErrorEENKUlPKcmE_clES11_mEUlS11_mE_JS11_mEEEDTclclsr3stdE7declvalIST_EEspclsr3stdE7declvalIT0_EEEEOST_DpOS15_, symObjAddr: 0x2ED8C, symBinAddr: 0x100031344, symSize: 0x40 }
  - { offsetInCU: 0x81DE7, offset: 0x81DE7, size: 0x8, addend: 0x0, symName: __ZNSt3__1plB8ue170006IcNS_11char_traitsIcEENS_9allocatorIcEEEENS_12basic_stringIT_T0_T1_EES6_RKS9_, symObjAddr: 0x2EE20, symBinAddr: 0x1000313D8, symSize: 0x10C }
  - { offsetInCU: 0x81E7C, offset: 0x81E7C, size: 0x8, addend: 0x0, symName: __ZNSt3__16fill_nB8ue170006IPcmcEET_S2_T0_RKT1_, symObjAddr: 0x2F244, symBinAddr: 0x1000317FC, symSize: 0x44 }
  - { offsetInCU: 0x81EDF, offset: 0x81EDF, size: 0x8, addend: 0x0, symName: __ZNSt3__18__fill_nB8ue170006IPcmcEET_S2_T0_RKT1_, symObjAddr: 0x2F288, symBinAddr: 0x100031840, symSize: 0x64 }
  - { offsetInCU: 0x81F42, offset: 0x81F42, size: 0x8, addend: 0x0, symName: __ZNSt3__121__convert_to_integralB8ue170006Em, symObjAddr: 0x2F2EC, symBinAddr: 0x1000318A4, symSize: 0x14 }
  - { offsetInCU: 0x81F6E, offset: 0x81F6E, size: 0x8, addend: 0x0, symName: __ZNSt3__14copyB8ue170006IPKcPcEET0_T_S5_S4_, symObjAddr: 0x2F344, symBinAddr: 0x1000318FC, symSize: 0x40 }
  - { offsetInCU: 0x81FC8, offset: 0x81FC8, size: 0x8, addend: 0x0, symName: __ZNSt3__16__copyB8ue170006INS_17_ClassicAlgPolicyEPKcS3_PcEENS_4pairIT0_T2_EES6_T1_S7_, symObjAddr: 0x2F384, symBinAddr: 0x10003193C, symSize: 0x44 }
  - { offsetInCU: 0x82034, offset: 0x82034, size: 0x8, addend: 0x0, symName: __ZNSt3__123__dispatch_copy_or_moveB8ue170006INS_17_ClassicAlgPolicyENS_11__copy_loopIS1_EENS_14__copy_trivialEPKcS6_PcEENS_4pairIT2_T4_EES9_T3_SA_, symObjAddr: 0x2F3C8, symBinAddr: 0x100031980, symSize: 0x44 }
  - { offsetInCU: 0x820B2, offset: 0x820B2, size: 0x8, addend: 0x0, symName: __ZNSt3__121__unwrap_and_dispatchB8ue170006INS_10__overloadINS_11__copy_loopINS_17_ClassicAlgPolicyEEENS_14__copy_trivialEEEPKcS8_PcLi0EEENS_4pairIT0_T2_EESB_T1_SC_, symObjAddr: 0x2F40C, symBinAddr: 0x1000319C4, symSize: 0xB4 }
  - { offsetInCU: 0x82142, offset: 0x82142, size: 0x8, addend: 0x0, symName: __ZNSt3__114__unwrap_rangeB8ue170006IPKcS2_EENS_4pairIT0_S4_EET_S6_, symObjAddr: 0x2F4C0, symBinAddr: 0x100031A78, symSize: 0x60 }
  - { offsetInCU: 0x82313, offset: 0x82313, size: 0x8, addend: 0x0, symName: __ZNSt3__113__unwrap_iterB8ue170006IPcNS_18__unwrap_iter_implIS1_Lb1EEELi0EEEDTclsrT0_8__unwrapclsr3stdE7declvalIT_EEEES5_, symObjAddr: 0x2F568, symBinAddr: 0x100031B20, symSize: 0x24 }
  - { offsetInCU: 0x82357, offset: 0x82357, size: 0x8, addend: 0x0, symName: __ZNSt3__19make_pairB8ue170006IPKcPcEENS_4pairINS_18__unwrap_ref_decayIT_E4typeENS5_IT0_E4typeEEEOS6_OS9_, symObjAddr: 0x2F58C, symBinAddr: 0x100031B44, symSize: 0x38 }
  - { offsetInCU: 0x823A6, offset: 0x823A6, size: 0x8, addend: 0x0, symName: __ZNSt3__114__rewrap_rangeB8ue170006IPKcS2_EET_S3_T0_, symObjAddr: 0x2F5C4, symBinAddr: 0x100031B7C, symSize: 0x2C }
  - { offsetInCU: 0x823F2, offset: 0x823F2, size: 0x8, addend: 0x0, symName: __ZNSt3__113__rewrap_iterB8ue170006IPcS1_NS_18__unwrap_iter_implIS1_Lb1EEEEET_S4_T0_, symObjAddr: 0x2F5F0, symBinAddr: 0x100031BA8, symSize: 0x3C }
  - { offsetInCU: 0x82447, offset: 0x82447, size: 0x8, addend: 0x0, symName: __ZNSt3__19make_pairB8ue170006IPKcS2_EENS_4pairINS_18__unwrap_ref_decayIT_E4typeENS4_IT0_E4typeEEEOS5_OS8_, symObjAddr: 0x2F62C, symBinAddr: 0x100031BE4, symSize: 0x38 }
  - { offsetInCU: 0x82496, offset: 0x82496, size: 0x8, addend: 0x0, symName: __ZNSt3__113__unwrap_iterB8ue170006IPKcNS_18__unwrap_iter_implIS2_Lb1EEELi0EEEDTclsrT0_8__unwrapclsr3stdE7declvalIT_EEEES6_, symObjAddr: 0x2F664, symBinAddr: 0x100031C1C, symSize: 0x24 }
  - { offsetInCU: 0x8252D, offset: 0x8252D, size: 0x8, addend: 0x0, symName: __ZNSt3__119__copy_trivial_implB8ue170006IKccEENS_4pairIPT_PT0_EES4_S4_S6_, symObjAddr: 0x2F71C, symBinAddr: 0x100031CD4, symSize: 0x78 }
  - { offsetInCU: 0x82596, offset: 0x82596, size: 0x8, addend: 0x0, symName: __ZNSt3__119__constexpr_memmoveB8ue170006IcKcLi0EEEPT_S3_PT0_NS_15__element_countE, symObjAddr: 0x2F794, symBinAddr: 0x100031D4C, symSize: 0x64 }
  - { offsetInCU: 0x82605, offset: 0x82605, size: 0x8, addend: 0x0, symName: __ZNSt3__19make_pairB8ue170006IRPKcPcEENS_4pairINS_18__unwrap_ref_decayIT_E4typeENS6_IT0_E4typeEEEOS7_OSA_, symObjAddr: 0x2F7F8, symBinAddr: 0x100031DB0, symSize: 0x38 }
  - { offsetInCU: 0x826A7, offset: 0x826A7, size: 0x8, addend: 0x0, symName: __ZNSt3__113__rewrap_iterB8ue170006IPKcS2_NS_18__unwrap_iter_implIS2_Lb1EEEEET_S5_T0_, symObjAddr: 0x2F934, symBinAddr: 0x100031EEC, symSize: 0x3C }
  - { offsetInCU: 0x8285F, offset: 0x8285F, size: 0x8, addend: 0x0, symName: __ZNSt3__116forward_as_tupleB8ue170006IJZN7httplib6detail21write_content_chunkedIZNS1_6Server27write_content_with_providerERNS1_6StreamERKNS1_7RequestERNS1_8ResponseERKNS_12basic_stringIcNS_11char_traitsIcEENS_9allocatorIcEEEESJ_EUlvE_NS2_10compressorEEEbS6_RKNS_8functionIFbmmRNS1_8DataSinkEEEERKT_RT0_RNS1_5ErrorEEUlvE_EEENS_5tupleIJDpOT_EEES14_, symObjAddr: 0x301D8, symBinAddr: 0x100032790, symSize: 0x2C }
  - { offsetInCU: 0x82898, offset: 0x82898, size: 0x8, addend: 0x0, symName: __ZNSt3__116forward_as_tupleB8ue170006IJNS_9allocatorIZN7httplib6detail21write_content_chunkedIZNS2_6Server27write_content_with_providerERNS2_6StreamERKNS2_7RequestERNS2_8ResponseERKNS_12basic_stringIcNS_11char_traitsIcEENS1_IcEEEESJ_EUlvE_NS3_10compressorEEEbS7_RKNS_8functionIFbmmRNS2_8DataSinkEEEERKT_RT0_RNS2_5ErrorEEUlvE_EEEEENS_5tupleIJDpOT_EEES15_, symObjAddr: 0x30204, symBinAddr: 0x1000327BC, symSize: 0x2C }
  - { offsetInCU: 0x828FB, offset: 0x828FB, size: 0x8, addend: 0x0, symName: __ZNSt3__13getB8ue170006ILm0EJOZN7httplib6detail21write_content_chunkedIZNS1_6Server27write_content_with_providerERNS1_6StreamERKNS1_7RequestERNS1_8ResponseERKNS_12basic_stringIcNS_11char_traitsIcEENS_9allocatorIcEEEESJ_EUlvE_NS2_10compressorEEEbS6_RKNS_8functionIFbmmRNS1_8DataSinkEEEERKT_RT0_RNS1_5ErrorEEUlvE_EEERNS_13tuple_elementIXT_ENS_5tupleIJDpT0_EEEE4typeERS16_, symObjAddr: 0x3051C, symBinAddr: 0x100032AD4, symSize: 0x24 }
  - { offsetInCU: 0x8293D, offset: 0x8293D, size: 0x8, addend: 0x0, symName: __ZNSt3__13getB8ue170006ILm0EJONS_9allocatorIZN7httplib6detail21write_content_chunkedIZNS2_6Server27write_content_with_providerERNS2_6StreamERKNS2_7RequestERNS2_8ResponseERKNS_12basic_stringIcNS_11char_traitsIcEENS1_IcEEEESJ_EUlvE_NS3_10compressorEEEbS7_RKNS_8functionIFbmmRNS2_8DataSinkEEEERKT_RT0_RNS2_5ErrorEEUlvE_EEEEERNS_13tuple_elementIXT_ENS_5tupleIJDpT0_EEEE4typeERS17_, symObjAddr: 0x30558, symBinAddr: 0x100032B10, symSize: 0x24 }
  - { offsetInCU: 0x82E63, offset: 0x82E63, size: 0x8, addend: 0x0, symName: __ZNSt3__116forward_as_tupleB8ue170006IJRKZN7httplib6detail21write_content_chunkedIZNS1_6Server27write_content_with_providerERNS1_6StreamERKNS1_7RequestERNS1_8ResponseERKNS_12basic_stringIcNS_11char_traitsIcEENS_9allocatorIcEEEESJ_EUlvE_NS2_10compressorEEEbS6_RKNS_8functionIFbmmRNS1_8DataSinkEEEERKT_RT0_RNS1_5ErrorEEUlvE_EEENS_5tupleIJDpOT_EEES16_, symObjAddr: 0x30AEC, symBinAddr: 0x1000330A4, symSize: 0x2C }
  - { offsetInCU: 0x82EB1, offset: 0x82EB1, size: 0x8, addend: 0x0, symName: __ZNSt3__13getB8ue170006ILm0EJRKZN7httplib6detail21write_content_chunkedIZNS1_6Server27write_content_with_providerERNS1_6StreamERKNS1_7RequestERNS1_8ResponseERKNS_12basic_stringIcNS_11char_traitsIcEENS_9allocatorIcEEEESJ_EUlvE_NS2_10compressorEEEbS6_RKNS_8functionIFbmmRNS1_8DataSinkEEEERKT_RT0_RNS1_5ErrorEEUlvE_EEERNS_13tuple_elementIXT_ENS_5tupleIJDpT0_EEEE4typeERS17_, symObjAddr: 0x30CDC, symBinAddr: 0x100033294, symSize: 0x24 }
  - { offsetInCU: 0x82EF3, offset: 0x82EF3, size: 0x8, addend: 0x0, symName: __ZNSt3__116forward_as_tupleB8ue170006IJRKNS_9allocatorIZN7httplib6detail21write_content_chunkedIZNS2_6Server27write_content_with_providerERNS2_6StreamERKNS2_7RequestERNS2_8ResponseERKNS_12basic_stringIcNS_11char_traitsIcEENS1_IcEEEESJ_EUlvE_NS3_10compressorEEEbS7_RKNS_8functionIFbmmRNS2_8DataSinkEEEERKT_RT0_RNS2_5ErrorEEUlvE_EEEEENS_5tupleIJDpOT_EEES17_, symObjAddr: 0x31038, symBinAddr: 0x1000335F0, symSize: 0x2C }
  - { offsetInCU: 0x82F41, offset: 0x82F41, size: 0x8, addend: 0x0, symName: __ZNSt3__13getB8ue170006ILm0EJRKNS_9allocatorIZN7httplib6detail21write_content_chunkedIZNS2_6Server27write_content_with_providerERNS2_6StreamERKNS2_7RequestERNS2_8ResponseERKNS_12basic_stringIcNS_11char_traitsIcEENS1_IcEEEESJ_EUlvE_NS3_10compressorEEEbS7_RKNS_8functionIFbmmRNS2_8DataSinkEEEERKT_RT0_RNS2_5ErrorEEUlvE_EEEEERNS_13tuple_elementIXT_ENS_5tupleIJDpT0_EEEE4typeERS18_, symObjAddr: 0x3121C, symBinAddr: 0x1000337D4, symSize: 0x24 }
  - { offsetInCU: 0x82F83, offset: 0x82F83, size: 0x8, addend: 0x0, symName: __ZNSt3__18__invokeB8ue170006IRZN7httplib6detail21write_content_chunkedIZNS1_6Server27write_content_with_providerERNS1_6StreamERKNS1_7RequestERNS1_8ResponseERKNS_12basic_stringIcNS_11char_traitsIcEENS_9allocatorIcEEEESJ_EUlvE_NS2_10compressorEEEbS6_RKNS_8functionIFbmmRNS1_8DataSinkEEEERKT_RT0_RNS1_5ErrorEEUlvE_JEEEDTclclsr3stdE7declvalIST_EEspclsr3stdE7declvalIT0_EEEEOST_DpOS12_, symObjAddr: 0x312E0, symBinAddr: 0x100033898, symSize: 0x28 }
  - { offsetInCU: 0x83122, offset: 0x83122, size: 0x8, addend: 0x0, symName: __ZNSt3__116forward_as_tupleB8ue170006IJZN7httplib6detail21write_content_chunkedIZNS1_6Server27write_content_with_providerERNS1_6StreamERKNS1_7RequestERNS1_8ResponseERKNS_12basic_stringIcNS_11char_traitsIcEENS_9allocatorIcEEEESJ_EUlvE_NS2_10compressorEEEbS6_RKNS_8functionIFbmmRNS1_8DataSinkEEEERKT_RT0_RNS1_5ErrorEEUlvE0_EEENS_5tupleIJDpOT_EEES14_, symObjAddr: 0x31AC0, symBinAddr: 0x100034078, symSize: 0x2C }
  - { offsetInCU: 0x8315B, offset: 0x8315B, size: 0x8, addend: 0x0, symName: __ZNSt3__116forward_as_tupleB8ue170006IJNS_9allocatorIZN7httplib6detail21write_content_chunkedIZNS2_6Server27write_content_with_providerERNS2_6StreamERKNS2_7RequestERNS2_8ResponseERKNS_12basic_stringIcNS_11char_traitsIcEENS1_IcEEEESJ_EUlvE_NS3_10compressorEEEbS7_RKNS_8functionIFbmmRNS2_8DataSinkEEEERKT_RT0_RNS2_5ErrorEEUlvE0_EEEEENS_5tupleIJDpOT_EEES15_, symObjAddr: 0x31AEC, symBinAddr: 0x1000340A4, symSize: 0x2C }
  - { offsetInCU: 0x831BE, offset: 0x831BE, size: 0x8, addend: 0x0, symName: __ZNSt3__13getB8ue170006ILm0EJOZN7httplib6detail21write_content_chunkedIZNS1_6Server27write_content_with_providerERNS1_6StreamERKNS1_7RequestERNS1_8ResponseERKNS_12basic_stringIcNS_11char_traitsIcEENS_9allocatorIcEEEESJ_EUlvE_NS2_10compressorEEEbS6_RKNS_8functionIFbmmRNS1_8DataSinkEEEERKT_RT0_RNS1_5ErrorEEUlvE0_EEERNS_13tuple_elementIXT_ENS_5tupleIJDpT0_EEEE4typeERS16_, symObjAddr: 0x31E04, symBinAddr: 0x1000343BC, symSize: 0x24 }
  - { offsetInCU: 0x83200, offset: 0x83200, size: 0x8, addend: 0x0, symName: __ZNSt3__13getB8ue170006ILm0EJONS_9allocatorIZN7httplib6detail21write_content_chunkedIZNS2_6Server27write_content_with_providerERNS2_6StreamERKNS2_7RequestERNS2_8ResponseERKNS_12basic_stringIcNS_11char_traitsIcEENS1_IcEEEESJ_EUlvE_NS3_10compressorEEEbS7_RKNS_8functionIFbmmRNS2_8DataSinkEEEERKT_RT0_RNS2_5ErrorEEUlvE0_EEEEERNS_13tuple_elementIXT_ENS_5tupleIJDpT0_EEEE4typeERS17_, symObjAddr: 0x31E40, symBinAddr: 0x1000343F8, symSize: 0x24 }
  - { offsetInCU: 0x83726, offset: 0x83726, size: 0x8, addend: 0x0, symName: __ZNSt3__116forward_as_tupleB8ue170006IJRKZN7httplib6detail21write_content_chunkedIZNS1_6Server27write_content_with_providerERNS1_6StreamERKNS1_7RequestERNS1_8ResponseERKNS_12basic_stringIcNS_11char_traitsIcEENS_9allocatorIcEEEESJ_EUlvE_NS2_10compressorEEEbS6_RKNS_8functionIFbmmRNS1_8DataSinkEEEERKT_RT0_RNS1_5ErrorEEUlvE0_EEENS_5tupleIJDpOT_EEES16_, symObjAddr: 0x323D4, symBinAddr: 0x10003498C, symSize: 0x2C }
  - { offsetInCU: 0x83774, offset: 0x83774, size: 0x8, addend: 0x0, symName: __ZNSt3__13getB8ue170006ILm0EJRKZN7httplib6detail21write_content_chunkedIZNS1_6Server27write_content_with_providerERNS1_6StreamERKNS1_7RequestERNS1_8ResponseERKNS_12basic_stringIcNS_11char_traitsIcEENS_9allocatorIcEEEESJ_EUlvE_NS2_10compressorEEEbS6_RKNS_8functionIFbmmRNS1_8DataSinkEEEERKT_RT0_RNS1_5ErrorEEUlvE0_EEERNS_13tuple_elementIXT_ENS_5tupleIJDpT0_EEEE4typeERS17_, symObjAddr: 0x325C4, symBinAddr: 0x100034B7C, symSize: 0x24 }
  - { offsetInCU: 0x837B6, offset: 0x837B6, size: 0x8, addend: 0x0, symName: __ZNSt3__116forward_as_tupleB8ue170006IJRKNS_9allocatorIZN7httplib6detail21write_content_chunkedIZNS2_6Server27write_content_with_providerERNS2_6StreamERKNS2_7RequestERNS2_8ResponseERKNS_12basic_stringIcNS_11char_traitsIcEENS1_IcEEEESJ_EUlvE_NS3_10compressorEEEbS7_RKNS_8functionIFbmmRNS2_8DataSinkEEEERKT_RT0_RNS2_5ErrorEEUlvE0_EEEEENS_5tupleIJDpOT_EEES17_, symObjAddr: 0x32920, symBinAddr: 0x100034ED8, symSize: 0x2C }
  - { offsetInCU: 0x83804, offset: 0x83804, size: 0x8, addend: 0x0, symName: __ZNSt3__13getB8ue170006ILm0EJRKNS_9allocatorIZN7httplib6detail21write_content_chunkedIZNS2_6Server27write_content_with_providerERNS2_6StreamERKNS2_7RequestERNS2_8ResponseERKNS_12basic_stringIcNS_11char_traitsIcEENS1_IcEEEESJ_EUlvE_NS3_10compressorEEEbS7_RKNS_8functionIFbmmRNS2_8DataSinkEEEERKT_RT0_RNS2_5ErrorEEUlvE0_EEEEERNS_13tuple_elementIXT_ENS_5tupleIJDpT0_EEEE4typeERS18_, symObjAddr: 0x32B04, symBinAddr: 0x1000350BC, symSize: 0x24 }
  - { offsetInCU: 0x83847, offset: 0x83847, size: 0x8, addend: 0x0, symName: __ZNSt3__18__invokeB8ue170006IRZN7httplib6detail21write_content_chunkedIZNS1_6Server27write_content_with_providerERNS1_6StreamERKNS1_7RequestERNS1_8ResponseERKNS_12basic_stringIcNS_11char_traitsIcEENS_9allocatorIcEEEESJ_EUlvE_NS2_10compressorEEEbS6_RKNS_8functionIFbmmRNS1_8DataSinkEEEERKT_RT0_RNS1_5ErrorEEUlvE0_JEEEDTclclsr3stdE7declvalIST_EEspclsr3stdE7declvalIT0_EEEEOST_DpOS12_, symObjAddr: 0x32BC0, symBinAddr: 0x100035178, symSize: 0x24 }
  - { offsetInCU: 0x8387F, offset: 0x8387F, size: 0x8, addend: 0x0, symName: __ZNSt3__1plB8ue170006IcNS_11char_traitsIcEENS_9allocatorIcEEEENS_12basic_stringIT_T0_T1_EERKS9_PKS6_, symObjAddr: 0x332B8, symBinAddr: 0x100035870, symSize: 0x11C }
  - { offsetInCU: 0x83A87, offset: 0x83A87, size: 0x8, addend: 0x0, symName: __ZNSt3__116forward_as_tupleB8ue170006IJZZN7httplib6detail21write_content_chunkedIZNS1_6Server27write_content_with_providerERNS1_6StreamERKNS1_7RequestERNS1_8ResponseERKNS_12basic_stringIcNS_11char_traitsIcEENS_9allocatorIcEEEESJ_EUlvE_NS2_10compressorEEEbS6_RKNS_8functionIFbmmRNS1_8DataSinkEEEERKT_RT0_RNS1_5ErrorEENKUlPKNS_8multimapISH_SH_NS2_2ciENSF_INS_4pairISI_SH_EEEEEEE_clES17_EUlPKcmE_EEENS_5tupleIJDpOT_EEES1F_, symObjAddr: 0x33ACC, symBinAddr: 0x100036084, symSize: 0x2C }
  - { offsetInCU: 0x83AC0, offset: 0x83AC0, size: 0x8, addend: 0x0, symName: __ZNSt3__116forward_as_tupleB8ue170006IJNS_9allocatorIZZN7httplib6detail21write_content_chunkedIZNS2_6Server27write_content_with_providerERNS2_6StreamERKNS2_7RequestERNS2_8ResponseERKNS_12basic_stringIcNS_11char_traitsIcEENS1_IcEEEESJ_EUlvE_NS3_10compressorEEEbS7_RKNS_8functionIFbmmRNS2_8DataSinkEEEERKT_RT0_RNS2_5ErrorEENKUlPKNS_8multimapISH_SH_NS3_2ciENS1_INS_4pairISI_SH_EEEEEEE_clES17_EUlPKcmE_EEEEENS_5tupleIJDpOT_EEES1G_, symObjAddr: 0x33AF8, symBinAddr: 0x1000360B0, symSize: 0x2C }
  - { offsetInCU: 0x83B23, offset: 0x83B23, size: 0x8, addend: 0x0, symName: __ZNSt3__13getB8ue170006ILm0EJOZZN7httplib6detail21write_content_chunkedIZNS1_6Server27write_content_with_providerERNS1_6StreamERKNS1_7RequestERNS1_8ResponseERKNS_12basic_stringIcNS_11char_traitsIcEENS_9allocatorIcEEEESJ_EUlvE_NS2_10compressorEEEbS6_RKNS_8functionIFbmmRNS1_8DataSinkEEEERKT_RT0_RNS1_5ErrorEENKUlPKNS_8multimapISH_SH_NS2_2ciENSF_INS_4pairISI_SH_EEEEEEE_clES17_EUlPKcmE_EEERNS_13tuple_elementIXT_ENS_5tupleIJDpT0_EEEE4typeERS1H_, symObjAddr: 0x33E10, symBinAddr: 0x1000363C8, symSize: 0x24 }
  - { offsetInCU: 0x83B65, offset: 0x83B65, size: 0x8, addend: 0x0, symName: __ZNSt3__13getB8ue170006ILm0EJONS_9allocatorIZZN7httplib6detail21write_content_chunkedIZNS2_6Server27write_content_with_providerERNS2_6StreamERKNS2_7RequestERNS2_8ResponseERKNS_12basic_stringIcNS_11char_traitsIcEENS1_IcEEEESJ_EUlvE_NS3_10compressorEEEbS7_RKNS_8functionIFbmmRNS2_8DataSinkEEEERKT_RT0_RNS2_5ErrorEENKUlPKNS_8multimapISH_SH_NS3_2ciENS1_INS_4pairISI_SH_EEEEEEE_clES17_EUlPKcmE_EEEEERNS_13tuple_elementIXT_ENS_5tupleIJDpT0_EEEE4typeERS1I_, symObjAddr: 0x33E4C, symBinAddr: 0x100036404, symSize: 0x24 }
  - { offsetInCU: 0x8408B, offset: 0x8408B, size: 0x8, addend: 0x0, symName: __ZNSt3__116forward_as_tupleB8ue170006IJRKZZN7httplib6detail21write_content_chunkedIZNS1_6Server27write_content_with_providerERNS1_6StreamERKNS1_7RequestERNS1_8ResponseERKNS_12basic_stringIcNS_11char_traitsIcEENS_9allocatorIcEEEESJ_EUlvE_NS2_10compressorEEEbS6_RKNS_8functionIFbmmRNS1_8DataSinkEEEERKT_RT0_RNS1_5ErrorEENKUlPKNS_8multimapISH_SH_NS2_2ciENSF_INS_4pairISI_SH_EEEEEEE_clES17_EUlPKcmE_EEENS_5tupleIJDpOT_EEES1H_, symObjAddr: 0x343E0, symBinAddr: 0x100036998, symSize: 0x2C }
  - { offsetInCU: 0x840D9, offset: 0x840D9, size: 0x8, addend: 0x0, symName: __ZNSt3__13getB8ue170006ILm0EJRKZZN7httplib6detail21write_content_chunkedIZNS1_6Server27write_content_with_providerERNS1_6StreamERKNS1_7RequestERNS1_8ResponseERKNS_12basic_stringIcNS_11char_traitsIcEENS_9allocatorIcEEEESJ_EUlvE_NS2_10compressorEEEbS6_RKNS_8functionIFbmmRNS1_8DataSinkEEEERKT_RT0_RNS1_5ErrorEENKUlPKNS_8multimapISH_SH_NS2_2ciENSF_INS_4pairISI_SH_EEEEEEE_clES17_EUlPKcmE_EEERNS_13tuple_elementIXT_ENS_5tupleIJDpT0_EEEE4typeERS1I_, symObjAddr: 0x345D0, symBinAddr: 0x100036B88, symSize: 0x24 }
  - { offsetInCU: 0x8411B, offset: 0x8411B, size: 0x8, addend: 0x0, symName: __ZNSt3__116forward_as_tupleB8ue170006IJRKNS_9allocatorIZZN7httplib6detail21write_content_chunkedIZNS2_6Server27write_content_with_providerERNS2_6StreamERKNS2_7RequestERNS2_8ResponseERKNS_12basic_stringIcNS_11char_traitsIcEENS1_IcEEEESJ_EUlvE_NS3_10compressorEEEbS7_RKNS_8functionIFbmmRNS2_8DataSinkEEEERKT_RT0_RNS2_5ErrorEENKUlPKNS_8multimapISH_SH_NS3_2ciENS1_INS_4pairISI_SH_EEEEEEE_clES17_EUlPKcmE_EEEEENS_5tupleIJDpOT_EEES1I_, symObjAddr: 0x3492C, symBinAddr: 0x100036EE4, symSize: 0x2C }
  - { offsetInCU: 0x84169, offset: 0x84169, size: 0x8, addend: 0x0, symName: __ZNSt3__13getB8ue170006ILm0EJRKNS_9allocatorIZZN7httplib6detail21write_content_chunkedIZNS2_6Server27write_content_with_providerERNS2_6StreamERKNS2_7RequestERNS2_8ResponseERKNS_12basic_stringIcNS_11char_traitsIcEENS1_IcEEEESJ_EUlvE_NS3_10compressorEEEbS7_RKNS_8functionIFbmmRNS2_8DataSinkEEEERKT_RT0_RNS2_5ErrorEENKUlPKNS_8multimapISH_SH_NS3_2ciENS1_INS_4pairISI_SH_EEEEEEE_clES17_EUlPKcmE_EEEEERNS_13tuple_elementIXT_ENS_5tupleIJDpT0_EEEE4typeERS1J_, symObjAddr: 0x34B10, symBinAddr: 0x1000370C8, symSize: 0x24 }
  - { offsetInCU: 0x841AB, offset: 0x841AB, size: 0x8, addend: 0x0, symName: __ZNSt3__18__invokeB8ue170006IRZZN7httplib6detail21write_content_chunkedIZNS1_6Server27write_content_with_providerERNS1_6StreamERKNS1_7RequestERNS1_8ResponseERKNS_12basic_stringIcNS_11char_traitsIcEENS_9allocatorIcEEEESJ_EUlvE_NS2_10compressorEEEbS6_RKNS_8functionIFbmmRNS1_8DataSinkEEEERKT_RT0_RNS1_5ErrorEENKUlPKNS_8multimapISH_SH_NS2_2ciENSF_INS_4pairISI_SH_EEEEEEE_clES17_EUlPKcmE_JS1A_mEEEDTclclsr3stdE7declvalIST_EEspclsr3stdE7declvalIT0_EEEEOST_DpOS1D_, symObjAddr: 0x34BF4, symBinAddr: 0x1000371AC, symSize: 0x40 }
  - { offsetInCU: 0x84373, offset: 0x84373, size: 0x8, addend: 0x0, symName: __ZNSt3__116forward_as_tupleB8ue170006IJZN7httplib6detail21write_content_chunkedIZNS1_6Server27write_content_with_providerERNS1_6StreamERKNS1_7RequestERNS1_8ResponseERKNS_12basic_stringIcNS_11char_traitsIcEENS_9allocatorIcEEEESJ_EUlvE_NS2_10compressorEEEbS6_RKNS_8functionIFbmmRNS1_8DataSinkEEEERKT_RT0_RNS1_5ErrorEEUlRKNS_8multimapISH_SH_NS2_2ciENSF_INS_4pairISI_SH_EEEEEEE_EEENS_5tupleIJDpOT_EEES1C_, symObjAddr: 0x35440, symBinAddr: 0x1000379F8, symSize: 0x2C }
  - { offsetInCU: 0x843AC, offset: 0x843AC, size: 0x8, addend: 0x0, symName: __ZNSt3__116forward_as_tupleB8ue170006IJNS_9allocatorIZN7httplib6detail21write_content_chunkedIZNS2_6Server27write_content_with_providerERNS2_6StreamERKNS2_7RequestERNS2_8ResponseERKNS_12basic_stringIcNS_11char_traitsIcEENS1_IcEEEESJ_EUlvE_NS3_10compressorEEEbS7_RKNS_8functionIFbmmRNS2_8DataSinkEEEERKT_RT0_RNS2_5ErrorEEUlRKNS_8multimapISH_SH_NS3_2ciENS1_INS_4pairISI_SH_EEEEEEE_EEEEENS_5tupleIJDpOT_EEES1D_, symObjAddr: 0x3546C, symBinAddr: 0x100037A24, symSize: 0x2C }
  - { offsetInCU: 0x8440F, offset: 0x8440F, size: 0x8, addend: 0x0, symName: __ZNSt3__13getB8ue170006ILm0EJOZN7httplib6detail21write_content_chunkedIZNS1_6Server27write_content_with_providerERNS1_6StreamERKNS1_7RequestERNS1_8ResponseERKNS_12basic_stringIcNS_11char_traitsIcEENS_9allocatorIcEEEESJ_EUlvE_NS2_10compressorEEEbS6_RKNS_8functionIFbmmRNS1_8DataSinkEEEERKT_RT0_RNS1_5ErrorEEUlRKNS_8multimapISH_SH_NS2_2ciENSF_INS_4pairISI_SH_EEEEEEE_EEERNS_13tuple_elementIXT_ENS_5tupleIJDpT0_EEEE4typeERS1E_, symObjAddr: 0x35784, symBinAddr: 0x100037D3C, symSize: 0x24 }
  - { offsetInCU: 0x84451, offset: 0x84451, size: 0x8, addend: 0x0, symName: __ZNSt3__13getB8ue170006ILm0EJONS_9allocatorIZN7httplib6detail21write_content_chunkedIZNS2_6Server27write_content_with_providerERNS2_6StreamERKNS2_7RequestERNS2_8ResponseERKNS_12basic_stringIcNS_11char_traitsIcEENS1_IcEEEESJ_EUlvE_NS3_10compressorEEEbS7_RKNS_8functionIFbmmRNS2_8DataSinkEEEERKT_RT0_RNS2_5ErrorEEUlRKNS_8multimapISH_SH_NS3_2ciENS1_INS_4pairISI_SH_EEEEEEE_EEEEERNS_13tuple_elementIXT_ENS_5tupleIJDpT0_EEEE4typeERS1F_, symObjAddr: 0x357C0, symBinAddr: 0x100037D78, symSize: 0x24 }
  - { offsetInCU: 0x84977, offset: 0x84977, size: 0x8, addend: 0x0, symName: __ZNSt3__116forward_as_tupleB8ue170006IJRKZN7httplib6detail21write_content_chunkedIZNS1_6Server27write_content_with_providerERNS1_6StreamERKNS1_7RequestERNS1_8ResponseERKNS_12basic_stringIcNS_11char_traitsIcEENS_9allocatorIcEEEESJ_EUlvE_NS2_10compressorEEEbS6_RKNS_8functionIFbmmRNS1_8DataSinkEEEERKT_RT0_RNS1_5ErrorEEUlRKNS_8multimapISH_SH_NS2_2ciENSF_INS_4pairISI_SH_EEEEEEE_EEENS_5tupleIJDpOT_EEES1E_, symObjAddr: 0x35D54, symBinAddr: 0x10003830C, symSize: 0x2C }
  - { offsetInCU: 0x849C5, offset: 0x849C5, size: 0x8, addend: 0x0, symName: __ZNSt3__13getB8ue170006ILm0EJRKZN7httplib6detail21write_content_chunkedIZNS1_6Server27write_content_with_providerERNS1_6StreamERKNS1_7RequestERNS1_8ResponseERKNS_12basic_stringIcNS_11char_traitsIcEENS_9allocatorIcEEEESJ_EUlvE_NS2_10compressorEEEbS6_RKNS_8functionIFbmmRNS1_8DataSinkEEEERKT_RT0_RNS1_5ErrorEEUlRKNS_8multimapISH_SH_NS2_2ciENSF_INS_4pairISI_SH_EEEEEEE_EEERNS_13tuple_elementIXT_ENS_5tupleIJDpT0_EEEE4typeERS1F_, symObjAddr: 0x35F44, symBinAddr: 0x1000384FC, symSize: 0x24 }
  - { offsetInCU: 0x84A07, offset: 0x84A07, size: 0x8, addend: 0x0, symName: __ZNSt3__116forward_as_tupleB8ue170006IJRKNS_9allocatorIZN7httplib6detail21write_content_chunkedIZNS2_6Server27write_content_with_providerERNS2_6StreamERKNS2_7RequestERNS2_8ResponseERKNS_12basic_stringIcNS_11char_traitsIcEENS1_IcEEEESJ_EUlvE_NS3_10compressorEEEbS7_RKNS_8functionIFbmmRNS2_8DataSinkEEEERKT_RT0_RNS2_5ErrorEEUlRKNS_8multimapISH_SH_NS3_2ciENS1_INS_4pairISI_SH_EEEEEEE_EEEEENS_5tupleIJDpOT_EEES1F_, symObjAddr: 0x362A0, symBinAddr: 0x100038858, symSize: 0x2C }
  - { offsetInCU: 0x84A55, offset: 0x84A55, size: 0x8, addend: 0x0, symName: __ZNSt3__13getB8ue170006ILm0EJRKNS_9allocatorIZN7httplib6detail21write_content_chunkedIZNS2_6Server27write_content_with_providerERNS2_6StreamERKNS2_7RequestERNS2_8ResponseERKNS_12basic_stringIcNS_11char_traitsIcEENS1_IcEEEESJ_EUlvE_NS3_10compressorEEEbS7_RKNS_8functionIFbmmRNS2_8DataSinkEEEERKT_RT0_RNS2_5ErrorEEUlRKNS_8multimapISH_SH_NS3_2ciENS1_INS_4pairISI_SH_EEEEEEE_EEEEERNS_13tuple_elementIXT_ENS_5tupleIJDpT0_EEEE4typeERS1G_, symObjAddr: 0x36484, symBinAddr: 0x100038A3C, symSize: 0x24 }
  - { offsetInCU: 0x84A98, offset: 0x84A98, size: 0x8, addend: 0x0, symName: __ZNSt3__18__invokeB8ue170006IRZN7httplib6detail21write_content_chunkedIZNS1_6Server27write_content_with_providerERNS1_6StreamERKNS1_7RequestERNS1_8ResponseERKNS_12basic_stringIcNS_11char_traitsIcEENS_9allocatorIcEEEESJ_EUlvE_NS2_10compressorEEEbS6_RKNS_8functionIFbmmRNS1_8DataSinkEEEERKT_RT0_RNS1_5ErrorEEUlRKNS_8multimapISH_SH_NS2_2ciENSF_INS_4pairISI_SH_EEEEEEE_JS17_EEEDTclclsr3stdE7declvalIST_EEspclsr3stdE7declvalIT0_EEEEOST_DpOS1A_, symObjAddr: 0x36550, symBinAddr: 0x100038B08, symSize: 0x2C }
  - { offsetInCU: 0x84AE5, offset: 0x84AE5, size: 0x8, addend: 0x0, symName: __ZNSt3__14swapB8ue170006IPNS_10__function6__baseIFvRKNS_8multimapINS_12basic_stringIcNS_11char_traitsIcEENS_9allocatorIcEEEES9_N7httplib6detail2ciENS7_INS_4pairIKS9_S9_EEEEEEEEEEENS_9enable_ifIXaasr21is_move_constructibleIT_EE5valuesr18is_move_assignableISO_EE5valueEvE4typeERSO_SR_, symObjAddr: 0x368D8, symBinAddr: 0x100038E90, symSize: 0x3C }
  - { offsetInCU: 0x85173, offset: 0x85173, size: 0x8, addend: 0x0, symName: __ZNSt3__116forward_as_tupleB8ue170006IJZN7httplib6detail28write_content_without_lengthIZNS1_6Server27write_content_with_providerERNS1_6StreamERKNS1_7RequestERNS1_8ResponseERKNS_12basic_stringIcNS_11char_traitsIcEENS_9allocatorIcEEEESJ_EUlvE_EEbS6_RKNS_8functionIFbmmRNS1_8DataSinkEEEERKT_EUlPKcmE_EEENS_5tupleIJDpOT_EEES11_, symObjAddr: 0x37508, symBinAddr: 0x100039AC0, symSize: 0x2C }
  - { offsetInCU: 0x851AC, offset: 0x851AC, size: 0x8, addend: 0x0, symName: __ZNSt3__116forward_as_tupleB8ue170006IJNS_9allocatorIZN7httplib6detail28write_content_without_lengthIZNS2_6Server27write_content_with_providerERNS2_6StreamERKNS2_7RequestERNS2_8ResponseERKNS_12basic_stringIcNS_11char_traitsIcEENS1_IcEEEESJ_EUlvE_EEbS7_RKNS_8functionIFbmmRNS2_8DataSinkEEEERKT_EUlPKcmE_EEEEENS_5tupleIJDpOT_EEES12_, symObjAddr: 0x37534, symBinAddr: 0x100039AEC, symSize: 0x2C }
  - { offsetInCU: 0x8520F, offset: 0x8520F, size: 0x8, addend: 0x0, symName: __ZNSt3__13getB8ue170006ILm0EJOZN7httplib6detail28write_content_without_lengthIZNS1_6Server27write_content_with_providerERNS1_6StreamERKNS1_7RequestERNS1_8ResponseERKNS_12basic_stringIcNS_11char_traitsIcEENS_9allocatorIcEEEESJ_EUlvE_EEbS6_RKNS_8functionIFbmmRNS1_8DataSinkEEEERKT_EUlPKcmE_EEERNS_13tuple_elementIXT_ENS_5tupleIJDpT0_EEEE4typeERS13_, symObjAddr: 0x37854, symBinAddr: 0x100039E0C, symSize: 0x24 }
  - { offsetInCU: 0x85251, offset: 0x85251, size: 0x8, addend: 0x0, symName: __ZNSt3__13getB8ue170006ILm0EJONS_9allocatorIZN7httplib6detail28write_content_without_lengthIZNS2_6Server27write_content_with_providerERNS2_6StreamERKNS2_7RequestERNS2_8ResponseERKNS_12basic_stringIcNS_11char_traitsIcEENS1_IcEEEESJ_EUlvE_EEbS7_RKNS_8functionIFbmmRNS2_8DataSinkEEEERKT_EUlPKcmE_EEEEERNS_13tuple_elementIXT_ENS_5tupleIJDpT0_EEEE4typeERS14_, symObjAddr: 0x37890, symBinAddr: 0x100039E48, symSize: 0x24 }
  - { offsetInCU: 0x8541F, offset: 0x8541F, size: 0x8, addend: 0x0, symName: __ZNSt3__116forward_as_tupleB8ue170006IJRKZN7httplib6detail28write_content_without_lengthIZNS1_6Server27write_content_with_providerERNS1_6StreamERKNS1_7RequestERNS1_8ResponseERKNS_12basic_stringIcNS_11char_traitsIcEENS_9allocatorIcEEEESJ_EUlvE_EEbS6_RKNS_8functionIFbmmRNS1_8DataSinkEEEERKT_EUlPKcmE_EEENS_5tupleIJDpOT_EEES13_, symObjAddr: 0x37C8C, symBinAddr: 0x10003A244, symSize: 0x2C }
  - { offsetInCU: 0x8546D, offset: 0x8546D, size: 0x8, addend: 0x0, symName: __ZNSt3__13getB8ue170006ILm0EJRKZN7httplib6detail28write_content_without_lengthIZNS1_6Server27write_content_with_providerERNS1_6StreamERKNS1_7RequestERNS1_8ResponseERKNS_12basic_stringIcNS_11char_traitsIcEENS_9allocatorIcEEEESJ_EUlvE_EEbS6_RKNS_8functionIFbmmRNS1_8DataSinkEEEERKT_EUlPKcmE_EEERNS_13tuple_elementIXT_ENS_5tupleIJDpT0_EEEE4typeERS14_, symObjAddr: 0x37E84, symBinAddr: 0x10003A43C, symSize: 0x24 }
  - { offsetInCU: 0x854AF, offset: 0x854AF, size: 0x8, addend: 0x0, symName: __ZNSt3__116forward_as_tupleB8ue170006IJRKNS_9allocatorIZN7httplib6detail28write_content_without_lengthIZNS2_6Server27write_content_with_providerERNS2_6StreamERKNS2_7RequestERNS2_8ResponseERKNS_12basic_stringIcNS_11char_traitsIcEENS1_IcEEEESJ_EUlvE_EEbS7_RKNS_8functionIFbmmRNS2_8DataSinkEEEERKT_EUlPKcmE_EEEEENS_5tupleIJDpOT_EEES14_, symObjAddr: 0x381E0, symBinAddr: 0x10003A798, symSize: 0x2C }
  - { offsetInCU: 0x854FD, offset: 0x854FD, size: 0x8, addend: 0x0, symName: __ZNSt3__13getB8ue170006ILm0EJRKNS_9allocatorIZN7httplib6detail28write_content_without_lengthIZNS2_6Server27write_content_with_providerERNS2_6StreamERKNS2_7RequestERNS2_8ResponseERKNS_12basic_stringIcNS_11char_traitsIcEENS1_IcEEEESJ_EUlvE_EEbS7_RKNS_8functionIFbmmRNS2_8DataSinkEEEERKT_EUlPKcmE_EEEEERNS_13tuple_elementIXT_ENS_5tupleIJDpT0_EEEE4typeERS15_, symObjAddr: 0x383C4, symBinAddr: 0x10003A97C, symSize: 0x24 }
  - { offsetInCU: 0x8553F, offset: 0x8553F, size: 0x8, addend: 0x0, symName: __ZNSt3__18__invokeB8ue170006IRZN7httplib6detail28write_content_without_lengthIZNS1_6Server27write_content_with_providerERNS1_6StreamERKNS1_7RequestERNS1_8ResponseERKNS_12basic_stringIcNS_11char_traitsIcEENS_9allocatorIcEEEESJ_EUlvE_EEbS6_RKNS_8functionIFbmmRNS1_8DataSinkEEEERKT_EUlPKcmE_JSW_mEEEDTclclsr3stdE7declvalISS_EEspclsr3stdE7declvalIT0_EEEEOSS_DpOSZ_, symObjAddr: 0x384A8, symBinAddr: 0x10003AA60, symSize: 0x40 }
  - { offsetInCU: 0x85707, offset: 0x85707, size: 0x8, addend: 0x0, symName: __ZNSt3__116forward_as_tupleB8ue170006IJZN7httplib6detail28write_content_without_lengthIZNS1_6Server27write_content_with_providerERNS1_6StreamERKNS1_7RequestERNS1_8ResponseERKNS_12basic_stringIcNS_11char_traitsIcEENS_9allocatorIcEEEESJ_EUlvE_EEbS6_RKNS_8functionIFbmmRNS1_8DataSinkEEEERKT_EUlvE_EEENS_5tupleIJDpOT_EEESZ_, symObjAddr: 0x38D6C, symBinAddr: 0x10003B324, symSize: 0x2C }
  - { offsetInCU: 0x85740, offset: 0x85740, size: 0x8, addend: 0x0, symName: __ZNSt3__116forward_as_tupleB8ue170006IJNS_9allocatorIZN7httplib6detail28write_content_without_lengthIZNS2_6Server27write_content_with_providerERNS2_6StreamERKNS2_7RequestERNS2_8ResponseERKNS_12basic_stringIcNS_11char_traitsIcEENS1_IcEEEESJ_EUlvE_EEbS7_RKNS_8functionIFbmmRNS2_8DataSinkEEEERKT_EUlvE_EEEEENS_5tupleIJDpOT_EEES10_, symObjAddr: 0x38D98, symBinAddr: 0x10003B350, symSize: 0x2C }
  - { offsetInCU: 0x857A3, offset: 0x857A3, size: 0x8, addend: 0x0, symName: __ZNSt3__13getB8ue170006ILm0EJOZN7httplib6detail28write_content_without_lengthIZNS1_6Server27write_content_with_providerERNS1_6StreamERKNS1_7RequestERNS1_8ResponseERKNS_12basic_stringIcNS_11char_traitsIcEENS_9allocatorIcEEEESJ_EUlvE_EEbS6_RKNS_8functionIFbmmRNS1_8DataSinkEEEERKT_EUlvE_EEERNS_13tuple_elementIXT_ENS_5tupleIJDpT0_EEEE4typeERS11_, symObjAddr: 0x390B0, symBinAddr: 0x10003B668, symSize: 0x24 }
  - { offsetInCU: 0x857E5, offset: 0x857E5, size: 0x8, addend: 0x0, symName: __ZNSt3__13getB8ue170006ILm0EJONS_9allocatorIZN7httplib6detail28write_content_without_lengthIZNS2_6Server27write_content_with_providerERNS2_6StreamERKNS2_7RequestERNS2_8ResponseERKNS_12basic_stringIcNS_11char_traitsIcEENS1_IcEEEESJ_EUlvE_EEbS7_RKNS_8functionIFbmmRNS2_8DataSinkEEEERKT_EUlvE_EEEEERNS_13tuple_elementIXT_ENS_5tupleIJDpT0_EEEE4typeERS12_, symObjAddr: 0x390EC, symBinAddr: 0x10003B6A4, symSize: 0x24 }
  - { offsetInCU: 0x85D0B, offset: 0x85D0B, size: 0x8, addend: 0x0, symName: __ZNSt3__116forward_as_tupleB8ue170006IJRKZN7httplib6detail28write_content_without_lengthIZNS1_6Server27write_content_with_providerERNS1_6StreamERKNS1_7RequestERNS1_8ResponseERKNS_12basic_stringIcNS_11char_traitsIcEENS_9allocatorIcEEEESJ_EUlvE_EEbS6_RKNS_8functionIFbmmRNS1_8DataSinkEEEERKT_EUlvE_EEENS_5tupleIJDpOT_EEES11_, symObjAddr: 0x39680, symBinAddr: 0x10003BC38, symSize: 0x2C }
  - { offsetInCU: 0x85D59, offset: 0x85D59, size: 0x8, addend: 0x0, symName: __ZNSt3__13getB8ue170006ILm0EJRKZN7httplib6detail28write_content_without_lengthIZNS1_6Server27write_content_with_providerERNS1_6StreamERKNS1_7RequestERNS1_8ResponseERKNS_12basic_stringIcNS_11char_traitsIcEENS_9allocatorIcEEEESJ_EUlvE_EEbS6_RKNS_8functionIFbmmRNS1_8DataSinkEEEERKT_EUlvE_EEERNS_13tuple_elementIXT_ENS_5tupleIJDpT0_EEEE4typeERS12_, symObjAddr: 0x39870, symBinAddr: 0x10003BE28, symSize: 0x24 }
  - { offsetInCU: 0x85D9B, offset: 0x85D9B, size: 0x8, addend: 0x0, symName: __ZNSt3__116forward_as_tupleB8ue170006IJRKNS_9allocatorIZN7httplib6detail28write_content_without_lengthIZNS2_6Server27write_content_with_providerERNS2_6StreamERKNS2_7RequestERNS2_8ResponseERKNS_12basic_stringIcNS_11char_traitsIcEENS1_IcEEEESJ_EUlvE_EEbS7_RKNS_8functionIFbmmRNS2_8DataSinkEEEERKT_EUlvE_EEEEENS_5tupleIJDpOT_EEES12_, symObjAddr: 0x39BCC, symBinAddr: 0x10003C184, symSize: 0x2C }
  - { offsetInCU: 0x85DE9, offset: 0x85DE9, size: 0x8, addend: 0x0, symName: __ZNSt3__13getB8ue170006ILm0EJRKNS_9allocatorIZN7httplib6detail28write_content_without_lengthIZNS2_6Server27write_content_with_providerERNS2_6StreamERKNS2_7RequestERNS2_8ResponseERKNS_12basic_stringIcNS_11char_traitsIcEENS1_IcEEEESJ_EUlvE_EEbS7_RKNS_8functionIFbmmRNS2_8DataSinkEEEERKT_EUlvE_EEEEERNS_13tuple_elementIXT_ENS_5tupleIJDpT0_EEEE4typeERS13_, symObjAddr: 0x39DB0, symBinAddr: 0x10003C368, symSize: 0x24 }
  - { offsetInCU: 0x85E2B, offset: 0x85E2B, size: 0x8, addend: 0x0, symName: __ZNSt3__18__invokeB8ue170006IRZN7httplib6detail28write_content_without_lengthIZNS1_6Server27write_content_with_providerERNS1_6StreamERKNS1_7RequestERNS1_8ResponseERKNS_12basic_stringIcNS_11char_traitsIcEENS_9allocatorIcEEEESJ_EUlvE_EEbS6_RKNS_8functionIFbmmRNS1_8DataSinkEEEERKT_EUlvE_JEEEDTclclsr3stdE7declvalISS_EEspclsr3stdE7declvalIT0_EEEEOSS_DpOSX_, symObjAddr: 0x39E74, symBinAddr: 0x10003C42C, symSize: 0x28 }
  - { offsetInCU: 0x85FCA, offset: 0x85FCA, size: 0x8, addend: 0x0, symName: __ZNSt3__116forward_as_tupleB8ue170006IJZN7httplib6detail28write_content_without_lengthIZNS1_6Server27write_content_with_providerERNS1_6StreamERKNS1_7RequestERNS1_8ResponseERKNS_12basic_stringIcNS_11char_traitsIcEENS_9allocatorIcEEEESJ_EUlvE_EEbS6_RKNS_8functionIFbmmRNS1_8DataSinkEEEERKT_EUlvE0_EEENS_5tupleIJDpOT_EEESZ_, symObjAddr: 0x3A5FC, symBinAddr: 0x10003CBB4, symSize: 0x2C }
  - { offsetInCU: 0x86003, offset: 0x86003, size: 0x8, addend: 0x0, symName: __ZNSt3__116forward_as_tupleB8ue170006IJNS_9allocatorIZN7httplib6detail28write_content_without_lengthIZNS2_6Server27write_content_with_providerERNS2_6StreamERKNS2_7RequestERNS2_8ResponseERKNS_12basic_stringIcNS_11char_traitsIcEENS1_IcEEEESJ_EUlvE_EEbS7_RKNS_8functionIFbmmRNS2_8DataSinkEEEERKT_EUlvE0_EEEEENS_5tupleIJDpOT_EEES10_, symObjAddr: 0x3A628, symBinAddr: 0x10003CBE0, symSize: 0x2C }
  - { offsetInCU: 0x86066, offset: 0x86066, size: 0x8, addend: 0x0, symName: __ZNSt3__13getB8ue170006ILm0EJOZN7httplib6detail28write_content_without_lengthIZNS1_6Server27write_content_with_providerERNS1_6StreamERKNS1_7RequestERNS1_8ResponseERKNS_12basic_stringIcNS_11char_traitsIcEENS_9allocatorIcEEEESJ_EUlvE_EEbS6_RKNS_8functionIFbmmRNS1_8DataSinkEEEERKT_EUlvE0_EEERNS_13tuple_elementIXT_ENS_5tupleIJDpT0_EEEE4typeERS11_, symObjAddr: 0x3A940, symBinAddr: 0x10003CEF8, symSize: 0x24 }
  - { offsetInCU: 0x860A8, offset: 0x860A8, size: 0x8, addend: 0x0, symName: __ZNSt3__13getB8ue170006ILm0EJONS_9allocatorIZN7httplib6detail28write_content_without_lengthIZNS2_6Server27write_content_with_providerERNS2_6StreamERKNS2_7RequestERNS2_8ResponseERKNS_12basic_stringIcNS_11char_traitsIcEENS1_IcEEEESJ_EUlvE_EEbS7_RKNS_8functionIFbmmRNS2_8DataSinkEEEERKT_EUlvE0_EEEEERNS_13tuple_elementIXT_ENS_5tupleIJDpT0_EEEE4typeERS12_, symObjAddr: 0x3A97C, symBinAddr: 0x10003CF34, symSize: 0x24 }
  - { offsetInCU: 0x865CE, offset: 0x865CE, size: 0x8, addend: 0x0, symName: __ZNSt3__116forward_as_tupleB8ue170006IJRKZN7httplib6detail28write_content_without_lengthIZNS1_6Server27write_content_with_providerERNS1_6StreamERKNS1_7RequestERNS1_8ResponseERKNS_12basic_stringIcNS_11char_traitsIcEENS_9allocatorIcEEEESJ_EUlvE_EEbS6_RKNS_8functionIFbmmRNS1_8DataSinkEEEERKT_EUlvE0_EEENS_5tupleIJDpOT_EEES11_, symObjAddr: 0x3AF10, symBinAddr: 0x10003D4C8, symSize: 0x2C }
  - { offsetInCU: 0x8661C, offset: 0x8661C, size: 0x8, addend: 0x0, symName: __ZNSt3__13getB8ue170006ILm0EJRKZN7httplib6detail28write_content_without_lengthIZNS1_6Server27write_content_with_providerERNS1_6StreamERKNS1_7RequestERNS1_8ResponseERKNS_12basic_stringIcNS_11char_traitsIcEENS_9allocatorIcEEEESJ_EUlvE_EEbS6_RKNS_8functionIFbmmRNS1_8DataSinkEEEERKT_EUlvE0_EEERNS_13tuple_elementIXT_ENS_5tupleIJDpT0_EEEE4typeERS12_, symObjAddr: 0x3B100, symBinAddr: 0x10003D6B8, symSize: 0x24 }
  - { offsetInCU: 0x8665E, offset: 0x8665E, size: 0x8, addend: 0x0, symName: __ZNSt3__116forward_as_tupleB8ue170006IJRKNS_9allocatorIZN7httplib6detail28write_content_without_lengthIZNS2_6Server27write_content_with_providerERNS2_6StreamERKNS2_7RequestERNS2_8ResponseERKNS_12basic_stringIcNS_11char_traitsIcEENS1_IcEEEESJ_EUlvE_EEbS7_RKNS_8functionIFbmmRNS2_8DataSinkEEEERKT_EUlvE0_EEEEENS_5tupleIJDpOT_EEES12_, symObjAddr: 0x3B45C, symBinAddr: 0x10003DA14, symSize: 0x2C }
  - { offsetInCU: 0x866AC, offset: 0x866AC, size: 0x8, addend: 0x0, symName: __ZNSt3__13getB8ue170006ILm0EJRKNS_9allocatorIZN7httplib6detail28write_content_without_lengthIZNS2_6Server27write_content_with_providerERNS2_6StreamERKNS2_7RequestERNS2_8ResponseERKNS_12basic_stringIcNS_11char_traitsIcEENS1_IcEEEESJ_EUlvE_EEbS7_RKNS_8functionIFbmmRNS2_8DataSinkEEEERKT_EUlvE0_EEEEERNS_13tuple_elementIXT_ENS_5tupleIJDpT0_EEEE4typeERS13_, symObjAddr: 0x3B640, symBinAddr: 0x10003DBF8, symSize: 0x24 }
  - { offsetInCU: 0x866EF, offset: 0x866EF, size: 0x8, addend: 0x0, symName: __ZNSt3__18__invokeB8ue170006IRZN7httplib6detail28write_content_without_lengthIZNS1_6Server27write_content_with_providerERNS1_6StreamERKNS1_7RequestERNS1_8ResponseERKNS_12basic_stringIcNS_11char_traitsIcEENS_9allocatorIcEEEESJ_EUlvE_EEbS6_RKNS_8functionIFbmmRNS1_8DataSinkEEEERKT_EUlvE0_JEEEDTclclsr3stdE7declvalISS_EEspclsr3stdE7declvalIT0_EEEEOSS_DpOSX_, symObjAddr: 0x3B6FC, symBinAddr: 0x10003DCB4, symSize: 0x24 }
  - { offsetInCU: 0x86935, offset: 0x86935, size: 0x8, addend: 0x0, symName: __ZNSt3__1eqB8ue170006ERKNS_21__tree_const_iteratorINS_12basic_stringIcNS_11char_traitsIcEENS_9allocatorIcEEEEPNS_11__tree_nodeIS6_PvEElEESD_, symObjAddr: 0x3B980, symBinAddr: 0x10003DF38, symSize: 0x30 }
  - { offsetInCU: 0x86B04, offset: 0x86B04, size: 0x8, addend: 0x0, symName: __ZNSt3__19make_pairB8ue170006IRmS1_EENS_4pairINS_18__unwrap_ref_decayIT_E4typeENS3_IT0_E4typeEEEOS4_OS7_, symObjAddr: 0x3BEA4, symBinAddr: 0x10003E45C, symSize: 0x38 }
  - { offsetInCU: 0x86CB6, offset: 0x86CB6, size: 0x8, addend: 0x0, symName: __ZNSt3__116forward_as_tupleB8ue170006IJZNK7httplib6Server18parse_request_lineEPKcRNS1_7RequestEEUlS4_S4_E_EEENS_5tupleIJDpOT_EEESB_, symObjAddr: 0x3C848, symBinAddr: 0x10003EE00, symSize: 0x2C }
  - { offsetInCU: 0x86CEF, offset: 0x86CEF, size: 0x8, addend: 0x0, symName: __ZNSt3__116forward_as_tupleB8ue170006IJNS_9allocatorIZNK7httplib6Server18parse_request_lineEPKcRNS2_7RequestEEUlS5_S5_E_EEEEENS_5tupleIJDpOT_EEESD_, symObjAddr: 0x3C874, symBinAddr: 0x10003EE2C, symSize: 0x2C }
  - { offsetInCU: 0x86D52, offset: 0x86D52, size: 0x8, addend: 0x0, symName: __ZNSt3__13getB8ue170006ILm0EJOZNK7httplib6Server18parse_request_lineEPKcRNS1_7RequestEEUlS4_S4_E_EEERNS_13tuple_elementIXT_ENS_5tupleIJDpT0_EEEE4typeERSD_, symObjAddr: 0x3CB8C, symBinAddr: 0x10003F144, symSize: 0x24 }
  - { offsetInCU: 0x86D94, offset: 0x86D94, size: 0x8, addend: 0x0, symName: __ZNSt3__13getB8ue170006ILm0EJONS_9allocatorIZNK7httplib6Server18parse_request_lineEPKcRNS2_7RequestEEUlS5_S5_E_EEEEERNS_13tuple_elementIXT_ENS_5tupleIJDpT0_EEEE4typeERSF_, symObjAddr: 0x3CBC8, symBinAddr: 0x10003F180, symSize: 0x24 }
  - { offsetInCU: 0x872BA, offset: 0x872BA, size: 0x8, addend: 0x0, symName: __ZNSt3__116forward_as_tupleB8ue170006IJRKZNK7httplib6Server18parse_request_lineEPKcRNS1_7RequestEEUlS4_S4_E_EEENS_5tupleIJDpOT_EEESD_, symObjAddr: 0x3D164, symBinAddr: 0x10003F71C, symSize: 0x2C }
  - { offsetInCU: 0x87308, offset: 0x87308, size: 0x8, addend: 0x0, symName: __ZNSt3__13getB8ue170006ILm0EJRKZNK7httplib6Server18parse_request_lineEPKcRNS1_7RequestEEUlS4_S4_E_EEERNS_13tuple_elementIXT_ENS_5tupleIJDpT0_EEEE4typeERSE_, symObjAddr: 0x3D354, symBinAddr: 0x10003F90C, symSize: 0x24 }
  - { offsetInCU: 0x8734A, offset: 0x8734A, size: 0x8, addend: 0x0, symName: __ZNSt3__116forward_as_tupleB8ue170006IJRKNS_9allocatorIZNK7httplib6Server18parse_request_lineEPKcRNS2_7RequestEEUlS5_S5_E_EEEEENS_5tupleIJDpOT_EEESF_, symObjAddr: 0x3D6B4, symBinAddr: 0x10003FC6C, symSize: 0x2C }
  - { offsetInCU: 0x87398, offset: 0x87398, size: 0x8, addend: 0x0, symName: __ZNSt3__13getB8ue170006ILm0EJRKNS_9allocatorIZNK7httplib6Server18parse_request_lineEPKcRNS2_7RequestEEUlS5_S5_E_EEEEERNS_13tuple_elementIXT_ENS_5tupleIJDpT0_EEEE4typeERSG_, symObjAddr: 0x3D898, symBinAddr: 0x10003FE50, symSize: 0x24 }
  - { offsetInCU: 0x873DB, offset: 0x873DB, size: 0x8, addend: 0x0, symName: __ZNSt3__18__invokeB8ue170006IRZNK7httplib6Server18parse_request_lineEPKcRNS1_7RequestEEUlS4_S4_E_JS4_S4_EEEDTclclsr3stdE7declvalIT_EEspclsr3stdE7declvalIT0_EEEEOS9_DpOSA_, symObjAddr: 0x3D974, symBinAddr: 0x10003FF2C, symSize: 0x3C }
  - { offsetInCU: 0x8743C, offset: 0x8743C, size: 0x8, addend: 0x0, symName: __ZNSt3__14nextB8ue170006INS_21__tree_const_iteratorINS_12basic_stringIcNS_11char_traitsIcEENS_9allocatorIcEEEEPNS_11__tree_nodeIS7_PvEElEEEENS_9enable_ifIXsr29__has_input_iterator_categoryIT_EE5valueESE_E4typeESE_NS_15iterator_traitsISE_E15difference_typeE, symObjAddr: 0x3EA30, symBinAddr: 0x100040FE8, symSize: 0x3C }
  - { offsetInCU: 0x8747F, offset: 0x8747F, size: 0x8, addend: 0x0, symName: __ZNSt3__1ltB8ue170006IcNS_11char_traitsIcEENS_9allocatorIcEEEEbRKNS_12basic_stringIT_T0_T1_EESB_, symObjAddr: 0x3EB30, symBinAddr: 0x1000410E8, symSize: 0x38 }
  - { offsetInCU: 0x874D8, offset: 0x874D8, size: 0x8, addend: 0x0, symName: __ZNSt3__19__advanceB8ue170006INS_21__tree_const_iteratorINS_12basic_stringIcNS_11char_traitsIcEENS_9allocatorIcEEEEPNS_11__tree_nodeIS7_PvEElEEEEvRT_NS_15iterator_traitsISD_E15difference_typeENS_26bidirectional_iterator_tagE, symObjAddr: 0x3EED0, symBinAddr: 0x100041488, symSize: 0xA4 }
  - { offsetInCU: 0x8753F, offset: 0x8753F, size: 0x8, addend: 0x0, symName: __ZNSt3__1neB8ue170006ERKNS_21__tree_const_iteratorINS_12basic_stringIcNS_11char_traitsIcEENS_9allocatorIcEEEEPNS_11__tree_nodeIS6_PvEElEESD_, symObjAddr: 0x3F930, symBinAddr: 0x100041EE8, symSize: 0x34 }
  - { offsetInCU: 0x8757C, offset: 0x8757C, size: 0x8, addend: 0x0, symName: __ZNSt3__14findB8ue170006IPKccEET_S3_S3_RKT0_, symObjAddr: 0x3FB4C, symBinAddr: 0x100042104, symSize: 0x60 }
  - { offsetInCU: 0x875E5, offset: 0x875E5, size: 0x8, addend: 0x0, symName: __ZNSt3__111__find_implB8ue170006IKccNS_10__identityELi0EEEPT_S4_S4_RKT0_RT1_, symObjAddr: 0x3FC00, symBinAddr: 0x1000421B8, symSize: 0x78 }
  - { offsetInCU: 0x8766E, offset: 0x8766E, size: 0x8, addend: 0x0, symName: __ZNSt3__118__constexpr_memchrB8ue170006IKccEEPT_S3_T0_m, symObjAddr: 0x3FC78, symBinAddr: 0x100042230, symSize: 0x40 }
  - { offsetInCU: 0x87849, offset: 0x87849, size: 0x8, addend: 0x0, symName: __ZNSt3__116forward_as_tupleB8ue170006IJZNK7httplib6Server18parse_request_lineEPKcRNS1_7RequestEEUlS4_mS4_mE_EEENS_5tupleIJDpOT_EEESB_, symObjAddr: 0x405D0, symBinAddr: 0x100042B88, symSize: 0x2C }
  - { offsetInCU: 0x87882, offset: 0x87882, size: 0x8, addend: 0x0, symName: __ZNSt3__116forward_as_tupleB8ue170006IJNS_9allocatorIZNK7httplib6Server18parse_request_lineEPKcRNS2_7RequestEEUlS5_mS5_mE_EEEEENS_5tupleIJDpOT_EEESD_, symObjAddr: 0x405FC, symBinAddr: 0x100042BB4, symSize: 0x2C }
  - { offsetInCU: 0x878E5, offset: 0x878E5, size: 0x8, addend: 0x0, symName: __ZNSt3__13getB8ue170006ILm0EJOZNK7httplib6Server18parse_request_lineEPKcRNS1_7RequestEEUlS4_mS4_mE_EEERNS_13tuple_elementIXT_ENS_5tupleIJDpT0_EEEE4typeERSD_, symObjAddr: 0x40914, symBinAddr: 0x100042ECC, symSize: 0x24 }
  - { offsetInCU: 0x87927, offset: 0x87927, size: 0x8, addend: 0x0, symName: __ZNSt3__13getB8ue170006ILm0EJONS_9allocatorIZNK7httplib6Server18parse_request_lineEPKcRNS2_7RequestEEUlS5_mS5_mE_EEEEERNS_13tuple_elementIXT_ENS_5tupleIJDpT0_EEEE4typeERSF_, symObjAddr: 0x40950, symBinAddr: 0x100042F08, symSize: 0x24 }
  - { offsetInCU: 0x87E4D, offset: 0x87E4D, size: 0x8, addend: 0x0, symName: __ZNSt3__116forward_as_tupleB8ue170006IJRKZNK7httplib6Server18parse_request_lineEPKcRNS1_7RequestEEUlS4_mS4_mE_EEENS_5tupleIJDpOT_EEESD_, symObjAddr: 0x40EE4, symBinAddr: 0x10004349C, symSize: 0x2C }
  - { offsetInCU: 0x87E9B, offset: 0x87E9B, size: 0x8, addend: 0x0, symName: __ZNSt3__13getB8ue170006ILm0EJRKZNK7httplib6Server18parse_request_lineEPKcRNS1_7RequestEEUlS4_mS4_mE_EEERNS_13tuple_elementIXT_ENS_5tupleIJDpT0_EEEE4typeERSE_, symObjAddr: 0x410D4, symBinAddr: 0x10004368C, symSize: 0x24 }
  - { offsetInCU: 0x87EDD, offset: 0x87EDD, size: 0x8, addend: 0x0, symName: __ZNSt3__116forward_as_tupleB8ue170006IJRKNS_9allocatorIZNK7httplib6Server18parse_request_lineEPKcRNS2_7RequestEEUlS5_mS5_mE_EEEEENS_5tupleIJDpOT_EEESF_, symObjAddr: 0x41430, symBinAddr: 0x1000439E8, symSize: 0x2C }
  - { offsetInCU: 0x87F2B, offset: 0x87F2B, size: 0x8, addend: 0x0, symName: __ZNSt3__13getB8ue170006ILm0EJRKNS_9allocatorIZNK7httplib6Server18parse_request_lineEPKcRNS2_7RequestEEUlS5_mS5_mE_EEEEERNS_13tuple_elementIXT_ENS_5tupleIJDpT0_EEEE4typeERSG_, symObjAddr: 0x41614, symBinAddr: 0x100043BCC, symSize: 0x24 }
  - { offsetInCU: 0x87F6E, offset: 0x87F6E, size: 0x8, addend: 0x0, symName: __ZNSt3__18__invokeB8ue170006IRZNK7httplib6Server18parse_request_lineEPKcRNS1_7RequestEEUlS4_mS4_mE_JS4_mS4_mEEEDTclclsr3stdE7declvalIT_EEspclsr3stdE7declvalIT0_EEEEOS9_DpOSA_, symObjAddr: 0x41710, symBinAddr: 0x100043CC8, symSize: 0x54 }
  - { offsetInCU: 0x8815A, offset: 0x8815A, size: 0x8, addend: 0x0, symName: __ZNSt3__116forward_as_tupleB8ue170006IJZN7httplib6detail16parse_query_textEPKcmRNS_8multimapINS_12basic_stringIcNS_11char_traitsIcEENS_9allocatorIcEEEESB_NS_4lessISB_EENS9_INS_4pairIKSB_SB_EEEEEEEUlS4_S4_E_EEENS_5tupleIJDpOT_EEESO_, symObjAddr: 0x42148, symBinAddr: 0x100044700, symSize: 0x2C }
  - { offsetInCU: 0x88193, offset: 0x88193, size: 0x8, addend: 0x0, symName: __ZNSt3__116forward_as_tupleB8ue170006IJNS_9allocatorIZN7httplib6detail16parse_query_textEPKcmRNS_8multimapINS_12basic_stringIcNS_11char_traitsIcEENS1_IcEEEESB_NS_4lessISB_EENS1_INS_4pairIKSB_SB_EEEEEEEUlS5_S5_E_EEEEENS_5tupleIJDpOT_EEESP_, symObjAddr: 0x42174, symBinAddr: 0x10004472C, symSize: 0x2C }
  - { offsetInCU: 0x881F6, offset: 0x881F6, size: 0x8, addend: 0x0, symName: __ZNSt3__13getB8ue170006ILm0EJOZN7httplib6detail16parse_query_textEPKcmRNS_8multimapINS_12basic_stringIcNS_11char_traitsIcEENS_9allocatorIcEEEESB_NS_4lessISB_EENS9_INS_4pairIKSB_SB_EEEEEEEUlS4_S4_E_EEERNS_13tuple_elementIXT_ENS_5tupleIJDpT0_EEEE4typeERSQ_, symObjAddr: 0x4248C, symBinAddr: 0x100044A44, symSize: 0x24 }
  - { offsetInCU: 0x88238, offset: 0x88238, size: 0x8, addend: 0x0, symName: __ZNSt3__13getB8ue170006ILm0EJONS_9allocatorIZN7httplib6detail16parse_query_textEPKcmRNS_8multimapINS_12basic_stringIcNS_11char_traitsIcEENS1_IcEEEESB_NS_4lessISB_EENS1_INS_4pairIKSB_SB_EEEEEEEUlS5_S5_E_EEEEERNS_13tuple_elementIXT_ENS_5tupleIJDpT0_EEEE4typeERSR_, symObjAddr: 0x424C8, symBinAddr: 0x100044A80, symSize: 0x24 }
  - { offsetInCU: 0x8875E, offset: 0x8875E, size: 0x8, addend: 0x0, symName: __ZNSt3__116forward_as_tupleB8ue170006IJRKZN7httplib6detail16parse_query_textEPKcmRNS_8multimapINS_12basic_stringIcNS_11char_traitsIcEENS_9allocatorIcEEEESB_NS_4lessISB_EENS9_INS_4pairIKSB_SB_EEEEEEEUlS4_S4_E_EEENS_5tupleIJDpOT_EEESQ_, symObjAddr: 0x42A64, symBinAddr: 0x10004501C, symSize: 0x2C }
  - { offsetInCU: 0x887AC, offset: 0x887AC, size: 0x8, addend: 0x0, symName: __ZNSt3__13getB8ue170006ILm0EJRKZN7httplib6detail16parse_query_textEPKcmRNS_8multimapINS_12basic_stringIcNS_11char_traitsIcEENS_9allocatorIcEEEESB_NS_4lessISB_EENS9_INS_4pairIKSB_SB_EEEEEEEUlS4_S4_E_EEERNS_13tuple_elementIXT_ENS_5tupleIJDpT0_EEEE4typeERSR_, symObjAddr: 0x42C54, symBinAddr: 0x10004520C, symSize: 0x24 }
  - { offsetInCU: 0x887EE, offset: 0x887EE, size: 0x8, addend: 0x0, symName: __ZNSt3__116forward_as_tupleB8ue170006IJRKNS_9allocatorIZN7httplib6detail16parse_query_textEPKcmRNS_8multimapINS_12basic_stringIcNS_11char_traitsIcEENS1_IcEEEESB_NS_4lessISB_EENS1_INS_4pairIKSB_SB_EEEEEEEUlS5_S5_E_EEEEENS_5tupleIJDpOT_EEESR_, symObjAddr: 0x42FB4, symBinAddr: 0x10004556C, symSize: 0x2C }
  - { offsetInCU: 0x8883C, offset: 0x8883C, size: 0x8, addend: 0x0, symName: __ZNSt3__13getB8ue170006ILm0EJRKNS_9allocatorIZN7httplib6detail16parse_query_textEPKcmRNS_8multimapINS_12basic_stringIcNS_11char_traitsIcEENS1_IcEEEESB_NS_4lessISB_EENS1_INS_4pairIKSB_SB_EEEEEEEUlS5_S5_E_EEEEERNS_13tuple_elementIXT_ENS_5tupleIJDpT0_EEEE4typeERSS_, symObjAddr: 0x43198, symBinAddr: 0x100045750, symSize: 0x24 }
  - { offsetInCU: 0x8887F, offset: 0x8887F, size: 0x8, addend: 0x0, symName: __ZNSt3__18__invokeB8ue170006IRZN7httplib6detail16parse_query_textEPKcmRNS_8multimapINS_12basic_stringIcNS_11char_traitsIcEENS_9allocatorIcEEEESB_NS_4lessISB_EENS9_INS_4pairIKSB_SB_EEEEEEEUlS4_S4_E_JS4_S4_EEEDTclclsr3stdE7declvalIT_EEspclsr3stdE7declvalIT0_EEEEOSM_DpOSN_, symObjAddr: 0x43274, symBinAddr: 0x10004582C, symSize: 0x3C }
  - { offsetInCU: 0x888E0, offset: 0x888E0, size: 0x8, addend: 0x0, symName: __ZNSt3__1neB8ue170006ERKNS_15__tree_iteratorINS_12basic_stringIcNS_11char_traitsIcEENS_9allocatorIcEEEEPNS_11__tree_nodeIS6_PvEElEESD_, symObjAddr: 0x43840, symBinAddr: 0x100045DF8, symSize: 0x34 }
  - { offsetInCU: 0x8891D, offset: 0x8891D, size: 0x8, addend: 0x0, symName: __ZNSt3__1eqB8ue170006ERKNS_15__tree_iteratorINS_12basic_stringIcNS_11char_traitsIcEENS_9allocatorIcEEEEPNS_11__tree_nodeIS6_PvEElEESD_, symObjAddr: 0x4389C, symBinAddr: 0x100045E54, symSize: 0x30 }
  - { offsetInCU: 0x88ABD, offset: 0x88ABD, size: 0x8, addend: 0x0, symName: __ZNSt3__116forward_as_tupleB8ue170006IJZZN7httplib6detail16parse_query_textEPKcmRNS_8multimapINS_12basic_stringIcNS_11char_traitsIcEENS_9allocatorIcEEEESB_NS_4lessISB_EENS9_INS_4pairIKSB_SB_EEEEEEENKUlS4_S4_E_clES4_S4_EUlS4_mS4_mE_EEENS_5tupleIJDpOT_EEESP_, symObjAddr: 0x4431C, symBinAddr: 0x1000468D4, symSize: 0x2C }
  - { offsetInCU: 0x88AF6, offset: 0x88AF6, size: 0x8, addend: 0x0, symName: __ZNSt3__116forward_as_tupleB8ue170006IJNS_9allocatorIZZN7httplib6detail16parse_query_textEPKcmRNS_8multimapINS_12basic_stringIcNS_11char_traitsIcEENS1_IcEEEESB_NS_4lessISB_EENS1_INS_4pairIKSB_SB_EEEEEEENKUlS5_S5_E_clES5_S5_EUlS5_mS5_mE_EEEEENS_5tupleIJDpOT_EEESQ_, symObjAddr: 0x44348, symBinAddr: 0x100046900, symSize: 0x2C }
  - { offsetInCU: 0x88B59, offset: 0x88B59, size: 0x8, addend: 0x0, symName: __ZNSt3__13getB8ue170006ILm0EJOZZN7httplib6detail16parse_query_textEPKcmRNS_8multimapINS_12basic_stringIcNS_11char_traitsIcEENS_9allocatorIcEEEESB_NS_4lessISB_EENS9_INS_4pairIKSB_SB_EEEEEEENKUlS4_S4_E_clES4_S4_EUlS4_mS4_mE_EEERNS_13tuple_elementIXT_ENS_5tupleIJDpT0_EEEE4typeERSR_, symObjAddr: 0x44660, symBinAddr: 0x100046C18, symSize: 0x24 }
  - { offsetInCU: 0x88B9B, offset: 0x88B9B, size: 0x8, addend: 0x0, symName: __ZNSt3__13getB8ue170006ILm0EJONS_9allocatorIZZN7httplib6detail16parse_query_textEPKcmRNS_8multimapINS_12basic_stringIcNS_11char_traitsIcEENS1_IcEEEESB_NS_4lessISB_EENS1_INS_4pairIKSB_SB_EEEEEEENKUlS5_S5_E_clES5_S5_EUlS5_mS5_mE_EEEEERNS_13tuple_elementIXT_ENS_5tupleIJDpT0_EEEE4typeERSS_, symObjAddr: 0x4469C, symBinAddr: 0x100046C54, symSize: 0x24 }
  - { offsetInCU: 0x890C1, offset: 0x890C1, size: 0x8, addend: 0x0, symName: __ZNSt3__116forward_as_tupleB8ue170006IJRKZZN7httplib6detail16parse_query_textEPKcmRNS_8multimapINS_12basic_stringIcNS_11char_traitsIcEENS_9allocatorIcEEEESB_NS_4lessISB_EENS9_INS_4pairIKSB_SB_EEEEEEENKUlS4_S4_E_clES4_S4_EUlS4_mS4_mE_EEENS_5tupleIJDpOT_EEESR_, symObjAddr: 0x44C38, symBinAddr: 0x1000471F0, symSize: 0x2C }
  - { offsetInCU: 0x8910F, offset: 0x8910F, size: 0x8, addend: 0x0, symName: __ZNSt3__13getB8ue170006ILm0EJRKZZN7httplib6detail16parse_query_textEPKcmRNS_8multimapINS_12basic_stringIcNS_11char_traitsIcEENS_9allocatorIcEEEESB_NS_4lessISB_EENS9_INS_4pairIKSB_SB_EEEEEEENKUlS4_S4_E_clES4_S4_EUlS4_mS4_mE_EEERNS_13tuple_elementIXT_ENS_5tupleIJDpT0_EEEE4typeERSS_, symObjAddr: 0x44E28, symBinAddr: 0x1000473E0, symSize: 0x24 }
  - { offsetInCU: 0x89151, offset: 0x89151, size: 0x8, addend: 0x0, symName: __ZNSt3__116forward_as_tupleB8ue170006IJRKNS_9allocatorIZZN7httplib6detail16parse_query_textEPKcmRNS_8multimapINS_12basic_stringIcNS_11char_traitsIcEENS1_IcEEEESB_NS_4lessISB_EENS1_INS_4pairIKSB_SB_EEEEEEENKUlS5_S5_E_clES5_S5_EUlS5_mS5_mE_EEEEENS_5tupleIJDpOT_EEESS_, symObjAddr: 0x45188, symBinAddr: 0x100047740, symSize: 0x2C }
  - { offsetInCU: 0x8919F, offset: 0x8919F, size: 0x8, addend: 0x0, symName: __ZNSt3__13getB8ue170006ILm0EJRKNS_9allocatorIZZN7httplib6detail16parse_query_textEPKcmRNS_8multimapINS_12basic_stringIcNS_11char_traitsIcEENS1_IcEEEESB_NS_4lessISB_EENS1_INS_4pairIKSB_SB_EEEEEEENKUlS5_S5_E_clES5_S5_EUlS5_mS5_mE_EEEEERNS_13tuple_elementIXT_ENS_5tupleIJDpT0_EEEE4typeERST_, symObjAddr: 0x4536C, symBinAddr: 0x100047924, symSize: 0x24 }
  - { offsetInCU: 0x891E2, offset: 0x891E2, size: 0x8, addend: 0x0, symName: __ZNSt3__18__invokeB8ue170006IRZZN7httplib6detail16parse_query_textEPKcmRNS_8multimapINS_12basic_stringIcNS_11char_traitsIcEENS_9allocatorIcEEEESB_NS_4lessISB_EENS9_INS_4pairIKSB_SB_EEEEEEENKUlS4_S4_E_clES4_S4_EUlS4_mS4_mE_JS4_mS4_mEEEDTclclsr3stdE7declvalIT_EEspclsr3stdE7declvalIT0_EEEEOSN_DpOSO_, symObjAddr: 0x45468, symBinAddr: 0x100047A20, symSize: 0x54 }
  - { offsetInCU: 0x898B2, offset: 0x898B2, size: 0x8, addend: 0x0, symName: __ZNSt3__116forward_as_tupleB8ue170006IJZN7httplib6detail18parse_range_headerERKNS_12basic_stringIcNS_11char_traitsIcEENS_9allocatorIcEEEERNS_6vectorINS_4pairIllEENS6_ISD_EEEEEUlPKcSI_E_EEENS_5tupleIJDpOT_EEESN_, symObjAddr: 0x46758, symBinAddr: 0x100048D10, symSize: 0x2C }
  - { offsetInCU: 0x898EB, offset: 0x898EB, size: 0x8, addend: 0x0, symName: __ZNSt3__116forward_as_tupleB8ue170006IJNS_9allocatorIZN7httplib6detail18parse_range_headerERKNS_12basic_stringIcNS_11char_traitsIcEENS1_IcEEEERNS_6vectorINS_4pairIllEENS1_ISD_EEEEEUlPKcSI_E_EEEEENS_5tupleIJDpOT_EEESO_, symObjAddr: 0x46784, symBinAddr: 0x100048D3C, symSize: 0x2C }
  - { offsetInCU: 0x8994E, offset: 0x8994E, size: 0x8, addend: 0x0, symName: __ZNSt3__13getB8ue170006ILm0EJOZN7httplib6detail18parse_range_headerERKNS_12basic_stringIcNS_11char_traitsIcEENS_9allocatorIcEEEERNS_6vectorINS_4pairIllEENS6_ISD_EEEEEUlPKcSI_E_EEERNS_13tuple_elementIXT_ENS_5tupleIJDpT0_EEEE4typeERSP_, symObjAddr: 0x46AA4, symBinAddr: 0x10004905C, symSize: 0x24 }
  - { offsetInCU: 0x89990, offset: 0x89990, size: 0x8, addend: 0x0, symName: __ZNSt3__13getB8ue170006ILm0EJONS_9allocatorIZN7httplib6detail18parse_range_headerERKNS_12basic_stringIcNS_11char_traitsIcEENS1_IcEEEERNS_6vectorINS_4pairIllEENS1_ISD_EEEEEUlPKcSI_E_EEEEERNS_13tuple_elementIXT_ENS_5tupleIJDpT0_EEEE4typeERSQ_, symObjAddr: 0x46AE0, symBinAddr: 0x100049098, symSize: 0x24 }
  - { offsetInCU: 0x89B5E, offset: 0x89B5E, size: 0x8, addend: 0x0, symName: __ZNSt3__116forward_as_tupleB8ue170006IJRKZN7httplib6detail18parse_range_headerERKNS_12basic_stringIcNS_11char_traitsIcEENS_9allocatorIcEEEERNS_6vectorINS_4pairIllEENS6_ISD_EEEEEUlPKcSI_E_EEENS_5tupleIJDpOT_EEESP_, symObjAddr: 0x46EDC, symBinAddr: 0x100049494, symSize: 0x2C }
  - { offsetInCU: 0x89BAC, offset: 0x89BAC, size: 0x8, addend: 0x0, symName: __ZNSt3__13getB8ue170006ILm0EJRKZN7httplib6detail18parse_range_headerERKNS_12basic_stringIcNS_11char_traitsIcEENS_9allocatorIcEEEERNS_6vectorINS_4pairIllEENS6_ISD_EEEEEUlPKcSI_E_EEERNS_13tuple_elementIXT_ENS_5tupleIJDpT0_EEEE4typeERSQ_, symObjAddr: 0x470D4, symBinAddr: 0x10004968C, symSize: 0x24 }
  - { offsetInCU: 0x89BEE, offset: 0x89BEE, size: 0x8, addend: 0x0, symName: __ZNSt3__116forward_as_tupleB8ue170006IJRKNS_9allocatorIZN7httplib6detail18parse_range_headerERKNS_12basic_stringIcNS_11char_traitsIcEENS1_IcEEEERNS_6vectorINS_4pairIllEENS1_ISD_EEEEEUlPKcSI_E_EEEEENS_5tupleIJDpOT_EEESQ_, symObjAddr: 0x47430, symBinAddr: 0x1000499E8, symSize: 0x2C }
  - { offsetInCU: 0x89C3C, offset: 0x89C3C, size: 0x8, addend: 0x0, symName: __ZNSt3__13getB8ue170006ILm0EJRKNS_9allocatorIZN7httplib6detail18parse_range_headerERKNS_12basic_stringIcNS_11char_traitsIcEENS1_IcEEEERNS_6vectorINS_4pairIllEENS1_ISD_EEEEEUlPKcSI_E_EEEEERNS_13tuple_elementIXT_ENS_5tupleIJDpT0_EEEE4typeERSR_, symObjAddr: 0x47614, symBinAddr: 0x100049BCC, symSize: 0x24 }
  - { offsetInCU: 0x89C7F, offset: 0x89C7F, size: 0x8, addend: 0x0, symName: __ZNSt3__18__invokeB8ue170006IRZN7httplib6detail18parse_range_headerERKNS_12basic_stringIcNS_11char_traitsIcEENS_9allocatorIcEEEERNS_6vectorINS_4pairIllEENS6_ISD_EEEEEUlPKcSI_E_JSI_SI_EEEDTclclsr3stdE7declvalIT_EEspclsr3stdE7declvalIT0_EEEEOSL_DpOSM_, symObjAddr: 0x476F0, symBinAddr: 0x100049CA8, symSize: 0x3C }
  - { offsetInCU: 0x89CE0, offset: 0x89CE0, size: 0x8, addend: 0x0, symName: __ZNSt3__16all_ofB8ue170006INS_11__wrap_iterIPKcEEZZN7httplib6detail18parse_range_headerERKNS_12basic_stringIcNS_11char_traitsIcEENS_9allocatorIcEEEERNS_6vectorINS_4pairIllEENSA_ISH_EEEEENKUlSE_E_clESE_EUlhE_EEbT_SN_T0_, symObjAddr: 0x47A74, symBinAddr: 0x10004A02C, symSize: 0x9C }
  - { offsetInCU: 0x89D3A, offset: 0x89D3A, size: 0x8, addend: 0x0, symName: __ZNSt3__119__allocate_at_leastB8ue170006INS_9allocatorINS_4pairIllEEEEEENS_19__allocation_resultINS_16allocator_traitsIT_E7pointerEEERS7_m, symObjAddr: 0x48370, symBinAddr: 0x10004A928, symSize: 0x40 }
  - { offsetInCU: 0x89D7D, offset: 0x89D7D, size: 0x8, addend: 0x0, symName: __ZNSt3__142__uninitialized_allocator_move_if_noexceptB8ue170006INS_9allocatorINS_4pairIllEEEENS_16reverse_iteratorIPS3_EES7_S7_EET2_RT_T0_T1_S8_, symObjAddr: 0x48524, symBinAddr: 0x10004AADC, symSize: 0x12C }
  - { offsetInCU: 0x89E1F, offset: 0x89E1F, size: 0x8, addend: 0x0, symName: __ZNSt3__14swapB8ue170006IPNS_4pairIllEEEENS_9enable_ifIXaasr21is_move_constructibleIT_EE5valuesr18is_move_assignableIS5_EE5valueEvE4typeERS5_S8_, symObjAddr: 0x4869C, symBinAddr: 0x10004AC54, symSize: 0x3C }
  - { offsetInCU: 0x89E71, offset: 0x89E71, size: 0x8, addend: 0x0, symName: __ZNSt3__122__make_exception_guardB8ue170006INS_29_AllocatorDestroyRangeReverseINS_9allocatorINS_4pairIllEEEENS_16reverse_iteratorIPS4_EEEEEENS_28__exception_guard_exceptionsIT_EESB_, symObjAddr: 0x48784, symBinAddr: 0x10004AD3C, symSize: 0x4C }
  - { offsetInCU: 0x89EA7, offset: 0x89EA7, size: 0x8, addend: 0x0, symName: __ZNSt3__1neB8ue170006IPNS_4pairIllEES3_EEbRKNS_16reverse_iteratorIT_EERKNS4_IT0_EE, symObjAddr: 0x48814, symBinAddr: 0x10004ADCC, symSize: 0x48 }
  - { offsetInCU: 0x89EF3, offset: 0x89EF3, size: 0x8, addend: 0x0, symName: __ZNSt3__112__to_addressB8ue170006INS_16reverse_iteratorIPNS_4pairIllEEEEvEEu7__decayIDTclsr19__to_address_helperIT_EE6__callclsr3stdE7declvalIRKS6_EEEEES8_, symObjAddr: 0x48890, symBinAddr: 0x10004AE48, symSize: 0x24 }
  - { offsetInCU: 0x89F54, offset: 0x89F54, size: 0x8, addend: 0x0, symName: __ZNSt3__119__allocator_destroyB8ue170006INS_9allocatorINS_4pairIllEEEENS_16reverse_iteratorINS5_IPS3_EEEES8_EEvRT_T0_T1_, symObjAddr: 0x48B68, symBinAddr: 0x10004B120, symSize: 0x70 }
  - { offsetInCU: 0x89FB9, offset: 0x89FB9, size: 0x8, addend: 0x0, symName: __ZNSt3__1neB8ue170006INS_16reverse_iteratorIPNS_4pairIllEEEES5_EEbRKNS1_IT_EERKNS1_IT0_EE, symObjAddr: 0x48C14, symBinAddr: 0x10004B1CC, symSize: 0x60 }
  - { offsetInCU: 0x8A005, offset: 0x8A005, size: 0x8, addend: 0x0, symName: __ZNSt3__112__to_addressB8ue170006INS_16reverse_iteratorINS1_IPNS_4pairIllEEEEEEvEEu7__decayIDTclsr19__to_address_helperIT_EE6__callclsr3stdE7declvalIRKS7_EEEEES9_, symObjAddr: 0x48C74, symBinAddr: 0x10004B22C, symSize: 0x24 }
  - { offsetInCU: 0x8A065, offset: 0x8A065, size: 0x8, addend: 0x0, symName: __ZNSt3__1neB8ue170006IPN7httplib6Server15MountPointEntryEEEbRKNS_11__wrap_iterIT_EES9_, symObjAddr: 0x49DF0, symBinAddr: 0x10004C3A8, symSize: 0x34 }
  - { offsetInCU: 0x8A0A8, offset: 0x8A0A8, size: 0x8, addend: 0x0, symName: __ZNSt3__1plB8ue170006IcNS_11char_traitsIcEENS_9allocatorIcEEEENS_12basic_stringIT_T0_T1_EERKS9_SB_, symObjAddr: 0x4A1B4, symBinAddr: 0x10004C76C, symSize: 0x134 }
  - { offsetInCU: 0x8A14D, offset: 0x8A14D, size: 0x8, addend: 0x0, symName: __ZNSt3__111make_sharedB8ue170006IN7httplib6detail4mmapEJPKcEvEENS_10shared_ptrIT_EEDpOT0_, symObjAddr: 0x4A394, symBinAddr: 0x10004C94C, symSize: 0x40 }
  - { offsetInCU: 0x8A190, offset: 0x8A190, size: 0x8, addend: 0x0, symName: __ZNSt3__1eqB8ue170006IPN7httplib6Server15MountPointEntryEEEbRKNS_11__wrap_iterIT_EES9_, symObjAddr: 0x4B1BC, symBinAddr: 0x10004D774, symSize: 0x48 }
  - { offsetInCU: 0x8A1D3, offset: 0x8A1D3, size: 0x8, addend: 0x0, symName: __ZNSt3__115allocate_sharedB8ue170006IN7httplib6detail4mmapENS_9allocatorIS3_EEJPKcEvEENS_10shared_ptrIT_EERKT0_DpOT1_, symObjAddr: 0x4B21C, symBinAddr: 0x10004D7D4, symSize: 0x98 }
  - { offsetInCU: 0x8A580, offset: 0x8A580, size: 0x8, addend: 0x0, symName: __ZNSt3__112regex_searchB8ue170006INS_11char_traitsIcEENS_9allocatorIcEENS3_INS_9sub_matchINS_11__wrap_iterIPKcEEEEEEcNS_12regex_traitsIcEEEEbRKNS_12basic_stringIT2_T_T0_EERNS_13match_resultsINSI_14const_iteratorET1_EERKNS_11basic_regexISF_T3_EENS_15regex_constants15match_flag_typeE, symObjAddr: 0x4C39C, symBinAddr: 0x10004E954, symSize: 0x128 }
  - { offsetInCU: 0x8A62A, offset: 0x8A62A, size: 0x8, addend: 0x0, symName: __ZNSt3__19use_facetB8ue170006INS_5ctypeIcEEEERKT_RKNS_6localeE, symObjAddr: 0x4C88C, symBinAddr: 0x10004EE44, symSize: 0x2C }
  - { offsetInCU: 0x8A65F, offset: 0x8A65F, size: 0x8, addend: 0x0, symName: __ZNSt3__19use_facetB8ue170006INS_7collateIcEEEERKT_RKNS_6localeE, symObjAddr: 0x4C8B8, symBinAddr: 0x10004EE70, symSize: 0x2C }
  - { offsetInCU: 0x8A695, offset: 0x8A695, size: 0x8, addend: 0x0, symName: __ZNSt3__119__throw_regex_errorB8ue170006ILNS_15regex_constants10error_typeE17EEEvv, symObjAddr: 0x4CB70, symBinAddr: 0x10004F128, symSize: 0x60 }
  - { offsetInCU: 0x8AB27, offset: 0x8AB27, size: 0x8, addend: 0x0, symName: __ZNSt3__119__throw_regex_errorB8ue170006ILNS_15regex_constants10error_typeE14EEEvv, symObjAddr: 0x4D3EC, symBinAddr: 0x10004F9A4, symSize: 0x60 }
  - { offsetInCU: 0x8B6F2, offset: 0x8B6F2, size: 0x8, addend: 0x0, symName: __ZNSt3__14swapB8ue170006IPNS_13__empty_stateIcEEEENS_9enable_ifIXaasr21is_move_constructibleIT_EE5valuesr18is_move_assignableIS5_EE5valueEvE4typeERS5_S8_, symObjAddr: 0x4E1C0, symBinAddr: 0x100050778, symSize: 0x3C }
  - { offsetInCU: 0x8B744, offset: 0x8B744, size: 0x8, addend: 0x0, symName: __ZNSt3__14swapB8ue170006IPNS_19__shared_weak_countEEENS_9enable_ifIXaasr21is_move_constructibleIT_EE5valuesr18is_move_assignableIS4_EE5valueEvE4typeERS4_S7_, symObjAddr: 0x4E1FC, symBinAddr: 0x1000507B4, symSize: 0x3C }
  - { offsetInCU: 0x8B796, offset: 0x8B796, size: 0x8, addend: 0x0, symName: __ZNSt3__14nextB8ue170006IPKcEENS_9enable_ifIXsr29__has_input_iterator_categoryIT_EE5valueES4_E4typeES4_NS_15iterator_traitsIS4_E15difference_typeE, symObjAddr: 0x4F98C, symBinAddr: 0x100051F44, symSize: 0x34 }
  - { offsetInCU: 0x8B7DA, offset: 0x8B7DA, size: 0x8, addend: 0x0, symName: __ZNSt3__119__throw_regex_errorB8ue170006ILNS_15regex_constants10error_typeE6EEEvv, symObjAddr: 0x4FB80, symBinAddr: 0x100052138, symSize: 0x60 }
  - { offsetInCU: 0x8B885, offset: 0x8B885, size: 0x8, addend: 0x0, symName: __ZNSt3__18__is_eolB8ue170006IcEEbT_, symObjAddr: 0x4FED4, symBinAddr: 0x10005248C, symSize: 0x48 }
  - { offsetInCU: 0x8B8BC, offset: 0x8B8BC, size: 0x8, addend: 0x0, symName: __ZNSt3__14prevB8ue170006IPKcEENS_9enable_ifIXsr29__has_input_iterator_categoryIT_EE5valueES4_E4typeES4_NS_15iterator_traitsIS4_E15difference_typeE, symObjAddr: 0x4FF1C, symBinAddr: 0x1000524D4, symSize: 0x3C }
  - { offsetInCU: 0x8B900, offset: 0x8B900, size: 0x8, addend: 0x0, symName: __ZNSt3__19__advanceB8ue170006IPKcEEvRT_NS_15iterator_traitsIS3_E15difference_typeENS_26random_access_iterator_tagE, symObjAddr: 0x4FF90, symBinAddr: 0x100052548, symSize: 0x28 }
  - { offsetInCU: 0x8BB51, offset: 0x8BB51, size: 0x8, addend: 0x0, symName: __ZNSt3__134__libcpp_atomic_refcount_incrementB8ue170006IlEET_RS1_, symObjAddr: 0x50D58, symBinAddr: 0x100053310, symSize: 0x30 }
  - { offsetInCU: 0x8BE6D, offset: 0x8BE6D, size: 0x8, addend: 0x0, symName: __ZNSt3__112__to_addressB8ue170006INS_9sub_matchIPKcEEEEPT_S6_, symObjAddr: 0x51C10, symBinAddr: 0x1000541C8, symSize: 0x14 }
  - { offsetInCU: 0x8BEA2, offset: 0x8BEA2, size: 0x8, addend: 0x0, symName: __ZNSt3__16fill_nB8ue170006IPNS_9sub_matchIPKcEEmS4_EET_S6_T0_RKT1_, symObjAddr: 0x51E94, symBinAddr: 0x10005444C, symSize: 0x44 }
  - { offsetInCU: 0x8BF05, offset: 0x8BF05, size: 0x8, addend: 0x0, symName: __ZNSt3__18__fill_nB8ue170006IPNS_9sub_matchIPKcEEmS4_EET_S6_T0_RKT1_, symObjAddr: 0x521F0, symBinAddr: 0x1000547A8, symSize: 0x6C }
  - { offsetInCU: 0x8BF68, offset: 0x8BF68, size: 0x8, addend: 0x0, symName: __ZNSt3__119__allocate_at_leastB8ue170006INS_9allocatorINS_9sub_matchIPKcEEEEEENS_19__allocation_resultINS_16allocator_traitsIT_E7pointerEEERS9_m, symObjAddr: 0x52584, symBinAddr: 0x100054B3C, symSize: 0x40 }
  - { offsetInCU: 0x8BFAC, offset: 0x8BFAC, size: 0x8, addend: 0x0, symName: __ZNSt3__119__throw_regex_errorB8ue170006ILNS_15regex_constants10error_typeE12EEEvv, symObjAddr: 0x529E0, symBinAddr: 0x100054F98, symSize: 0x60 }
  - { offsetInCU: 0x8BFD2, offset: 0x8BFD2, size: 0x8, addend: 0x0, symName: __ZNSt3__119__throw_regex_errorB8ue170006ILNS_15regex_constants10error_typeE16EEEvv, symObjAddr: 0x52AA0, symBinAddr: 0x100055058, symSize: 0x60 }
  - { offsetInCU: 0x8BFF7, offset: 0x8BFF7, size: 0x8, addend: 0x0, symName: __ZNSt3__112__to_addressB8ue170006INS_7__stateIcEEEEPT_S4_, symObjAddr: 0x52F04, symBinAddr: 0x1000554BC, symSize: 0x14 }
  - { offsetInCU: 0x8C02C, offset: 0x8C02C, size: 0x8, addend: 0x0, symName: __ZNSt3__119__allocate_at_leastB8ue170006INS_9allocatorINS_7__stateIcEEEEEENS_19__allocation_resultINS_16allocator_traitsIT_E7pointerEEERS7_m, symObjAddr: 0x539F0, symBinAddr: 0x100055FA8, symSize: 0x40 }
  - { offsetInCU: 0x8C06F, offset: 0x8C06F, size: 0x8, addend: 0x0, symName: __ZNSt3__142__uninitialized_allocator_move_if_noexceptB8ue170006INS_9allocatorINS_7__stateIcEEEENS_16reverse_iteratorIPS3_EES7_S7_EET2_RT_T0_T1_S8_, symObjAddr: 0x53C7C, symBinAddr: 0x100056234, symSize: 0x12C }
  - { offsetInCU: 0x8C111, offset: 0x8C111, size: 0x8, addend: 0x0, symName: __ZNSt3__14swapB8ue170006IPNS_7__stateIcEEEENS_9enable_ifIXaasr21is_move_constructibleIT_EE5valuesr18is_move_assignableIS5_EE5valueEvE4typeERS5_S8_, symObjAddr: 0x53DF4, symBinAddr: 0x1000563AC, symSize: 0x3C }
  - { offsetInCU: 0x8C163, offset: 0x8C163, size: 0x8, addend: 0x0, symName: __ZNSt3__122__make_exception_guardB8ue170006INS_29_AllocatorDestroyRangeReverseINS_9allocatorINS_7__stateIcEEEENS_16reverse_iteratorIPS4_EEEEEENS_28__exception_guard_exceptionsIT_EESB_, symObjAddr: 0x53F40, symBinAddr: 0x1000564F8, symSize: 0x4C }
  - { offsetInCU: 0x8C199, offset: 0x8C199, size: 0x8, addend: 0x0, symName: __ZNSt3__1neB8ue170006IPNS_7__stateIcEES3_EEbRKNS_16reverse_iteratorIT_EERKNS4_IT0_EE, symObjAddr: 0x53FD0, symBinAddr: 0x100056588, symSize: 0x48 }
  - { offsetInCU: 0x8C1E5, offset: 0x8C1E5, size: 0x8, addend: 0x0, symName: __ZNSt3__112__to_addressB8ue170006INS_16reverse_iteratorIPNS_7__stateIcEEEEvEEu7__decayIDTclsr19__to_address_helperIT_EE6__callclsr3stdE7declvalIRKS6_EEEEES8_, symObjAddr: 0x54018, symBinAddr: 0x1000565D0, symSize: 0x24 }
  - { offsetInCU: 0x8C246, offset: 0x8C246, size: 0x8, addend: 0x0, symName: __ZNSt3__119__allocator_destroyB8ue170006INS_9allocatorINS_7__stateIcEEEENS_16reverse_iteratorINS5_IPS3_EEEES8_EEvRT_T0_T1_, symObjAddr: 0x542C8, symBinAddr: 0x100056880, symSize: 0x70 }
  - { offsetInCU: 0x8C2AB, offset: 0x8C2AB, size: 0x8, addend: 0x0, symName: __ZNSt3__1neB8ue170006INS_16reverse_iteratorIPNS_7__stateIcEEEES5_EEbRKNS1_IT_EERKNS1_IT0_EE, symObjAddr: 0x54374, symBinAddr: 0x10005692C, symSize: 0x60 }
  - { offsetInCU: 0x8C2F7, offset: 0x8C2F7, size: 0x8, addend: 0x0, symName: __ZNSt3__112__to_addressB8ue170006INS_16reverse_iteratorINS1_IPNS_7__stateIcEEEEEEvEEu7__decayIDTclsr19__to_address_helperIT_EE6__callclsr3stdE7declvalIRKS7_EEEEES9_, symObjAddr: 0x54400, symBinAddr: 0x1000569B8, symSize: 0x24 }
  - { offsetInCU: 0x8C357, offset: 0x8C357, size: 0x8, addend: 0x0, symName: __ZNSt3__112__to_addressB8ue170006INS_4pairImPKcEEEEPT_S6_, symObjAddr: 0x54E78, symBinAddr: 0x100057430, symSize: 0x14 }
  - { offsetInCU: 0x8C38C, offset: 0x8C38C, size: 0x8, addend: 0x0, symName: __ZNSt3__142__uninitialized_allocator_move_if_noexceptB8ue170006INS_9allocatorINS_9sub_matchIPKcEEEENS_16reverse_iteratorIPS5_EES9_S9_EET2_RT_T0_T1_SA_, symObjAddr: 0x5560C, symBinAddr: 0x100057BC4, symSize: 0x12C }
  - { offsetInCU: 0x8C42E, offset: 0x8C42E, size: 0x8, addend: 0x0, symName: __ZNSt3__14swapB8ue170006IPNS_9sub_matchIPKcEEEENS_9enable_ifIXaasr21is_move_constructibleIT_EE5valuesr18is_move_assignableIS7_EE5valueEvE4typeERS7_SA_, symObjAddr: 0x55784, symBinAddr: 0x100057D3C, symSize: 0x3C }
  - { offsetInCU: 0x8C480, offset: 0x8C480, size: 0x8, addend: 0x0, symName: __ZNSt3__122__make_exception_guardB8ue170006INS_29_AllocatorDestroyRangeReverseINS_9allocatorINS_9sub_matchIPKcEEEENS_16reverse_iteratorIPS6_EEEEEENS_28__exception_guard_exceptionsIT_EESD_, symObjAddr: 0x557C0, symBinAddr: 0x100057D78, symSize: 0x4C }
  - { offsetInCU: 0x8C4B6, offset: 0x8C4B6, size: 0x8, addend: 0x0, symName: __ZNSt3__1neB8ue170006IPNS_9sub_matchIPKcEES5_EEbRKNS_16reverse_iteratorIT_EERKNS6_IT0_EE, symObjAddr: 0x55850, symBinAddr: 0x100057E08, symSize: 0x48 }
  - { offsetInCU: 0x8C502, offset: 0x8C502, size: 0x8, addend: 0x0, symName: __ZNSt3__112__to_addressB8ue170006INS_16reverse_iteratorIPNS_9sub_matchIPKcEEEEvEEu7__decayIDTclsr19__to_address_helperIT_EE6__callclsr3stdE7declvalIRKS8_EEEEESA_, symObjAddr: 0x558CC, symBinAddr: 0x100057E84, symSize: 0x24 }
  - { offsetInCU: 0x8C563, offset: 0x8C563, size: 0x8, addend: 0x0, symName: __ZNSt3__119__allocator_destroyB8ue170006INS_9allocatorINS_9sub_matchIPKcEEEENS_16reverse_iteratorINS7_IPS5_EEEESA_EEvRT_T0_T1_, symObjAddr: 0x55BAC, symBinAddr: 0x100058164, symSize: 0x70 }
  - { offsetInCU: 0x8C5C8, offset: 0x8C5C8, size: 0x8, addend: 0x0, symName: __ZNSt3__1neB8ue170006INS_16reverse_iteratorIPNS_9sub_matchIPKcEEEES7_EEbRKNS1_IT_EERKNS1_IT0_EE, symObjAddr: 0x55C58, symBinAddr: 0x100058210, symSize: 0x60 }
  - { offsetInCU: 0x8C614, offset: 0x8C614, size: 0x8, addend: 0x0, symName: __ZNSt3__112__to_addressB8ue170006INS_16reverse_iteratorINS1_IPNS_9sub_matchIPKcEEEEEEvEEu7__decayIDTclsr19__to_address_helperIT_EE6__callclsr3stdE7declvalIRKS9_EEEEESB_, symObjAddr: 0x55CB8, symBinAddr: 0x100058270, symSize: 0x24 }
  - { offsetInCU: 0x8C674, offset: 0x8C674, size: 0x8, addend: 0x0, symName: __ZNSt3__119__allocate_at_leastB8ue170006INS_9allocatorINS_4pairImPKcEEEEEENS_19__allocation_resultINS_16allocator_traitsIT_E7pointerEEERS9_m, symObjAddr: 0x568B0, symBinAddr: 0x100058E68, symSize: 0x40 }
  - { offsetInCU: 0x8C6B7, offset: 0x8C6B7, size: 0x8, addend: 0x0, symName: __ZNSt3__142__uninitialized_allocator_move_if_noexceptB8ue170006INS_9allocatorINS_4pairImPKcEEEENS_16reverse_iteratorIPS5_EES9_S9_EET2_RT_T0_T1_SA_, symObjAddr: 0x56B30, symBinAddr: 0x1000590E8, symSize: 0x12C }
  - { offsetInCU: 0x8C759, offset: 0x8C759, size: 0x8, addend: 0x0, symName: __ZNSt3__14swapB8ue170006IPNS_4pairImPKcEEEENS_9enable_ifIXaasr21is_move_constructibleIT_EE5valuesr18is_move_assignableIS7_EE5valueEvE4typeERS7_SA_, symObjAddr: 0x56CA8, symBinAddr: 0x100059260, symSize: 0x3C }
  - { offsetInCU: 0x8C7AB, offset: 0x8C7AB, size: 0x8, addend: 0x0, symName: __ZNSt3__122__make_exception_guardB8ue170006INS_29_AllocatorDestroyRangeReverseINS_9allocatorINS_4pairImPKcEEEENS_16reverse_iteratorIPS6_EEEEEENS_28__exception_guard_exceptionsIT_EESD_, symObjAddr: 0x56D90, symBinAddr: 0x100059348, symSize: 0x4C }
  - { offsetInCU: 0x8C7E1, offset: 0x8C7E1, size: 0x8, addend: 0x0, symName: __ZNSt3__1neB8ue170006IPNS_4pairImPKcEES5_EEbRKNS_16reverse_iteratorIT_EERKNS6_IT0_EE, symObjAddr: 0x56E20, symBinAddr: 0x1000593D8, symSize: 0x48 }
  - { offsetInCU: 0x8C82D, offset: 0x8C82D, size: 0x8, addend: 0x0, symName: __ZNSt3__112__to_addressB8ue170006INS_16reverse_iteratorIPNS_4pairImPKcEEEEvEEu7__decayIDTclsr19__to_address_helperIT_EE6__callclsr3stdE7declvalIRKS8_EEEEESA_, symObjAddr: 0x56E9C, symBinAddr: 0x100059454, symSize: 0x24 }
  - { offsetInCU: 0x8C88E, offset: 0x8C88E, size: 0x8, addend: 0x0, symName: __ZNSt3__119__allocator_destroyB8ue170006INS_9allocatorINS_4pairImPKcEEEENS_16reverse_iteratorINS7_IPS5_EEEESA_EEvRT_T0_T1_, symObjAddr: 0x57174, symBinAddr: 0x10005972C, symSize: 0x70 }
  - { offsetInCU: 0x8C8F3, offset: 0x8C8F3, size: 0x8, addend: 0x0, symName: __ZNSt3__1neB8ue170006INS_16reverse_iteratorIPNS_4pairImPKcEEEES7_EEbRKNS1_IT_EERKNS1_IT0_EE, symObjAddr: 0x57220, symBinAddr: 0x1000597D8, symSize: 0x60 }
  - { offsetInCU: 0x8C93F, offset: 0x8C93F, size: 0x8, addend: 0x0, symName: __ZNSt3__112__to_addressB8ue170006INS_16reverse_iteratorINS1_IPNS_4pairImPKcEEEEEEvEEu7__decayIDTclsr19__to_address_helperIT_EE6__callclsr3stdE7declvalIRKS9_EEEEESB_, symObjAddr: 0x57280, symBinAddr: 0x100059838, symSize: 0x24 }
  - { offsetInCU: 0x8C99F, offset: 0x8C99F, size: 0x8, addend: 0x0, symName: __ZNSt3__122__make_exception_guardB8ue170006INS_6vectorINS_9sub_matchIPKcEENS_9allocatorIS5_EEE16__destroy_vectorEEENS_28__exception_guard_exceptionsIT_EESB_, symObjAddr: 0x57AAC, symBinAddr: 0x10005A064, symSize: 0x40 }
  - { offsetInCU: 0x8C9D4, offset: 0x8C9D4, size: 0x8, addend: 0x0, symName: __ZNSt3__130__uninitialized_allocator_copyB8ue170006INS_9allocatorINS_9sub_matchIPKcEEEEPS5_S7_S7_EET2_RT_T0_T1_S8_, symObjAddr: 0x57C18, symBinAddr: 0x10005A1D0, symSize: 0x80 }
  - { offsetInCU: 0x8CA73, offset: 0x8CA73, size: 0x8, addend: 0x0, symName: __ZNSt3__114__unwrap_rangeB8ue170006IPNS_9sub_matchIPKcEES5_EENS_4pairIT0_S7_EET_S9_, symObjAddr: 0x57C98, symBinAddr: 0x10005A250, symSize: 0x60 }
  - { offsetInCU: 0x8CABF, offset: 0x8CABF, size: 0x8, addend: 0x0, symName: __ZNSt3__135__uninitialized_allocator_copy_implB8ue170006INS_9allocatorINS_9sub_matchIPKcEEEEPS5_S7_S7_EET2_RT_T0_T1_S8_, symObjAddr: 0x57CF8, symBinAddr: 0x10005A2B0, symSize: 0xF4 }
  - { offsetInCU: 0x8CB5F, offset: 0x8CB5F, size: 0x8, addend: 0x0, symName: __ZNSt3__113__unwrap_iterB8ue170006IPNS_9sub_matchIPKcEENS_18__unwrap_iter_implIS5_Lb1EEELi0EEEDTclsrT0_8__unwrapclsr3stdE7declvalIT_EEEES9_, symObjAddr: 0x57DEC, symBinAddr: 0x10005A3A4, symSize: 0x24 }
  - { offsetInCU: 0x8CBA3, offset: 0x8CBA3, size: 0x8, addend: 0x0, symName: __ZNSt3__113__rewrap_iterB8ue170006IPNS_9sub_matchIPKcEES5_NS_18__unwrap_iter_implIS5_Lb1EEEEET_S8_T0_, symObjAddr: 0x57E10, symBinAddr: 0x10005A3C8, symSize: 0x3C }
  - { offsetInCU: 0x8CBF8, offset: 0x8CBF8, size: 0x8, addend: 0x0, symName: __ZNSt3__19make_pairB8ue170006IPNS_9sub_matchIPKcEES5_EENS_4pairINS_18__unwrap_ref_decayIT_E4typeENS7_IT0_E4typeEEEOS8_OSB_, symObjAddr: 0x57E4C, symBinAddr: 0x10005A404, symSize: 0x38 }
  - { offsetInCU: 0x8CD1B, offset: 0x8CD1B, size: 0x8, addend: 0x0, symName: __ZNSt3__122__make_exception_guardB8ue170006INS_29_AllocatorDestroyRangeReverseINS_9allocatorINS_9sub_matchIPKcEEEEPS6_EEEENS_28__exception_guard_exceptionsIT_EESB_, symObjAddr: 0x57EF4, symBinAddr: 0x10005A4AC, symSize: 0x4C }
  - { offsetInCU: 0x8CD52, offset: 0x8CD52, size: 0x8, addend: 0x0, symName: __ZNSt3__119__allocator_destroyB8ue170006INS_9allocatorINS_9sub_matchIPKcEEEENS_16reverse_iteratorIPS5_EES9_EEvRT_T0_T1_, symObjAddr: 0x58184, symBinAddr: 0x10005A73C, symSize: 0x70 }
  - { offsetInCU: 0x8CE08, offset: 0x8CE08, size: 0x8, addend: 0x0, symName: __ZNSt3__122__make_exception_guardB8ue170006INS_6vectorINS_4pairImPKcEENS_9allocatorIS5_EEE16__destroy_vectorEEENS_28__exception_guard_exceptionsIT_EESB_, symObjAddr: 0x58414, symBinAddr: 0x10005A9CC, symSize: 0x40 }
  - { offsetInCU: 0x8CE3D, offset: 0x8CE3D, size: 0x8, addend: 0x0, symName: __ZNSt3__130__uninitialized_allocator_copyB8ue170006INS_9allocatorINS_4pairImPKcEEEEPS5_S7_S7_EET2_RT_T0_T1_S8_, symObjAddr: 0x5862C, symBinAddr: 0x10005ABE4, symSize: 0x80 }
  - { offsetInCU: 0x8CEDC, offset: 0x8CEDC, size: 0x8, addend: 0x0, symName: __ZNSt3__114__unwrap_rangeB8ue170006IPNS_4pairImPKcEES5_EENS1_IT0_S6_EET_S8_, symObjAddr: 0x586AC, symBinAddr: 0x10005AC64, symSize: 0x60 }
  - { offsetInCU: 0x8CF28, offset: 0x8CF28, size: 0x8, addend: 0x0, symName: __ZNSt3__135__uninitialized_allocator_copy_implB8ue170006INS_9allocatorINS_4pairImPKcEEEEPS5_S7_S7_EET2_RT_T0_T1_S8_, symObjAddr: 0x5870C, symBinAddr: 0x10005ACC4, symSize: 0xF4 }
  - { offsetInCU: 0x8CFC8, offset: 0x8CFC8, size: 0x8, addend: 0x0, symName: __ZNSt3__113__unwrap_iterB8ue170006IPNS_4pairImPKcEENS_18__unwrap_iter_implIS5_Lb1EEELi0EEEDTclsrT0_8__unwrapclsr3stdE7declvalIT_EEEES9_, symObjAddr: 0x58800, symBinAddr: 0x10005ADB8, symSize: 0x24 }
  - { offsetInCU: 0x8D00C, offset: 0x8D00C, size: 0x8, addend: 0x0, symName: __ZNSt3__113__rewrap_iterB8ue170006IPNS_4pairImPKcEES5_NS_18__unwrap_iter_implIS5_Lb1EEEEET_S8_T0_, symObjAddr: 0x58824, symBinAddr: 0x10005ADDC, symSize: 0x3C }
  - { offsetInCU: 0x8D061, offset: 0x8D061, size: 0x8, addend: 0x0, symName: __ZNSt3__19make_pairB8ue170006IPNS_4pairImPKcEES5_EENS1_INS_18__unwrap_ref_decayIT_E4typeENS6_IT0_E4typeEEEOS7_OSA_, symObjAddr: 0x58860, symBinAddr: 0x10005AE18, symSize: 0x38 }
  - { offsetInCU: 0x8D184, offset: 0x8D184, size: 0x8, addend: 0x0, symName: __ZNSt3__122__make_exception_guardB8ue170006INS_29_AllocatorDestroyRangeReverseINS_9allocatorINS_4pairImPKcEEEEPS6_EEEENS_28__exception_guard_exceptionsIT_EESB_, symObjAddr: 0x58908, symBinAddr: 0x10005AEC0, symSize: 0x4C }
  - { offsetInCU: 0x8D1BB, offset: 0x8D1BB, size: 0x8, addend: 0x0, symName: __ZNSt3__119__allocator_destroyB8ue170006INS_9allocatorINS_4pairImPKcEEEENS_16reverse_iteratorIPS5_EES9_EEvRT_T0_T1_, symObjAddr: 0x58B90, symBinAddr: 0x10005B148, symSize: 0x70 }
  - { offsetInCU: 0x8D272, offset: 0x8D272, size: 0x8, addend: 0x0, symName: __ZNSt3__119__throw_regex_errorB8ue170006ILNS_15regex_constants10error_typeE11EEEvv, symObjAddr: 0x593D8, symBinAddr: 0x10005B990, symSize: 0x60 }
  - { offsetInCU: 0x8D30C, offset: 0x8D30C, size: 0x8, addend: 0x0, symName: __ZNSt3__119__throw_regex_errorB8ue170006ILNS_15regex_constants10error_typeE3EEEvv, symObjAddr: 0x59750, symBinAddr: 0x10005BD08, symSize: 0x60 }
  - { offsetInCU: 0x8D332, offset: 0x8D332, size: 0x8, addend: 0x0, symName: __ZNSt3__119__throw_regex_errorB8ue170006ILNS_15regex_constants10error_typeE4EEEvv, symObjAddr: 0x5A4F4, symBinAddr: 0x10005CAAC, symSize: 0x60 }
  - { offsetInCU: 0x8D771, offset: 0x8D771, size: 0x8, addend: 0x0, symName: __ZNSt3__15equalB8ue170006IPKcS2_EEbT_S3_T0_, symObjAddr: 0x5B670, symBinAddr: 0x10005DC28, symSize: 0x38 }
  - { offsetInCU: 0x8D7CB, offset: 0x8D7CB, size: 0x8, addend: 0x0, symName: __ZNSt3__15equalB8ue170006IPKcS2_NS_10__equal_toEEEbT_S4_T0_T1_, symObjAddr: 0x5B6A8, symBinAddr: 0x10005DC60, symSize: 0x5C }
  - { offsetInCU: 0x8D83C, offset: 0x8D83C, size: 0x8, addend: 0x0, symName: __ZNSt3__117__equal_iter_implB8ue170006IKcS1_NS_10__equal_toELi0EEEbPT_S4_PT0_RT1_, symObjAddr: 0x5B704, symBinAddr: 0x10005DCBC, symSize: 0x44 }
  - { offsetInCU: 0x8D8AF, offset: 0x8D8AF, size: 0x8, addend: 0x0, symName: __ZNSt3__124__constexpr_memcmp_equalB8ue170006IccEEbPKT_PKT0_NS_15__element_countE, symObjAddr: 0x5B748, symBinAddr: 0x10005DD00, symSize: 0x4C }
  - { offsetInCU: 0x8D918, offset: 0x8D918, size: 0x8, addend: 0x0, symName: __ZNSt3__112__to_addressB8ue170006INS_12basic_stringIcNS_11char_traitsIcEENS_9allocatorIcEEEEEEPT_S8_, symObjAddr: 0x5CE18, symBinAddr: 0x10005F3D0, symSize: 0x14 }
  - { offsetInCU: 0x8D94D, offset: 0x8D94D, size: 0x8, addend: 0x0, symName: __ZNSt3__112__to_addressB8ue170006INS_4pairIccEEEEPT_S4_, symObjAddr: 0x5D2FC, symBinAddr: 0x10005F8B4, symSize: 0x14 }
  - { offsetInCU: 0x8D982, offset: 0x8D982, size: 0x8, addend: 0x0, symName: __ZNSt3__112__to_addressB8ue170006INS_4pairINS_12basic_stringIcNS_11char_traitsIcEENS_9allocatorIcEEEES7_EEEEPT_SA_, symObjAddr: 0x5D7E4, symBinAddr: 0x10005FD9C, symSize: 0x14 }
  - { offsetInCU: 0x8D9B7, offset: 0x8D9B7, size: 0x8, addend: 0x0, symName: __ZNSt3__1eqB8ue170006IccccEEbRKNS_4pairIT_T0_EERKNS1_IT1_T2_EE, symObjAddr: 0x5DAD0, symBinAddr: 0x100060088, symSize: 0x64 }
  - { offsetInCU: 0x8DA18, offset: 0x8DA18, size: 0x8, addend: 0x0, symName: __ZNSt3__1leB8ue170006IcNS_11char_traitsIcEENS_9allocatorIcEEEEbRKNS_12basic_stringIT_T0_T1_EESB_, symObjAddr: 0x5DC70, symBinAddr: 0x100060228, symSize: 0x34 }
  - { offsetInCU: 0x8DA70, offset: 0x8DA70, size: 0x8, addend: 0x0, symName: __ZNSt3__1eqB8ue170006INS_9allocatorIcEEEEbRKNS_12basic_stringIcNS_11char_traitsIcEET_EES9_, symObjAddr: 0x5DD38, symBinAddr: 0x1000602F0, symSize: 0x148 }
  - { offsetInCU: 0x8DAE6, offset: 0x8DAE6, size: 0x8, addend: 0x0, symName: __ZNSt3__14findB8ue170006INS_11__wrap_iterIPKcEEcEET_S5_S5_RKT0_, symObjAddr: 0x5DEF8, symBinAddr: 0x1000604B0, symSize: 0x78 }
  - { offsetInCU: 0x8DB4F, offset: 0x8DB4F, size: 0x8, addend: 0x0, symName: __ZNSt3__18distanceB8ue170006IPcEENS_15iterator_traitsIT_E15difference_typeES3_S3_, symObjAddr: 0x5E33C, symBinAddr: 0x1000608F4, symSize: 0x2C }
  - { offsetInCU: 0x8DB92, offset: 0x8DB92, size: 0x8, addend: 0x0, symName: __ZNSt3__110__distanceB8ue170006IPcEENS_15iterator_traitsIT_E15difference_typeES3_S3_NS_26random_access_iterator_tagE, symObjAddr: 0x5E4AC, symBinAddr: 0x100060A64, symSize: 0x20 }
  - { offsetInCU: 0x8DBDF, offset: 0x8DBDF, size: 0x8, addend: 0x0, symName: __ZNSt3__113__rewrap_iterB8ue170006INS_11__wrap_iterIPKcEES3_NS_18__unwrap_iter_implIS4_Lb1EEEEET_S7_T0_, symObjAddr: 0x5E668, symBinAddr: 0x100060C20, symSize: 0x4C }
  - { offsetInCU: 0x8DC34, offset: 0x8DC34, size: 0x8, addend: 0x0, symName: __ZNSt3__113__unwrap_iterB8ue170006INS_11__wrap_iterIPKcEENS_18__unwrap_iter_implIS4_Lb1EEELi0EEEDTclsrT0_8__unwrapclsr3stdE7declvalIT_EEEES8_, symObjAddr: 0x5E6B4, symBinAddr: 0x100060C6C, symSize: 0x2C }
  - { offsetInCU: 0x8DCCB, offset: 0x8DCCB, size: 0x8, addend: 0x0, symName: __ZNSt3__112__to_addressB8ue170006INS_11__wrap_iterIPKcEEvEEu7__decayIDTclsr19__to_address_helperIT_EE6__callclsr3stdE7declvalIRKS5_EEEEES7_, symObjAddr: 0x5E770, symBinAddr: 0x100060D28, symSize: 0x24 }
  - { offsetInCU: 0x8DD69, offset: 0x8DD69, size: 0x8, addend: 0x0, symName: __ZNSt3__17__is_07B8ue170006Eh, symObjAddr: 0x5EE0C, symBinAddr: 0x1000613C4, symSize: 0x24 }
  - { offsetInCU: 0x8DD97, offset: 0x8DD97, size: 0x8, addend: 0x0, symName: __ZNSt3__17__is_89B8ue170006Eh, symObjAddr: 0x5EE30, symBinAddr: 0x1000613E8, symSize: 0x24 }
  - { offsetInCU: 0x8DDC5, offset: 0x8DDC5, size: 0x8, addend: 0x0, symName: __ZNSt3__110__to_lowerB8ue170006Eh, symObjAddr: 0x5EE54, symBinAddr: 0x10006140C, symSize: 0x1C }
  - { offsetInCU: 0x8DDF4, offset: 0x8DDF4, size: 0x8, addend: 0x0, symName: __ZNSt3__119__throw_regex_errorB8ue170006ILNS_15regex_constants10error_typeE5EEEvv, symObjAddr: 0x5EE70, symBinAddr: 0x100061428, symSize: 0x60 }
  - { offsetInCU: 0x8DE19, offset: 0x8DE19, size: 0x8, addend: 0x0, symName: __ZNSt3__16searchB8ue170006IPKcPcEET_S4_S4_T0_S5_, symObjAddr: 0x608CC, symBinAddr: 0x100062E84, symSize: 0x3C }
  - { offsetInCU: 0x8DE82, offset: 0x8DE82, size: 0x8, addend: 0x0, symName: __ZNSt3__119__throw_regex_errorB8ue170006ILNS_15regex_constants10error_typeE1EEEvv, symObjAddr: 0x60948, symBinAddr: 0x100062F00, symSize: 0x60 }
  - { offsetInCU: 0x8DEA7, offset: 0x8DEA7, size: 0x8, addend: 0x0, symName: __ZNSt3__16searchB8ue170006IPKcPcNS_10__equal_toEEET_S5_S5_T0_S6_T1_, symObjAddr: 0x60AC8, symBinAddr: 0x100063080, symSize: 0x64 }
  - { offsetInCU: 0x8DF35, offset: 0x8DF35, size: 0x8, addend: 0x0, symName: __ZNSt3__113__search_implB8ue170006IPKcS2_PcS3_NS_10__equal_toENS_10__identityES5_EENS_4pairIT_S7_EES7_T0_T1_T2_RT3_RT4_RT5_PNS_9enable_ifIXaasr37__has_random_access_iterator_categoryIS7_EE5valuesr37__has_random_access_iterator_categoryISA_EE5valueEvE4typeE, symObjAddr: 0x60B2C, symBinAddr: 0x1000630E4, symSize: 0xF8 }
  - { offsetInCU: 0x8E01C, offset: 0x8E01C, size: 0x8, addend: 0x0, symName: __ZNSt3__19make_pairB8ue170006IRPKcS3_EENS_4pairINS_18__unwrap_ref_decayIT_E4typeENS5_IT0_E4typeEEEOS6_OS9_, symObjAddr: 0x60C24, symBinAddr: 0x1000631DC, symSize: 0x38 }
  - { offsetInCU: 0x8E06B, offset: 0x8E06B, size: 0x8, addend: 0x0, symName: __ZNSt3__127__search_random_access_implB8ue170006INS_17_ClassicAlgPolicyEPKcS3_PcS4_NS_10__equal_toENS_10__identityES6_llEENS_4pairIT0_S8_EES8_T1_T2_T3_RT4_RT5_RT6_T7_T8_, symObjAddr: 0x60C5C, symBinAddr: 0x100063214, symSize: 0x1BC }
  - { offsetInCU: 0x8E1A1, offset: 0x8E1A1, size: 0x8, addend: 0x0, symName: __ZNSt3__18__invokeB8ue170006IRNS_10__equal_toEJRKcRcEEEDTclclsr3stdE7declvalIT_EEspclsr3stdE7declvalIT0_EEEEOS6_DpOS7_, symObjAddr: 0x60E38, symBinAddr: 0x1000633F0, symSize: 0x38 }
  - { offsetInCU: 0x8E206, offset: 0x8E206, size: 0x8, addend: 0x0, symName: __ZNSt3__18__invokeB8ue170006IRNS_10__identityEJRcEEEDTclclsr3stdE7declvalIT_EEspclsr3stdE7declvalIT0_EEEEOS4_DpOS5_, symObjAddr: 0x60E70, symBinAddr: 0x100063428, symSize: 0x2C }
  - { offsetInCU: 0x8E257, offset: 0x8E257, size: 0x8, addend: 0x0, symName: __ZNSt3__19make_pairB8ue170006IRPKcS2_EENS_4pairINS_18__unwrap_ref_decayIT_E4typeENS5_IT0_E4typeEEEOS6_OS9_, symObjAddr: 0x60E9C, symBinAddr: 0x100063454, symSize: 0x38 }
  - { offsetInCU: 0x8E2E1, offset: 0x8E2E1, size: 0x8, addend: 0x0, symName: __ZNSt3__18distanceB8ue170006INS_11__wrap_iterIPcEEEENS_15iterator_traitsIT_E15difference_typeES5_S5_, symObjAddr: 0x61468, symBinAddr: 0x100063A20, symSize: 0x3C }
  - { offsetInCU: 0x8E324, offset: 0x8E324, size: 0x8, addend: 0x0, symName: __ZNSt3__110__distanceB8ue170006INS_11__wrap_iterIPcEEEENS_15iterator_traitsIT_E15difference_typeES5_S5_NS_26random_access_iterator_tagE, symObjAddr: 0x615F0, symBinAddr: 0x100063BA8, symSize: 0x30 }
  - { offsetInCU: 0x8E371, offset: 0x8E371, size: 0x8, addend: 0x0, symName: __ZNSt3__1miB8ue170006IPcS1_EEDTmicldtfp_4baseEcldtfp0_4baseEERKNS_11__wrap_iterIT_EERKNS3_IT0_EE, symObjAddr: 0x61620, symBinAddr: 0x100063BD8, symSize: 0x40 }
  - { offsetInCU: 0x8E3BD, offset: 0x8E3BD, size: 0x8, addend: 0x0, symName: __ZNSt3__1neB8ue170006IPcEEbRKNS_11__wrap_iterIT_EES6_, symObjAddr: 0x61678, symBinAddr: 0x100063C30, symSize: 0x34 }
  - { offsetInCU: 0x8E400, offset: 0x8E400, size: 0x8, addend: 0x0, symName: __ZNSt3__1eqB8ue170006IPcEEbRKNS_11__wrap_iterIT_EES6_, symObjAddr: 0x616E4, symBinAddr: 0x100063C9C, symSize: 0x48 }
  - { offsetInCU: 0x8E443, offset: 0x8E443, size: 0x8, addend: 0x0, symName: __ZNSt3__119__allocate_at_leastB8ue170006INS_9allocatorINS_12basic_stringIcNS_11char_traitsIcEENS1_IcEEEEEEEENS_19__allocation_resultINS_16allocator_traitsIT_E7pointerEEERSA_m, symObjAddr: 0x61F84, symBinAddr: 0x10006453C, symSize: 0x40 }
  - { offsetInCU: 0x8E486, offset: 0x8E486, size: 0x8, addend: 0x0, symName: __ZNSt3__142__uninitialized_allocator_move_if_noexceptB8ue170006INS_9allocatorINS_12basic_stringIcNS_11char_traitsIcEENS1_IcEEEEEENS_16reverse_iteratorIPS6_EESA_SA_EET2_RT_T0_T1_SB_, symObjAddr: 0x6213C, symBinAddr: 0x1000646F4, symSize: 0x12C }
  - { offsetInCU: 0x8E528, offset: 0x8E528, size: 0x8, addend: 0x0, symName: __ZNSt3__14swapB8ue170006IPNS_12basic_stringIcNS_11char_traitsIcEENS_9allocatorIcEEEEEENS_9enable_ifIXaasr21is_move_constructibleIT_EE5valuesr18is_move_assignableIS9_EE5valueEvE4typeERS9_SC_, symObjAddr: 0x622B4, symBinAddr: 0x10006486C, symSize: 0x3C }
  - { offsetInCU: 0x8E57A, offset: 0x8E57A, size: 0x8, addend: 0x0, symName: __ZNSt3__122__make_exception_guardB8ue170006INS_29_AllocatorDestroyRangeReverseINS_9allocatorINS_12basic_stringIcNS_11char_traitsIcEENS2_IcEEEEEENS_16reverse_iteratorIPS7_EEEEEENS_28__exception_guard_exceptionsIT_EESE_, symObjAddr: 0x623B8, symBinAddr: 0x100064970, symSize: 0x4C }
  - { offsetInCU: 0x8E5B0, offset: 0x8E5B0, size: 0x8, addend: 0x0, symName: __ZNSt3__1neB8ue170006IPNS_12basic_stringIcNS_11char_traitsIcEENS_9allocatorIcEEEES7_EEbRKNS_16reverse_iteratorIT_EERKNS8_IT0_EE, symObjAddr: 0x62448, symBinAddr: 0x100064A00, symSize: 0x48 }
  - { offsetInCU: 0x8E5FC, offset: 0x8E5FC, size: 0x8, addend: 0x0, symName: __ZNSt3__112__to_addressB8ue170006INS_16reverse_iteratorIPNS_12basic_stringIcNS_11char_traitsIcEENS_9allocatorIcEEEEEEvEEu7__decayIDTclsr19__to_address_helperIT_EE6__callclsr3stdE7declvalIRKSA_EEEEESC_, symObjAddr: 0x624C4, symBinAddr: 0x100064A7C, symSize: 0x24 }
  - { offsetInCU: 0x8E65D, offset: 0x8E65D, size: 0x8, addend: 0x0, symName: __ZNSt3__119__allocator_destroyB8ue170006INS_9allocatorINS_12basic_stringIcNS_11char_traitsIcEENS1_IcEEEEEENS_16reverse_iteratorINS8_IPS6_EEEESB_EEvRT_T0_T1_, symObjAddr: 0x627A4, symBinAddr: 0x100064D5C, symSize: 0x70 }
  - { offsetInCU: 0x8E6C2, offset: 0x8E6C2, size: 0x8, addend: 0x0, symName: __ZNSt3__1neB8ue170006INS_16reverse_iteratorIPNS_12basic_stringIcNS_11char_traitsIcEENS_9allocatorIcEEEEEES9_EEbRKNS1_IT_EERKNS1_IT0_EE, symObjAddr: 0x62850, symBinAddr: 0x100064E08, symSize: 0x60 }
  - { offsetInCU: 0x8E70E, offset: 0x8E70E, size: 0x8, addend: 0x0, symName: __ZNSt3__112__to_addressB8ue170006INS_16reverse_iteratorINS1_IPNS_12basic_stringIcNS_11char_traitsIcEENS_9allocatorIcEEEEEEEEvEEu7__decayIDTclsr19__to_address_helperIT_EE6__callclsr3stdE7declvalIRKSB_EEEEESD_, symObjAddr: 0x628B0, symBinAddr: 0x100064E68, symSize: 0x24 }
  - { offsetInCU: 0x8E76F, offset: 0x8E76F, size: 0x8, addend: 0x0, symName: __ZNSt3__119__throw_regex_errorB8ue170006ILNS_15regex_constants10error_typeE2EEEvv, symObjAddr: 0x62C64, symBinAddr: 0x10006521C, symSize: 0x60 }
  - { offsetInCU: 0x8E794, offset: 0x8E794, size: 0x8, addend: 0x0, symName: __ZNSt3__19make_pairB8ue170006INS_12basic_stringIcNS_11char_traitsIcEENS_9allocatorIcEEEES6_EENS_4pairINS_18__unwrap_ref_decayIT_E4typeENS8_IT0_E4typeEEEOS9_OSC_, symObjAddr: 0x62F40, symBinAddr: 0x1000654F8, symSize: 0x40 }
  - { offsetInCU: 0x8E7E4, offset: 0x8E7E4, size: 0x8, addend: 0x0, symName: __ZNSt3__119__throw_regex_errorB8ue170006ILNS_15regex_constants10error_typeE9EEEvv, symObjAddr: 0x63080, symBinAddr: 0x100065638, symSize: 0x60 }
  - { offsetInCU: 0x8E809, offset: 0x8E809, size: 0x8, addend: 0x0, symName: __ZNSt3__119__allocate_at_leastB8ue170006INS_9allocatorINS_4pairINS_12basic_stringIcNS_11char_traitsIcEENS1_IcEEEES7_EEEEEENS_19__allocation_resultINS_16allocator_traitsIT_E7pointerEEERSC_m, symObjAddr: 0x638C4, symBinAddr: 0x100065E7C, symSize: 0x40 }
  - { offsetInCU: 0x8E84C, offset: 0x8E84C, size: 0x8, addend: 0x0, symName: __ZNSt3__142__uninitialized_allocator_move_if_noexceptB8ue170006INS_9allocatorINS_4pairINS_12basic_stringIcNS_11char_traitsIcEENS1_IcEEEES7_EEEENS_16reverse_iteratorIPS8_EESC_SC_EET2_RT_T0_T1_SD_, symObjAddr: 0x63A7C, symBinAddr: 0x100066034, symSize: 0x12C }
  - { offsetInCU: 0x8E8EE, offset: 0x8E8EE, size: 0x8, addend: 0x0, symName: __ZNSt3__14swapB8ue170006IPNS_4pairINS_12basic_stringIcNS_11char_traitsIcEENS_9allocatorIcEEEES7_EEEENS_9enable_ifIXaasr21is_move_constructibleIT_EE5valuesr18is_move_assignableISB_EE5valueEvE4typeERSB_SE_, symObjAddr: 0x63BF4, symBinAddr: 0x1000661AC, symSize: 0x3C }
  - { offsetInCU: 0x8E940, offset: 0x8E940, size: 0x8, addend: 0x0, symName: __ZNSt3__122__make_exception_guardB8ue170006INS_29_AllocatorDestroyRangeReverseINS_9allocatorINS_4pairINS_12basic_stringIcNS_11char_traitsIcEENS2_IcEEEES8_EEEENS_16reverse_iteratorIPS9_EEEEEENS_28__exception_guard_exceptionsIT_EESG_, symObjAddr: 0x63CF8, symBinAddr: 0x1000662B0, symSize: 0x4C }
  - { offsetInCU: 0x8E976, offset: 0x8E976, size: 0x8, addend: 0x0, symName: __ZNSt3__1neB8ue170006IPNS_4pairINS_12basic_stringIcNS_11char_traitsIcEENS_9allocatorIcEEEES7_EES9_EEbRKNS_16reverse_iteratorIT_EERKNSA_IT0_EE, symObjAddr: 0x63D88, symBinAddr: 0x100066340, symSize: 0x48 }
  - { offsetInCU: 0x8E9C2, offset: 0x8E9C2, size: 0x8, addend: 0x0, symName: __ZNSt3__112__to_addressB8ue170006INS_16reverse_iteratorIPNS_4pairINS_12basic_stringIcNS_11char_traitsIcEENS_9allocatorIcEEEES8_EEEEvEEu7__decayIDTclsr19__to_address_helperIT_EE6__callclsr3stdE7declvalIRKSC_EEEEESE_, symObjAddr: 0x63DD0, symBinAddr: 0x100066388, symSize: 0x24 }
  - { offsetInCU: 0x8EA23, offset: 0x8EA23, size: 0x8, addend: 0x0, symName: __ZNSt3__119__allocator_destroyB8ue170006INS_9allocatorINS_4pairINS_12basic_stringIcNS_11char_traitsIcEENS1_IcEEEES7_EEEENS_16reverse_iteratorINSA_IPS8_EEEESD_EEvRT_T0_T1_, symObjAddr: 0x64080, symBinAddr: 0x100066638, symSize: 0x70 }
  - { offsetInCU: 0x8EA88, offset: 0x8EA88, size: 0x8, addend: 0x0, symName: __ZNSt3__1neB8ue170006INS_16reverse_iteratorIPNS_4pairINS_12basic_stringIcNS_11char_traitsIcEENS_9allocatorIcEEEES8_EEEESB_EEbRKNS1_IT_EERKNS1_IT0_EE, symObjAddr: 0x6412C, symBinAddr: 0x1000666E4, symSize: 0x60 }
  - { offsetInCU: 0x8EAD4, offset: 0x8EAD4, size: 0x8, addend: 0x0, symName: __ZNSt3__112__to_addressB8ue170006INS_16reverse_iteratorINS1_IPNS_4pairINS_12basic_stringIcNS_11char_traitsIcEENS_9allocatorIcEEEES8_EEEEEEvEEu7__decayIDTclsr19__to_address_helperIT_EE6__callclsr3stdE7declvalIRKSD_EEEEESF_, symObjAddr: 0x6418C, symBinAddr: 0x100066744, symSize: 0x24 }
  - { offsetInCU: 0x8EB34, offset: 0x8EB34, size: 0x8, addend: 0x0, symName: __ZNSt3__19make_pairB8ue170006IccEENS_4pairINS_18__unwrap_ref_decayIT_E4typeENS2_IT0_E4typeEEEOS3_OS6_, symObjAddr: 0x645E4, symBinAddr: 0x100066B9C, symSize: 0x34 }
  - { offsetInCU: 0x8EB83, offset: 0x8EB83, size: 0x8, addend: 0x0, symName: __ZNSt3__19make_pairB8ue170006IRcS1_EENS_4pairINS_18__unwrap_ref_decayIT_E4typeENS3_IT0_E4typeEEEOS4_OS7_, symObjAddr: 0x64618, symBinAddr: 0x100066BD0, symSize: 0x34 }
  - { offsetInCU: 0x8EBD2, offset: 0x8EBD2, size: 0x8, addend: 0x0, symName: __ZNSt3__119__allocate_at_leastB8ue170006INS_9allocatorINS_4pairIccEEEEEENS_19__allocation_resultINS_16allocator_traitsIT_E7pointerEEERS7_m, symObjAddr: 0x64D94, symBinAddr: 0x10006734C, symSize: 0x40 }
  - { offsetInCU: 0x8EC15, offset: 0x8EC15, size: 0x8, addend: 0x0, symName: __ZNSt3__142__uninitialized_allocator_move_if_noexceptB8ue170006INS_9allocatorINS_4pairIccEEEENS_16reverse_iteratorIPS3_EES7_S7_EET2_RT_T0_T1_S8_, symObjAddr: 0x64F48, symBinAddr: 0x100067500, symSize: 0x12C }
  - { offsetInCU: 0x8ECB7, offset: 0x8ECB7, size: 0x8, addend: 0x0, symName: __ZNSt3__14swapB8ue170006IPNS_4pairIccEEEENS_9enable_ifIXaasr21is_move_constructibleIT_EE5valuesr18is_move_assignableIS5_EE5valueEvE4typeERS5_S8_, symObjAddr: 0x650C0, symBinAddr: 0x100067678, symSize: 0x3C }
  - { offsetInCU: 0x8ED09, offset: 0x8ED09, size: 0x8, addend: 0x0, symName: __ZNSt3__122__make_exception_guardB8ue170006INS_29_AllocatorDestroyRangeReverseINS_9allocatorINS_4pairIccEEEENS_16reverse_iteratorIPS4_EEEEEENS_28__exception_guard_exceptionsIT_EESB_, symObjAddr: 0x651A8, symBinAddr: 0x100067760, symSize: 0x4C }
  - { offsetInCU: 0x8ED3F, offset: 0x8ED3F, size: 0x8, addend: 0x0, symName: __ZNSt3__1neB8ue170006IPNS_4pairIccEES3_EEbRKNS_16reverse_iteratorIT_EERKNS4_IT0_EE, symObjAddr: 0x65238, symBinAddr: 0x1000677F0, symSize: 0x48 }
  - { offsetInCU: 0x8ED8B, offset: 0x8ED8B, size: 0x8, addend: 0x0, symName: __ZNSt3__112__to_addressB8ue170006INS_16reverse_iteratorIPNS_4pairIccEEEEvEEu7__decayIDTclsr19__to_address_helperIT_EE6__callclsr3stdE7declvalIRKS6_EEEEES8_, symObjAddr: 0x65280, symBinAddr: 0x100067838, symSize: 0x24 }
  - { offsetInCU: 0x8EDEC, offset: 0x8EDEC, size: 0x8, addend: 0x0, symName: __ZNSt3__119__allocator_destroyB8ue170006INS_9allocatorINS_4pairIccEEEENS_16reverse_iteratorINS5_IPS3_EEEES8_EEvRT_T0_T1_, symObjAddr: 0x65530, symBinAddr: 0x100067AE8, symSize: 0x70 }
  - { offsetInCU: 0x8EE51, offset: 0x8EE51, size: 0x8, addend: 0x0, symName: __ZNSt3__1neB8ue170006INS_16reverse_iteratorIPNS_4pairIccEEEES5_EEbRKNS1_IT_EERKNS1_IT0_EE, symObjAddr: 0x655DC, symBinAddr: 0x100067B94, symSize: 0x60 }
  - { offsetInCU: 0x8EE9D, offset: 0x8EE9D, size: 0x8, addend: 0x0, symName: __ZNSt3__112__to_addressB8ue170006INS_16reverse_iteratorINS1_IPNS_4pairIccEEEEEEvEEu7__decayIDTclsr19__to_address_helperIT_EE6__callclsr3stdE7declvalIRKS7_EEEEES9_, symObjAddr: 0x6563C, symBinAddr: 0x100067BF4, symSize: 0x24 }
  - { offsetInCU: 0x8F00A, offset: 0x8F00A, size: 0x8, addend: 0x0, symName: __ZNSt3__119__throw_regex_errorB8ue170006ILNS_15regex_constants10error_typeE8EEEvv, symObjAddr: 0x66254, symBinAddr: 0x10006880C, symSize: 0x60 }
  - { offsetInCU: 0x8F030, offset: 0x8F030, size: 0x8, addend: 0x0, symName: __ZNSt3__119__throw_regex_errorB8ue170006ILNS_15regex_constants10error_typeE7EEEvv, symObjAddr: 0x662B4, symBinAddr: 0x10006886C, symSize: 0x60 }
  - { offsetInCU: 0x8F991, offset: 0x8F991, size: 0x8, addend: 0x0, symName: __ZNSt3__119__throw_regex_errorB8ue170006ILNS_15regex_constants10error_typeE15EEEvv, symObjAddr: 0x672F0, symBinAddr: 0x1000698A8, symSize: 0x60 }
  - { offsetInCU: 0x8FA2A, offset: 0x8FA2A, size: 0x8, addend: 0x0, symName: __ZNSt3__134__libcpp_atomic_refcount_decrementB8ue170006IlEET_RS1_, symObjAddr: 0x68B34, symBinAddr: 0x10006B0EC, symSize: 0x30 }
  - { offsetInCU: 0x8FE04, offset: 0x8FE04, size: 0x8, addend: 0x0, symName: __ZNSt3__14swapB8ue170006IPPNS_7__stateIcEEEENS_9enable_ifIXaasr21is_move_constructibleIT_EE5valuesr18is_move_assignableIS6_EE5valueEvE4typeERS6_S9_, symObjAddr: 0x6C41C, symBinAddr: 0x10006E9D4, symSize: 0x3C }
  - { offsetInCU: 0x8FE56, offset: 0x8FE56, size: 0x8, addend: 0x0, symName: __ZNSt3__14moveB8ue170006IPPNS_7__stateIcEES4_EET0_T_S6_S5_, symObjAddr: 0x6C54C, symBinAddr: 0x10006EB04, symSize: 0x40 }
  - { offsetInCU: 0x8FEB0, offset: 0x8FEB0, size: 0x8, addend: 0x0, symName: __ZNSt3__112__to_addressB8ue170006IPNS_7__stateIcEEEEPT_S5_, symObjAddr: 0x6C654, symBinAddr: 0x10006EC0C, symSize: 0x14 }
  - { offsetInCU: 0x8FEE5, offset: 0x8FEE5, size: 0x8, addend: 0x0, symName: __ZNSt3__16__moveB8ue170006INS_17_ClassicAlgPolicyEPPNS_7__stateIcEES5_S5_EENS_4pairIT0_T2_EES7_T1_S8_, symObjAddr: 0x6C668, symBinAddr: 0x10006EC20, symSize: 0x44 }
  - { offsetInCU: 0x8FF51, offset: 0x8FF51, size: 0x8, addend: 0x0, symName: __ZNSt3__123__dispatch_copy_or_moveB8ue170006INS_17_ClassicAlgPolicyENS_11__move_loopIS1_EENS_14__move_trivialEPPNS_7__stateIcEES8_S8_EENS_4pairIT2_T4_EESA_T3_SB_, symObjAddr: 0x6C6AC, symBinAddr: 0x10006EC64, symSize: 0x44 }
  - { offsetInCU: 0x8FFCF, offset: 0x8FFCF, size: 0x8, addend: 0x0, symName: __ZNSt3__121__unwrap_and_dispatchB8ue170006INS_10__overloadINS_11__move_loopINS_17_ClassicAlgPolicyEEENS_14__move_trivialEEEPPNS_7__stateIcEESA_SA_Li0EEENS_4pairIT0_T2_EESC_T1_SD_, symObjAddr: 0x6C6F0, symBinAddr: 0x10006ECA8, symSize: 0xB4 }
  - { offsetInCU: 0x9005F, offset: 0x9005F, size: 0x8, addend: 0x0, symName: __ZNSt3__114__unwrap_rangeB8ue170006IPPNS_7__stateIcEES4_EENS_4pairIT0_S6_EET_S8_, symObjAddr: 0x6C7A4, symBinAddr: 0x10006ED5C, symSize: 0x60 }
  - { offsetInCU: 0x90223, offset: 0x90223, size: 0x8, addend: 0x0, symName: __ZNSt3__113__unwrap_iterB8ue170006IPPNS_7__stateIcEENS_18__unwrap_iter_implIS4_Lb1EEELi0EEEDTclsrT0_8__unwrapclsr3stdE7declvalIT_EEEES8_, symObjAddr: 0x6C84C, symBinAddr: 0x10006EE04, symSize: 0x24 }
  - { offsetInCU: 0x90267, offset: 0x90267, size: 0x8, addend: 0x0, symName: __ZNSt3__19make_pairB8ue170006IPPNS_7__stateIcEES4_EENS_4pairINS_18__unwrap_ref_decayIT_E4typeENS6_IT0_E4typeEEEOS7_OSA_, symObjAddr: 0x6C870, symBinAddr: 0x10006EE28, symSize: 0x38 }
  - { offsetInCU: 0x902B6, offset: 0x902B6, size: 0x8, addend: 0x0, symName: __ZNSt3__114__rewrap_rangeB8ue170006IPPNS_7__stateIcEES4_EET_S5_T0_, symObjAddr: 0x6C8A8, symBinAddr: 0x10006EE60, symSize: 0x2C }
  - { offsetInCU: 0x90302, offset: 0x90302, size: 0x8, addend: 0x0, symName: __ZNSt3__113__rewrap_iterB8ue170006IPPNS_7__stateIcEES4_NS_18__unwrap_iter_implIS4_Lb1EEEEET_S7_T0_, symObjAddr: 0x6C8D4, symBinAddr: 0x10006EE8C, symSize: 0x3C }
  - { offsetInCU: 0x90357, offset: 0x90357, size: 0x8, addend: 0x0, symName: __ZNSt3__119__copy_trivial_implB8ue170006IPNS_7__stateIcEES3_EENS_4pairIPT_PT0_EES6_S6_S8_, symObjAddr: 0x6C910, symBinAddr: 0x10006EEC8, symSize: 0x80 }
  - { offsetInCU: 0x903C0, offset: 0x903C0, size: 0x8, addend: 0x0, symName: __ZNSt3__119__constexpr_memmoveB8ue170006IPNS_7__stateIcEES3_Li0EEEPT_S5_PT0_NS_15__element_countE, symObjAddr: 0x6C990, symBinAddr: 0x10006EF48, symSize: 0x64 }
  - { offsetInCU: 0x9042F, offset: 0x9042F, size: 0x8, addend: 0x0, symName: __ZNSt3__19make_pairB8ue170006IRPPNS_7__stateIcEES4_EENS_4pairINS_18__unwrap_ref_decayIT_E4typeENS7_IT0_E4typeEEEOS8_OSB_, symObjAddr: 0x6C9F4, symBinAddr: 0x10006EFAC, symSize: 0x38 }
  - { offsetInCU: 0x904D1, offset: 0x904D1, size: 0x8, addend: 0x0, symName: __ZNSt3__18distanceB8ue170006INS_13move_iteratorIPPNS_7__stateIcEEEEEENS_15iterator_traitsIT_E15difference_typeES8_S8_, symObjAddr: 0x6CC5C, symBinAddr: 0x10006F214, symSize: 0x3C }
  - { offsetInCU: 0x90514, offset: 0x90514, size: 0x8, addend: 0x0, symName: __ZNSt3__110__distanceB8ue170006INS_13move_iteratorIPPNS_7__stateIcEEEEEENS_15iterator_traitsIT_E15difference_typeES8_S8_NS_26random_access_iterator_tagE, symObjAddr: 0x6CE60, symBinAddr: 0x10006F418, symSize: 0x30 }
  - { offsetInCU: 0x90561, offset: 0x90561, size: 0x8, addend: 0x0, symName: __ZNSt3__1miB8ue170006IPPNS_7__stateIcEES4_EEDTmicldtfp_4baseEcldtfp0_4baseEERKNS_13move_iteratorIT_EERKNS6_IT0_EE, symObjAddr: 0x6CE90, symBinAddr: 0x10006F448, symSize: 0x48 }
  - { offsetInCU: 0x905B0, offset: 0x905B0, size: 0x8, addend: 0x0, symName: __ZNSt3__113move_backwardB8ue170006IPPNS_7__stateIcEES4_EET0_T_S6_S5_, symObjAddr: 0x6CF98, symBinAddr: 0x10006F550, symSize: 0x40 }
  - { offsetInCU: 0x9060A, offset: 0x9060A, size: 0x8, addend: 0x0, symName: __ZNSt3__115__move_backwardB8ue170006INS_17_ClassicAlgPolicyEPPNS_7__stateIcEES5_S5_EENS_4pairIT0_T2_EES7_T1_S8_, symObjAddr: 0x6CFD8, symBinAddr: 0x10006F590, symSize: 0x44 }
  - { offsetInCU: 0x90676, offset: 0x90676, size: 0x8, addend: 0x0, symName: __ZNSt3__123__dispatch_copy_or_moveB8ue170006INS_17_ClassicAlgPolicyENS_20__move_backward_loopIS1_EENS_23__move_backward_trivialEPPNS_7__stateIcEES8_S8_EENS_4pairIT2_T4_EESA_T3_SB_, symObjAddr: 0x6D01C, symBinAddr: 0x10006F5D4, symSize: 0x44 }
  - { offsetInCU: 0x906F4, offset: 0x906F4, size: 0x8, addend: 0x0, symName: __ZNSt3__121__unwrap_and_dispatchB8ue170006INS_10__overloadINS_20__move_backward_loopINS_17_ClassicAlgPolicyEEENS_23__move_backward_trivialEEEPPNS_7__stateIcEESA_SA_Li0EEENS_4pairIT0_T2_EESC_T1_SD_, symObjAddr: 0x6D060, symBinAddr: 0x10006F618, symSize: 0xB4 }
  - { offsetInCU: 0x907CA, offset: 0x907CA, size: 0x8, addend: 0x0, symName: __ZNSt3__128__copy_backward_trivial_implB8ue170006IPNS_7__stateIcEES3_EENS_4pairIPT_PT0_EES6_S6_S8_, symObjAddr: 0x6D15C, symBinAddr: 0x10006F714, symSize: 0x90 }
  - { offsetInCU: 0x90833, offset: 0x90833, size: 0x8, addend: 0x0, symName: __ZNSt3__19make_pairB8ue170006IRPPNS_7__stateIcEES5_EENS_4pairINS_18__unwrap_ref_decayIT_E4typeENS7_IT0_E4typeEEEOS8_OSB_, symObjAddr: 0x6D1EC, symBinAddr: 0x10006F7A4, symSize: 0x38 }
  - { offsetInCU: 0x90882, offset: 0x90882, size: 0x8, addend: 0x0, symName: __ZNSt3__119__allocate_at_leastB8ue170006INS_9allocatorIPNS_7__stateIcEEEEEENS_19__allocation_resultINS_16allocator_traitsIT_E7pointerEEERS8_m, symObjAddr: 0x6D420, symBinAddr: 0x10006F9D8, symSize: 0x40 }
  - { offsetInCU: 0x908C5, offset: 0x908C5, size: 0x8, addend: 0x0, symName: __ZNSt3__1neB8ue170006ERKNS_16__deque_iteratorINS_7__stateIcEEPS2_RS2_PS3_lLl42EEES8_, symObjAddr: 0x6DFAC, symBinAddr: 0x100070564, symSize: 0x34 }
  - { offsetInCU: 0x90902, offset: 0x90902, size: 0x8, addend: 0x0, symName: __ZNSt3__1eqB8ue170006ERKNS_16__deque_iteratorINS_7__stateIcEEPS2_RS2_PS3_lLl42EEES8_, symObjAddr: 0x6E050, symBinAddr: 0x100070608, symSize: 0x30 }
  - { offsetInCU: 0x9093F, offset: 0x9093F, size: 0x8, addend: 0x0, symName: __ZNSt3__18distanceB8ue170006IPNS_9sub_matchIPKcEEEENS_15iterator_traitsIT_E15difference_typeES7_S7_, symObjAddr: 0x6EEB4, symBinAddr: 0x10007146C, symSize: 0x2C }
  - { offsetInCU: 0x90982, offset: 0x90982, size: 0x8, addend: 0x0, symName: __ZNSt3__14nextB8ue170006IPNS_9sub_matchIPKcEEEENS_9enable_ifIXsr29__has_input_iterator_categoryIT_EE5valueES7_E4typeES7_NS_15iterator_traitsIS7_E15difference_typeE, symObjAddr: 0x6EEE0, symBinAddr: 0x100071498, symSize: 0x34 }
  - { offsetInCU: 0x909C5, offset: 0x909C5, size: 0x8, addend: 0x0, symName: __ZNSt3__14copyB8ue170006IPNS_9sub_matchIPKcEES5_EET0_T_S7_S6_, symObjAddr: 0x6EF14, symBinAddr: 0x1000714CC, symSize: 0x40 }
  - { offsetInCU: 0x90A1F, offset: 0x90A1F, size: 0x8, addend: 0x0, symName: __ZNSt3__16__copyB8ue170006INS_17_ClassicAlgPolicyEPNS_9sub_matchIPKcEES6_S6_EENS_4pairIT0_T2_EES8_T1_S9_, symObjAddr: 0x6EF54, symBinAddr: 0x10007150C, symSize: 0x44 }
  - { offsetInCU: 0x90A8C, offset: 0x90A8C, size: 0x8, addend: 0x0, symName: __ZNSt3__19__advanceB8ue170006IPNS_9sub_matchIPKcEEEEvRT_NS_15iterator_traitsIS6_E15difference_typeENS_26random_access_iterator_tagE, symObjAddr: 0x6EFD0, symBinAddr: 0x100071588, symSize: 0x30 }
  - { offsetInCU: 0x90AD5, offset: 0x90AD5, size: 0x8, addend: 0x0, symName: __ZNSt3__123__dispatch_copy_or_moveB8ue170006INS_17_ClassicAlgPolicyENS_11__copy_loopIS1_EENS_14__copy_trivialEPNS_9sub_matchIPKcEES9_S9_EENS_4pairIT2_T4_EESB_T3_SC_, symObjAddr: 0x6F000, symBinAddr: 0x1000715B8, symSize: 0x44 }
  - { offsetInCU: 0x90B53, offset: 0x90B53, size: 0x8, addend: 0x0, symName: __ZNSt3__121__unwrap_and_dispatchB8ue170006INS_10__overloadINS_11__copy_loopINS_17_ClassicAlgPolicyEEENS_14__copy_trivialEEEPNS_9sub_matchIPKcEESB_SB_Li0EEENS_4pairIT0_T2_EESD_T1_SE_, symObjAddr: 0x6F044, symBinAddr: 0x1000715FC, symSize: 0xB4 }
  - { offsetInCU: 0x90CB3, offset: 0x90CB3, size: 0x8, addend: 0x0, symName: __ZNSt3__114__rewrap_rangeB8ue170006IPNS_9sub_matchIPKcEES5_EET_S6_T0_, symObjAddr: 0x6F180, symBinAddr: 0x100071738, symSize: 0x2C }
  - { offsetInCU: 0x90CFF, offset: 0x90CFF, size: 0x8, addend: 0x0, symName: __ZNSt3__110__distanceB8ue170006IPNS_9sub_matchIPKcEEEENS_15iterator_traitsIT_E15difference_typeES7_S7_NS_26random_access_iterator_tagE, symObjAddr: 0x6F1AC, symBinAddr: 0x100071764, symSize: 0x28 }
  - { offsetInCU: 0x90D4C, offset: 0x90D4C, size: 0x8, addend: 0x0, symName: __ZNSt3__18distanceB8ue170006IPNS_4pairImPKcEEEENS_15iterator_traitsIT_E15difference_typeES7_S7_, symObjAddr: 0x6F3D4, symBinAddr: 0x10007198C, symSize: 0x2C }
  - { offsetInCU: 0x90D8F, offset: 0x90D8F, size: 0x8, addend: 0x0, symName: __ZNSt3__14nextB8ue170006IPNS_4pairImPKcEEEENS_9enable_ifIXsr29__has_input_iterator_categoryIT_EE5valueES7_E4typeES7_NS_15iterator_traitsIS7_E15difference_typeE, symObjAddr: 0x6F400, symBinAddr: 0x1000719B8, symSize: 0x34 }
  - { offsetInCU: 0x90DD2, offset: 0x90DD2, size: 0x8, addend: 0x0, symName: __ZNSt3__14copyB8ue170006IPNS_4pairImPKcEES5_EET0_T_S7_S6_, symObjAddr: 0x6F434, symBinAddr: 0x1000719EC, symSize: 0x40 }
  - { offsetInCU: 0x90E2C, offset: 0x90E2C, size: 0x8, addend: 0x0, symName: __ZNSt3__16__copyB8ue170006INS_17_ClassicAlgPolicyEPNS_4pairImPKcEES6_S6_EENS2_IT0_T2_EES7_T1_S8_, symObjAddr: 0x6F474, symBinAddr: 0x100071A2C, symSize: 0x44 }
  - { offsetInCU: 0x90E99, offset: 0x90E99, size: 0x8, addend: 0x0, symName: __ZNSt3__19__advanceB8ue170006IPNS_4pairImPKcEEEEvRT_NS_15iterator_traitsIS6_E15difference_typeENS_26random_access_iterator_tagE, symObjAddr: 0x6F584, symBinAddr: 0x100071B3C, symSize: 0x28 }
  - { offsetInCU: 0x90EE2, offset: 0x90EE2, size: 0x8, addend: 0x0, symName: __ZNSt3__123__dispatch_copy_or_moveB8ue170006INS_17_ClassicAlgPolicyENS_11__copy_loopIS1_EENS_14__copy_trivialEPNS_4pairImPKcEES9_S9_EENS5_IT2_T4_EESA_T3_SB_, symObjAddr: 0x6F5AC, symBinAddr: 0x100071B64, symSize: 0x44 }
  - { offsetInCU: 0x90F60, offset: 0x90F60, size: 0x8, addend: 0x0, symName: __ZNSt3__121__unwrap_and_dispatchB8ue170006INS_10__overloadINS_11__copy_loopINS_17_ClassicAlgPolicyEEENS_14__copy_trivialEEEPNS_4pairImPKcEESB_SB_Li0EEENS7_IT0_T2_EESC_T1_SD_, symObjAddr: 0x6F5F0, symBinAddr: 0x100071BA8, symSize: 0xB4 }
  - { offsetInCU: 0x90FF0, offset: 0x90FF0, size: 0x8, addend: 0x0, symName: __ZNSt3__114__rewrap_rangeB8ue170006IPNS_4pairImPKcEES5_EET_S6_T0_, symObjAddr: 0x6F72C, symBinAddr: 0x100071CE4, symSize: 0x2C }
  - { offsetInCU: 0x9103C, offset: 0x9103C, size: 0x8, addend: 0x0, symName: __ZNSt3__110__distanceB8ue170006IPNS_4pairImPKcEEEENS_15iterator_traitsIT_E15difference_typeES7_S7_NS_26random_access_iterator_tagE, symObjAddr: 0x6F7CC, symBinAddr: 0x100071D84, symSize: 0x28 }
  - { offsetInCU: 0x91089, offset: 0x91089, size: 0x8, addend: 0x0, symName: __ZNSt3__14nextB8ue170006INS_11__wrap_iterIPKcEEEENS_9enable_ifIXsr29__has_input_iterator_categoryIT_EE5valueES6_E4typeES6_NS_15iterator_traitsIS6_E15difference_typeE, symObjAddr: 0x6F8D4, symBinAddr: 0x100071E8C, symSize: 0x3C }
  - { offsetInCU: 0x910CC, offset: 0x910CC, size: 0x8, addend: 0x0, symName: __ZNSt3__119__allocate_at_leastB8ue170006INS_9allocatorINS_9sub_matchINS_11__wrap_iterIPKcEEEEEEEENS_19__allocation_resultINS_16allocator_traitsIT_E7pointerEEERSB_m, symObjAddr: 0x70230, symBinAddr: 0x1000727E8, symSize: 0x40 }
  - { offsetInCU: 0x9110F, offset: 0x9110F, size: 0x8, addend: 0x0, symName: __ZNSt3__142__uninitialized_allocator_move_if_noexceptB8ue170006INS_9allocatorINS_9sub_matchINS_11__wrap_iterIPKcEEEEEENS_16reverse_iteratorIPS7_EESB_SB_EET2_RT_T0_T1_SC_, symObjAddr: 0x704BC, symBinAddr: 0x100072A74, symSize: 0x12C }
  - { offsetInCU: 0x911B1, offset: 0x911B1, size: 0x8, addend: 0x0, symName: __ZNSt3__14swapB8ue170006IPNS_9sub_matchINS_11__wrap_iterIPKcEEEEEENS_9enable_ifIXaasr21is_move_constructibleIT_EE5valuesr18is_move_assignableIS9_EE5valueEvE4typeERS9_SC_, symObjAddr: 0x70634, symBinAddr: 0x100072BEC, symSize: 0x3C }
  - { offsetInCU: 0x91203, offset: 0x91203, size: 0x8, addend: 0x0, symName: __ZNSt3__122__make_exception_guardB8ue170006INS_29_AllocatorDestroyRangeReverseINS_9allocatorINS_9sub_matchINS_11__wrap_iterIPKcEEEEEENS_16reverse_iteratorIPS8_EEEEEENS_28__exception_guard_exceptionsIT_EESF_, symObjAddr: 0x70738, symBinAddr: 0x100072CF0, symSize: 0x4C }
  - { offsetInCU: 0x91239, offset: 0x91239, size: 0x8, addend: 0x0, symName: __ZNSt3__1neB8ue170006IPNS_9sub_matchINS_11__wrap_iterIPKcEEEES7_EEbRKNS_16reverse_iteratorIT_EERKNS8_IT0_EE, symObjAddr: 0x707C8, symBinAddr: 0x100072D80, symSize: 0x48 }
  - { offsetInCU: 0x91285, offset: 0x91285, size: 0x8, addend: 0x0, symName: __ZNSt3__112__to_addressB8ue170006INS_16reverse_iteratorIPNS_9sub_matchINS_11__wrap_iterIPKcEEEEEEvEEu7__decayIDTclsr19__to_address_helperIT_EE6__callclsr3stdE7declvalIRKSA_EEEEESC_, symObjAddr: 0x70844, symBinAddr: 0x100072DFC, symSize: 0x24 }
  - { offsetInCU: 0x912E6, offset: 0x912E6, size: 0x8, addend: 0x0, symName: __ZNSt3__119__allocator_destroyB8ue170006INS_9allocatorINS_9sub_matchINS_11__wrap_iterIPKcEEEEEENS_16reverse_iteratorINS9_IPS7_EEEESC_EEvRT_T0_T1_, symObjAddr: 0x70B24, symBinAddr: 0x1000730DC, symSize: 0x70 }
  - { offsetInCU: 0x9134B, offset: 0x9134B, size: 0x8, addend: 0x0, symName: __ZNSt3__1neB8ue170006INS_16reverse_iteratorIPNS_9sub_matchINS_11__wrap_iterIPKcEEEEEES9_EEbRKNS1_IT_EERKNS1_IT0_EE, symObjAddr: 0x70BD0, symBinAddr: 0x100073188, symSize: 0x60 }
  - { offsetInCU: 0x91397, offset: 0x91397, size: 0x8, addend: 0x0, symName: __ZNSt3__112__to_addressB8ue170006INS_16reverse_iteratorINS1_IPNS_9sub_matchINS_11__wrap_iterIPKcEEEEEEEEvEEu7__decayIDTclsr19__to_address_helperIT_EE6__callclsr3stdE7declvalIRKSB_EEEEESD_, symObjAddr: 0x70C30, symBinAddr: 0x1000731E8, symSize: 0x24 }
  - { offsetInCU: 0x913F8, offset: 0x913F8, size: 0x8, addend: 0x0, symName: __ZNSt3__19__advanceB8ue170006INS_11__wrap_iterIPKcEEEEvRT_NS_15iterator_traitsIS5_E15difference_typeENS_26random_access_iterator_tagE, symObjAddr: 0x710A0, symBinAddr: 0x100073658, symSize: 0x2C }
  - { offsetInCU: 0x91441, offset: 0x91441, size: 0x8, addend: 0x0, symName: __ZNSt3__18distanceB8ue170006INS_11__wrap_iterIPKcEEEENS_15iterator_traitsIT_E15difference_typeES6_S6_, symObjAddr: 0x71204, symBinAddr: 0x1000737BC, symSize: 0x3C }
  - { offsetInCU: 0x91484, offset: 0x91484, size: 0x8, addend: 0x0, symName: __ZNSt3__110__distanceB8ue170006INS_11__wrap_iterIPKcEEEENS_15iterator_traitsIT_E15difference_typeES6_S6_NS_26random_access_iterator_tagE, symObjAddr: 0x7138C, symBinAddr: 0x100073944, symSize: 0x30 }
  - { offsetInCU: 0x914D1, offset: 0x914D1, size: 0x8, addend: 0x0, symName: __ZNSt3__1miB8ue170006IPKcS2_EEDTmicldtfp_4baseEcldtfp0_4baseEERKNS_11__wrap_iterIT_EERKNS4_IT0_EE, symObjAddr: 0x713BC, symBinAddr: 0x100073974, symSize: 0x40 }
  - { offsetInCU: 0x91680, offset: 0x91680, size: 0x8, addend: 0x0, symName: __ZNSt3__116forward_as_tupleB8ue170006IJZN7httplib6Server19handle_file_requestERKNS1_7RequestERNS1_8ResponseEbEUlmmRNS1_8DataSinkEE_EEENS_5tupleIJDpOT_EEESE_, symObjAddr: 0x71E64, symBinAddr: 0x10007441C, symSize: 0x2C }
  - { offsetInCU: 0x916B9, offset: 0x916B9, size: 0x8, addend: 0x0, symName: __ZNSt3__116forward_as_tupleB8ue170006IJNS_9allocatorIZN7httplib6Server19handle_file_requestERKNS2_7RequestERNS2_8ResponseEbEUlmmRNS2_8DataSinkEE_EEEEENS_5tupleIJDpOT_EEESG_, symObjAddr: 0x71E90, symBinAddr: 0x100074448, symSize: 0x2C }
  - { offsetInCU: 0x9171C, offset: 0x9171C, size: 0x8, addend: 0x0, symName: __ZNSt3__13getB8ue170006ILm0EJOZN7httplib6Server19handle_file_requestERKNS1_7RequestERNS1_8ResponseEbEUlmmRNS1_8DataSinkEE_EEERNS_13tuple_elementIXT_ENS_5tupleIJDpT0_EEEE4typeERSG_, symObjAddr: 0x721FC, symBinAddr: 0x1000747B4, symSize: 0x24 }
  - { offsetInCU: 0x9175E, offset: 0x9175E, size: 0x8, addend: 0x0, symName: __ZNSt3__13getB8ue170006ILm0EJONS_9allocatorIZN7httplib6Server19handle_file_requestERKNS2_7RequestERNS2_8ResponseEbEUlmmRNS2_8DataSinkEE_EEEEERNS_13tuple_elementIXT_ENS_5tupleIJDpT0_EEEE4typeERSI_, symObjAddr: 0x72314, symBinAddr: 0x1000748CC, symSize: 0x24 }
  - { offsetInCU: 0x91C84, offset: 0x91C84, size: 0x8, addend: 0x0, symName: __ZNSt3__116forward_as_tupleB8ue170006IJRKZN7httplib6Server19handle_file_requestERKNS1_7RequestERNS1_8ResponseEbEUlmmRNS1_8DataSinkEE_EEENS_5tupleIJDpOT_EEESG_, symObjAddr: 0x7297C, symBinAddr: 0x100074F34, symSize: 0x2C }
  - { offsetInCU: 0x91CD2, offset: 0x91CD2, size: 0x8, addend: 0x0, symName: __ZNSt3__13getB8ue170006ILm0EJRKZN7httplib6Server19handle_file_requestERKNS1_7RequestERNS1_8ResponseEbEUlmmRNS1_8DataSinkEE_EEERNS_13tuple_elementIXT_ENS_5tupleIJDpT0_EEEE4typeERSH_, symObjAddr: 0x72B6C, symBinAddr: 0x100075124, symSize: 0x24 }
  - { offsetInCU: 0x91D14, offset: 0x91D14, size: 0x8, addend: 0x0, symName: __ZNSt3__116forward_as_tupleB8ue170006IJRKNS_9allocatorIZN7httplib6Server19handle_file_requestERKNS2_7RequestERNS2_8ResponseEbEUlmmRNS2_8DataSinkEE_EEEEENS_5tupleIJDpOT_EEESI_, symObjAddr: 0x72F34, symBinAddr: 0x1000754EC, symSize: 0x2C }
  - { offsetInCU: 0x91D62, offset: 0x91D62, size: 0x8, addend: 0x0, symName: __ZNSt3__13getB8ue170006ILm0EJRKNS_9allocatorIZN7httplib6Server19handle_file_requestERKNS2_7RequestERNS2_8ResponseEbEUlmmRNS2_8DataSinkEE_EEEEERNS_13tuple_elementIXT_ENS_5tupleIJDpT0_EEEE4typeERSJ_, symObjAddr: 0x73140, symBinAddr: 0x1000756F8, symSize: 0x24 }
  - { offsetInCU: 0x91DA4, offset: 0x91DA4, size: 0x8, addend: 0x0, symName: __ZNSt3__18__invokeB8ue170006IRZN7httplib6Server19handle_file_requestERKNS1_7RequestERNS1_8ResponseEbEUlmmRNS1_8DataSinkEE_JmmS9_EEEDTclclsr3stdE7declvalIT_EEspclsr3stdE7declvalIT0_EEEEOSC_DpOSD_, symObjAddr: 0x73248, symBinAddr: 0x100075800, symSize: 0x48 }
  - { offsetInCU: 0x92464, offset: 0x92464, size: 0x8, addend: 0x0, symName: __ZNSt3__116forward_as_tupleB8ue170006IJZN7httplib6Server7routingERNS1_7RequestERNS1_8ResponseERNS1_6StreamEEUlNS_8functionIFbPKcmEEEE_EEENS_5tupleIJDpOT_EEESI_, symObjAddr: 0x73FF8, symBinAddr: 0x1000765B0, symSize: 0x2C }
  - { offsetInCU: 0x9249D, offset: 0x9249D, size: 0x8, addend: 0x0, symName: __ZNSt3__116forward_as_tupleB8ue170006IJNS_9allocatorIZN7httplib6Server7routingERNS2_7RequestERNS2_8ResponseERNS2_6StreamEEUlNS_8functionIFbPKcmEEEE_EEEEENS_5tupleIJDpOT_EEESK_, symObjAddr: 0x74024, symBinAddr: 0x1000765DC, symSize: 0x2C }
  - { offsetInCU: 0x92500, offset: 0x92500, size: 0x8, addend: 0x0, symName: __ZNSt3__13getB8ue170006ILm0EJOZN7httplib6Server7routingERNS1_7RequestERNS1_8ResponseERNS1_6StreamEEUlNS_8functionIFbPKcmEEEE_EEERNS_13tuple_elementIXT_ENS_5tupleIJDpT0_EEEE4typeERSK_, symObjAddr: 0x74344, symBinAddr: 0x1000768FC, symSize: 0x24 }
  - { offsetInCU: 0x92542, offset: 0x92542, size: 0x8, addend: 0x0, symName: __ZNSt3__13getB8ue170006ILm0EJONS_9allocatorIZN7httplib6Server7routingERNS2_7RequestERNS2_8ResponseERNS2_6StreamEEUlNS_8functionIFbPKcmEEEE_EEEEERNS_13tuple_elementIXT_ENS_5tupleIJDpT0_EEEE4typeERSM_, symObjAddr: 0x74380, symBinAddr: 0x100076938, symSize: 0x24 }
  - { offsetInCU: 0x92710, offset: 0x92710, size: 0x8, addend: 0x0, symName: __ZNSt3__116forward_as_tupleB8ue170006IJRKZN7httplib6Server7routingERNS1_7RequestERNS1_8ResponseERNS1_6StreamEEUlNS_8functionIFbPKcmEEEE_EEENS_5tupleIJDpOT_EEESK_, symObjAddr: 0x7477C, symBinAddr: 0x100076D34, symSize: 0x2C }
  - { offsetInCU: 0x9275E, offset: 0x9275E, size: 0x8, addend: 0x0, symName: __ZNSt3__13getB8ue170006ILm0EJRKZN7httplib6Server7routingERNS1_7RequestERNS1_8ResponseERNS1_6StreamEEUlNS_8functionIFbPKcmEEEE_EEERNS_13tuple_elementIXT_ENS_5tupleIJDpT0_EEEE4typeERSL_, symObjAddr: 0x74974, symBinAddr: 0x100076F2C, symSize: 0x24 }
  - { offsetInCU: 0x927A0, offset: 0x927A0, size: 0x8, addend: 0x0, symName: __ZNSt3__116forward_as_tupleB8ue170006IJRKNS_9allocatorIZN7httplib6Server7routingERNS2_7RequestERNS2_8ResponseERNS2_6StreamEEUlNS_8functionIFbPKcmEEEE_EEEEENS_5tupleIJDpOT_EEESM_, symObjAddr: 0x74CD4, symBinAddr: 0x10007728C, symSize: 0x2C }
  - { offsetInCU: 0x927EE, offset: 0x927EE, size: 0x8, addend: 0x0, symName: __ZNSt3__13getB8ue170006ILm0EJRKNS_9allocatorIZN7httplib6Server7routingERNS2_7RequestERNS2_8ResponseERNS2_6StreamEEUlNS_8functionIFbPKcmEEEE_EEEEERNS_13tuple_elementIXT_ENS_5tupleIJDpT0_EEEE4typeERSN_, symObjAddr: 0x74EB8, symBinAddr: 0x100077470, symSize: 0x24 }
  - { offsetInCU: 0x92830, offset: 0x92830, size: 0x8, addend: 0x0, symName: __ZNSt3__18__invokeB8ue170006IRZN7httplib6Server7routingERNS1_7RequestERNS1_8ResponseERNS1_6StreamEEUlNS_8functionIFbPKcmEEEE_JSD_EEEDTclclsr3stdE7declvalIT_EEspclsr3stdE7declvalIT0_EEEEOSG_DpOSH_, symObjAddr: 0x74F8C, symBinAddr: 0x100077544, symSize: 0xB0 }
  - { offsetInCU: 0x92881, offset: 0x92881, size: 0x8, addend: 0x0, symName: __ZNSt3__110__str_findB8ue170006IcmNS_11char_traitsIcEELm18446744073709551615EEET0_PKT_S3_S6_S3_S3_, symObjAddr: 0x7621C, symBinAddr: 0x1000787D4, symSize: 0xE4 }
  - { offsetInCU: 0x92929, offset: 0x92929, size: 0x8, addend: 0x0, symName: __ZNSt3__118__search_substringB8ue170006IcNS_11char_traitsIcEEEEPKT_S5_S5_S5_S5_, symObjAddr: 0x76300, symBinAddr: 0x1000788B8, symSize: 0x154 }
  - { offsetInCU: 0x9300D, offset: 0x9300D, size: 0x8, addend: 0x0, symName: __ZNSt3__116forward_as_tupleB8ue170006IJZNK7httplib6Server17read_content_coreERNS1_6StreamERNS1_7RequestERNS1_8ResponseENS_8functionIFbPKcmEEENS9_IFbRKNS1_17MultipartFormDataEEEESD_EUlSB_myyE_EEENS_5tupleIJDpOT_EEESN_, symObjAddr: 0x77014, symBinAddr: 0x1000795CC, symSize: 0x2C }
  - { offsetInCU: 0x93046, offset: 0x93046, size: 0x8, addend: 0x0, symName: __ZNSt3__116forward_as_tupleB8ue170006IJNS_9allocatorIZNK7httplib6Server17read_content_coreERNS2_6StreamERNS2_7RequestERNS2_8ResponseENS_8functionIFbPKcmEEENSA_IFbRKNS2_17MultipartFormDataEEEESE_EUlSC_myyE_EEEEENS_5tupleIJDpOT_EEESP_, symObjAddr: 0x77040, symBinAddr: 0x1000795F8, symSize: 0x2C }
  - { offsetInCU: 0x930A9, offset: 0x930A9, size: 0x8, addend: 0x0, symName: __ZNSt3__13getB8ue170006ILm0EJOZNK7httplib6Server17read_content_coreERNS1_6StreamERNS1_7RequestERNS1_8ResponseENS_8functionIFbPKcmEEENS9_IFbRKNS1_17MultipartFormDataEEEESD_EUlSB_myyE_EEERNS_13tuple_elementIXT_ENS_5tupleIJDpT0_EEEE4typeERSP_, symObjAddr: 0x77360, symBinAddr: 0x100079918, symSize: 0x24 }
  - { offsetInCU: 0x930EB, offset: 0x930EB, size: 0x8, addend: 0x0, symName: __ZNSt3__13getB8ue170006ILm0EJONS_9allocatorIZNK7httplib6Server17read_content_coreERNS2_6StreamERNS2_7RequestERNS2_8ResponseENS_8functionIFbPKcmEEENSA_IFbRKNS2_17MultipartFormDataEEEESE_EUlSC_myyE_EEEEERNS_13tuple_elementIXT_ENS_5tupleIJDpT0_EEEE4typeERSR_, symObjAddr: 0x7739C, symBinAddr: 0x100079954, symSize: 0x24 }
  - { offsetInCU: 0x932B9, offset: 0x932B9, size: 0x8, addend: 0x0, symName: __ZNSt3__116forward_as_tupleB8ue170006IJRKZNK7httplib6Server17read_content_coreERNS1_6StreamERNS1_7RequestERNS1_8ResponseENS_8functionIFbPKcmEEENS9_IFbRKNS1_17MultipartFormDataEEEESD_EUlSB_myyE_EEENS_5tupleIJDpOT_EEESP_, symObjAddr: 0x77798, symBinAddr: 0x100079D50, symSize: 0x2C }
  - { offsetInCU: 0x93307, offset: 0x93307, size: 0x8, addend: 0x0, symName: __ZNSt3__13getB8ue170006ILm0EJRKZNK7httplib6Server17read_content_coreERNS1_6StreamERNS1_7RequestERNS1_8ResponseENS_8functionIFbPKcmEEENS9_IFbRKNS1_17MultipartFormDataEEEESD_EUlSB_myyE_EEERNS_13tuple_elementIXT_ENS_5tupleIJDpT0_EEEE4typeERSQ_, symObjAddr: 0x77990, symBinAddr: 0x100079F48, symSize: 0x24 }
  - { offsetInCU: 0x93349, offset: 0x93349, size: 0x8, addend: 0x0, symName: __ZNSt3__116forward_as_tupleB8ue170006IJRKNS_9allocatorIZNK7httplib6Server17read_content_coreERNS2_6StreamERNS2_7RequestERNS2_8ResponseENS_8functionIFbPKcmEEENSA_IFbRKNS2_17MultipartFormDataEEEESE_EUlSC_myyE_EEEEENS_5tupleIJDpOT_EEESR_, symObjAddr: 0x77CEC, symBinAddr: 0x10007A2A4, symSize: 0x2C }
  - { offsetInCU: 0x93397, offset: 0x93397, size: 0x8, addend: 0x0, symName: __ZNSt3__13getB8ue170006ILm0EJRKNS_9allocatorIZNK7httplib6Server17read_content_coreERNS2_6StreamERNS2_7RequestERNS2_8ResponseENS_8functionIFbPKcmEEENSA_IFbRKNS2_17MultipartFormDataEEEESE_EUlSC_myyE_EEEEERNS_13tuple_elementIXT_ENS_5tupleIJDpT0_EEEE4typeERSS_, symObjAddr: 0x77ED0, symBinAddr: 0x10007A488, symSize: 0x24 }
  - { offsetInCU: 0x933D9, offset: 0x933D9, size: 0x8, addend: 0x0, symName: __ZNSt3__18__invokeB8ue170006IRZNK7httplib6Server17read_content_coreERNS1_6StreamERNS1_7RequestERNS1_8ResponseENS_8functionIFbPKcmEEENS9_IFbRKNS1_17MultipartFormDataEEEESD_EUlSB_myyE_JSB_myyEEEDTclclsr3stdE7declvalIT_EEspclsr3stdE7declvalIT0_EEEEOSL_DpOSM_, symObjAddr: 0x77FD4, symBinAddr: 0x10007A58C, symSize: 0x58 }
  - { offsetInCU: 0x93466, offset: 0x93466, size: 0x8, addend: 0x0, symName: __ZNSt3__111regex_matchB8ue170006INS_11char_traitsIcEENS_9allocatorIcEENS3_INS_9sub_matchINS_11__wrap_iterIPKcEEEEEEcNS_12regex_traitsIcEEEEbRKNS_12basic_stringIT2_T_T0_EERNS_13match_resultsINSI_14const_iteratorET1_EERKNS_11basic_regexISF_T3_EENS_15regex_constants15match_flag_typeE, symObjAddr: 0x79790, symBinAddr: 0x10007BD48, symSize: 0x5C }
  - { offsetInCU: 0x934EE, offset: 0x934EE, size: 0x8, addend: 0x0, symName: __ZNSt3__111regex_matchB8ue170006INS_11__wrap_iterIPKcEENS_9allocatorINS_9sub_matchIS4_EEEEcNS_12regex_traitsIcEEEEbT_SB_RNS_13match_resultsISB_T0_EERKNS_11basic_regexIT1_T2_EENS_15regex_constants15match_flag_typeE, symObjAddr: 0x79B90, symBinAddr: 0x10007C148, symSize: 0xD0 }
  - { offsetInCU: 0x9358C, offset: 0x9358C, size: 0x8, addend: 0x0, symName: __ZNSt3__112regex_searchB8ue170006IPKcNS_9allocatorINS_9sub_matchINS_11__wrap_iterIS2_EEEEEEcNS_12regex_traitsIcEEEEbNS5_IT_EESC_RNS_13match_resultsISC_T0_EERKNS_11basic_regexIT1_T2_EENS_15regex_constants15match_flag_typeE, symObjAddr: 0x79C60, symBinAddr: 0x10007C218, symSize: 0x124 }
  - { offsetInCU: 0x9379F, offset: 0x9379F, size: 0x8, addend: 0x0, symName: __ZNSt3__116forward_as_tupleB8ue170006IJZN7httplib6detail24parse_disposition_paramsERKNS_12basic_stringIcNS_11char_traitsIcEENS_9allocatorIcEEEERNS_8multimapIS8_S8_NS_4lessIS8_EENS6_INS_4pairIS9_S8_EEEEEEEUlPKcSK_E_EEENS_5tupleIJDpOT_EEESP_, symObjAddr: 0x7A514, symBinAddr: 0x10007CACC, symSize: 0x2C }
  - { offsetInCU: 0x937D8, offset: 0x937D8, size: 0x8, addend: 0x0, symName: __ZNSt3__116forward_as_tupleB8ue170006IJNS_9allocatorIZN7httplib6detail24parse_disposition_paramsERKNS_12basic_stringIcNS_11char_traitsIcEENS1_IcEEEERNS_8multimapIS8_S8_NS_4lessIS8_EENS1_INS_4pairIS9_S8_EEEEEEEUlPKcSK_E_EEEEENS_5tupleIJDpOT_EEESQ_, symObjAddr: 0x7A540, symBinAddr: 0x10007CAF8, symSize: 0x2C }
  - { offsetInCU: 0x9383B, offset: 0x9383B, size: 0x8, addend: 0x0, symName: __ZNSt3__13getB8ue170006ILm0EJOZN7httplib6detail24parse_disposition_paramsERKNS_12basic_stringIcNS_11char_traitsIcEENS_9allocatorIcEEEERNS_8multimapIS8_S8_NS_4lessIS8_EENS6_INS_4pairIS9_S8_EEEEEEEUlPKcSK_E_EEERNS_13tuple_elementIXT_ENS_5tupleIJDpT0_EEEE4typeERSR_, symObjAddr: 0x7A858, symBinAddr: 0x10007CE10, symSize: 0x24 }
  - { offsetInCU: 0x9387D, offset: 0x9387D, size: 0x8, addend: 0x0, symName: __ZNSt3__13getB8ue170006ILm0EJONS_9allocatorIZN7httplib6detail24parse_disposition_paramsERKNS_12basic_stringIcNS_11char_traitsIcEENS1_IcEEEERNS_8multimapIS8_S8_NS_4lessIS8_EENS1_INS_4pairIS9_S8_EEEEEEEUlPKcSK_E_EEEEERNS_13tuple_elementIXT_ENS_5tupleIJDpT0_EEEE4typeERSS_, symObjAddr: 0x7A894, symBinAddr: 0x10007CE4C, symSize: 0x24 }
  - { offsetInCU: 0x93DA3, offset: 0x93DA3, size: 0x8, addend: 0x0, symName: __ZNSt3__116forward_as_tupleB8ue170006IJRKZN7httplib6detail24parse_disposition_paramsERKNS_12basic_stringIcNS_11char_traitsIcEENS_9allocatorIcEEEERNS_8multimapIS8_S8_NS_4lessIS8_EENS6_INS_4pairIS9_S8_EEEEEEEUlPKcSK_E_EEENS_5tupleIJDpOT_EEESR_, symObjAddr: 0x7AE30, symBinAddr: 0x10007D3E8, symSize: 0x2C }
  - { offsetInCU: 0x93DF1, offset: 0x93DF1, size: 0x8, addend: 0x0, symName: __ZNSt3__13getB8ue170006ILm0EJRKZN7httplib6detail24parse_disposition_paramsERKNS_12basic_stringIcNS_11char_traitsIcEENS_9allocatorIcEEEERNS_8multimapIS8_S8_NS_4lessIS8_EENS6_INS_4pairIS9_S8_EEEEEEEUlPKcSK_E_EEERNS_13tuple_elementIXT_ENS_5tupleIJDpT0_EEEE4typeERSS_, symObjAddr: 0x7B020, symBinAddr: 0x10007D5D8, symSize: 0x24 }
  - { offsetInCU: 0x93E33, offset: 0x93E33, size: 0x8, addend: 0x0, symName: __ZNSt3__116forward_as_tupleB8ue170006IJRKNS_9allocatorIZN7httplib6detail24parse_disposition_paramsERKNS_12basic_stringIcNS_11char_traitsIcEENS1_IcEEEERNS_8multimapIS8_S8_NS_4lessIS8_EENS1_INS_4pairIS9_S8_EEEEEEEUlPKcSK_E_EEEEENS_5tupleIJDpOT_EEESS_, symObjAddr: 0x7B380, symBinAddr: 0x10007D938, symSize: 0x2C }
  - { offsetInCU: 0x93E81, offset: 0x93E81, size: 0x8, addend: 0x0, symName: __ZNSt3__13getB8ue170006ILm0EJRKNS_9allocatorIZN7httplib6detail24parse_disposition_paramsERKNS_12basic_stringIcNS_11char_traitsIcEENS1_IcEEEERNS_8multimapIS8_S8_NS_4lessIS8_EENS1_INS_4pairIS9_S8_EEEEEEEUlPKcSK_E_EEEEERNS_13tuple_elementIXT_ENS_5tupleIJDpT0_EEEE4typeERST_, symObjAddr: 0x7B564, symBinAddr: 0x10007DB1C, symSize: 0x24 }
  - { offsetInCU: 0x93EC4, offset: 0x93EC4, size: 0x8, addend: 0x0, symName: __ZNSt3__18__invokeB8ue170006IRZN7httplib6detail24parse_disposition_paramsERKNS_12basic_stringIcNS_11char_traitsIcEENS_9allocatorIcEEEERNS_8multimapIS8_S8_NS_4lessIS8_EENS6_INS_4pairIS9_S8_EEEEEEEUlPKcSK_E_JSK_SK_EEEDTclclsr3stdE7declvalIT_EEspclsr3stdE7declvalIT0_EEEEOSN_DpOSO_, symObjAddr: 0x7B640, symBinAddr: 0x10007DBF8, symSize: 0x3C }
  - { offsetInCU: 0x94088, offset: 0x94088, size: 0x8, addend: 0x0, symName: __ZNSt3__116forward_as_tupleB8ue170006IJZZN7httplib6detail24parse_disposition_paramsERKNS_12basic_stringIcNS_11char_traitsIcEENS_9allocatorIcEEEERNS_8multimapIS8_S8_NS_4lessIS8_EENS6_INS_4pairIS9_S8_EEEEEEENKUlPKcSK_E_clESK_SK_EUlSK_SK_E_EEENS_5tupleIJDpOT_EEESQ_, symObjAddr: 0x7C1D0, symBinAddr: 0x10007E788, symSize: 0x2C }
  - { offsetInCU: 0x940C1, offset: 0x940C1, size: 0x8, addend: 0x0, symName: __ZNSt3__116forward_as_tupleB8ue170006IJNS_9allocatorIZZN7httplib6detail24parse_disposition_paramsERKNS_12basic_stringIcNS_11char_traitsIcEENS1_IcEEEERNS_8multimapIS8_S8_NS_4lessIS8_EENS1_INS_4pairIS9_S8_EEEEEEENKUlPKcSK_E_clESK_SK_EUlSK_SK_E_EEEEENS_5tupleIJDpOT_EEESR_, symObjAddr: 0x7C1FC, symBinAddr: 0x10007E7B4, symSize: 0x2C }
  - { offsetInCU: 0x94124, offset: 0x94124, size: 0x8, addend: 0x0, symName: __ZNSt3__13getB8ue170006ILm0EJOZZN7httplib6detail24parse_disposition_paramsERKNS_12basic_stringIcNS_11char_traitsIcEENS_9allocatorIcEEEERNS_8multimapIS8_S8_NS_4lessIS8_EENS6_INS_4pairIS9_S8_EEEEEEENKUlPKcSK_E_clESK_SK_EUlSK_SK_E_EEERNS_13tuple_elementIXT_ENS_5tupleIJDpT0_EEEE4typeERSS_, symObjAddr: 0x7C514, symBinAddr: 0x10007EACC, symSize: 0x24 }
  - { offsetInCU: 0x94166, offset: 0x94166, size: 0x8, addend: 0x0, symName: __ZNSt3__13getB8ue170006ILm0EJONS_9allocatorIZZN7httplib6detail24parse_disposition_paramsERKNS_12basic_stringIcNS_11char_traitsIcEENS1_IcEEEERNS_8multimapIS8_S8_NS_4lessIS8_EENS1_INS_4pairIS9_S8_EEEEEEENKUlPKcSK_E_clESK_SK_EUlSK_SK_E_EEEEERNS_13tuple_elementIXT_ENS_5tupleIJDpT0_EEEE4typeERST_, symObjAddr: 0x7C550, symBinAddr: 0x10007EB08, symSize: 0x24 }
  - { offsetInCU: 0x9468C, offset: 0x9468C, size: 0x8, addend: 0x0, symName: __ZNSt3__116forward_as_tupleB8ue170006IJRKZZN7httplib6detail24parse_disposition_paramsERKNS_12basic_stringIcNS_11char_traitsIcEENS_9allocatorIcEEEERNS_8multimapIS8_S8_NS_4lessIS8_EENS6_INS_4pairIS9_S8_EEEEEEENKUlPKcSK_E_clESK_SK_EUlSK_SK_E_EEENS_5tupleIJDpOT_EEESS_, symObjAddr: 0x7CAEC, symBinAddr: 0x10007F0A4, symSize: 0x2C }
  - { offsetInCU: 0x946DA, offset: 0x946DA, size: 0x8, addend: 0x0, symName: __ZNSt3__13getB8ue170006ILm0EJRKZZN7httplib6detail24parse_disposition_paramsERKNS_12basic_stringIcNS_11char_traitsIcEENS_9allocatorIcEEEERNS_8multimapIS8_S8_NS_4lessIS8_EENS6_INS_4pairIS9_S8_EEEEEEENKUlPKcSK_E_clESK_SK_EUlSK_SK_E_EEERNS_13tuple_elementIXT_ENS_5tupleIJDpT0_EEEE4typeERST_, symObjAddr: 0x7CCDC, symBinAddr: 0x10007F294, symSize: 0x24 }
  - { offsetInCU: 0x9471C, offset: 0x9471C, size: 0x8, addend: 0x0, symName: __ZNSt3__116forward_as_tupleB8ue170006IJRKNS_9allocatorIZZN7httplib6detail24parse_disposition_paramsERKNS_12basic_stringIcNS_11char_traitsIcEENS1_IcEEEERNS_8multimapIS8_S8_NS_4lessIS8_EENS1_INS_4pairIS9_S8_EEEEEEENKUlPKcSK_E_clESK_SK_EUlSK_SK_E_EEEEENS_5tupleIJDpOT_EEEST_, symObjAddr: 0x7D03C, symBinAddr: 0x10007F5F4, symSize: 0x2C }
  - { offsetInCU: 0x9476A, offset: 0x9476A, size: 0x8, addend: 0x0, symName: __ZNSt3__13getB8ue170006ILm0EJRKNS_9allocatorIZZN7httplib6detail24parse_disposition_paramsERKNS_12basic_stringIcNS_11char_traitsIcEENS1_IcEEEERNS_8multimapIS8_S8_NS_4lessIS8_EENS1_INS_4pairIS9_S8_EEEEEEENKUlPKcSK_E_clESK_SK_EUlSK_SK_E_EEEEERNS_13tuple_elementIXT_ENS_5tupleIJDpT0_EEEE4typeERSU_, symObjAddr: 0x7D220, symBinAddr: 0x10007F7D8, symSize: 0x24 }
  - { offsetInCU: 0x947AD, offset: 0x947AD, size: 0x8, addend: 0x0, symName: __ZNSt3__18__invokeB8ue170006IRZZN7httplib6detail24parse_disposition_paramsERKNS_12basic_stringIcNS_11char_traitsIcEENS_9allocatorIcEEEERNS_8multimapIS8_S8_NS_4lessIS8_EENS6_INS_4pairIS9_S8_EEEEEEENKUlPKcSK_E_clESK_SK_EUlSK_SK_E_JSK_SK_EEEDTclclsr3stdE7declvalIT_EEspclsr3stdE7declvalIT0_EEEEOSO_DpOSP_, symObjAddr: 0x7D2FC, symBinAddr: 0x10007F8B4, symSize: 0x3C }
  - { offsetInCU: 0x9480E, offset: 0x9480E, size: 0x8, addend: 0x0, symName: __ZNSt3__14swapB8ue170006IPNS_10__function6__baseIFbPKcmyyEEEEENS_9enable_ifIXaasr21is_move_constructibleIT_EE5valuesr18is_move_assignableIS9_EE5valueEvE4typeERS9_SC_, symObjAddr: 0x7DBE0, symBinAddr: 0x100080198, symSize: 0x3C }
  - { offsetInCU: 0x94E9C, offset: 0x94E9C, size: 0x8, addend: 0x0, symName: __ZNSt3__116forward_as_tupleB8ue170006IJZNK7httplib6Server17read_content_coreERNS1_6StreamERNS1_7RequestERNS1_8ResponseENS_8functionIFbPKcmEEENS9_IFbRKNS1_17MultipartFormDataEEEESD_EUlSB_myyE0_EEENS_5tupleIJDpOT_EEESN_, symObjAddr: 0x7E800, symBinAddr: 0x100080DB8, symSize: 0x2C }
  - { offsetInCU: 0x94ED5, offset: 0x94ED5, size: 0x8, addend: 0x0, symName: __ZNSt3__116forward_as_tupleB8ue170006IJNS_9allocatorIZNK7httplib6Server17read_content_coreERNS2_6StreamERNS2_7RequestERNS2_8ResponseENS_8functionIFbPKcmEEENSA_IFbRKNS2_17MultipartFormDataEEEESE_EUlSC_myyE0_EEEEENS_5tupleIJDpOT_EEESP_, symObjAddr: 0x7E82C, symBinAddr: 0x100080DE4, symSize: 0x2C }
  - { offsetInCU: 0x94F38, offset: 0x94F38, size: 0x8, addend: 0x0, symName: __ZNSt3__13getB8ue170006ILm0EJOZNK7httplib6Server17read_content_coreERNS1_6StreamERNS1_7RequestERNS1_8ResponseENS_8functionIFbPKcmEEENS9_IFbRKNS1_17MultipartFormDataEEEESD_EUlSB_myyE0_EEERNS_13tuple_elementIXT_ENS_5tupleIJDpT0_EEEE4typeERSP_, symObjAddr: 0x7EB98, symBinAddr: 0x100081150, symSize: 0x24 }
  - { offsetInCU: 0x94F7A, offset: 0x94F7A, size: 0x8, addend: 0x0, symName: __ZNSt3__13getB8ue170006ILm0EJONS_9allocatorIZNK7httplib6Server17read_content_coreERNS2_6StreamERNS2_7RequestERNS2_8ResponseENS_8functionIFbPKcmEEENSA_IFbRKNS2_17MultipartFormDataEEEESE_EUlSC_myyE0_EEEEERNS_13tuple_elementIXT_ENS_5tupleIJDpT0_EEEE4typeERSR_, symObjAddr: 0x7EBD4, symBinAddr: 0x10008118C, symSize: 0x24 }
  - { offsetInCU: 0x95148, offset: 0x95148, size: 0x8, addend: 0x0, symName: __ZNSt3__116forward_as_tupleB8ue170006IJRKZNK7httplib6Server17read_content_coreERNS1_6StreamERNS1_7RequestERNS1_8ResponseENS_8functionIFbPKcmEEENS9_IFbRKNS1_17MultipartFormDataEEEESD_EUlSB_myyE0_EEENS_5tupleIJDpOT_EEESP_, symObjAddr: 0x7F09C, symBinAddr: 0x100081654, symSize: 0x2C }
  - { offsetInCU: 0x95196, offset: 0x95196, size: 0x8, addend: 0x0, symName: __ZNSt3__13getB8ue170006ILm0EJRKZNK7httplib6Server17read_content_coreERNS1_6StreamERNS1_7RequestERNS1_8ResponseENS_8functionIFbPKcmEEENS9_IFbRKNS1_17MultipartFormDataEEEESD_EUlSB_myyE0_EEERNS_13tuple_elementIXT_ENS_5tupleIJDpT0_EEEE4typeERSQ_, symObjAddr: 0x7F28C, symBinAddr: 0x100081844, symSize: 0x24 }
  - { offsetInCU: 0x951D8, offset: 0x951D8, size: 0x8, addend: 0x0, symName: __ZNSt3__116forward_as_tupleB8ue170006IJRKNS_9allocatorIZNK7httplib6Server17read_content_coreERNS2_6StreamERNS2_7RequestERNS2_8ResponseENS_8functionIFbPKcmEEENSA_IFbRKNS2_17MultipartFormDataEEEESE_EUlSC_myyE0_EEEEENS_5tupleIJDpOT_EEESR_, symObjAddr: 0x7F654, symBinAddr: 0x100081C0C, symSize: 0x2C }
  - { offsetInCU: 0x95226, offset: 0x95226, size: 0x8, addend: 0x0, symName: __ZNSt3__13getB8ue170006ILm0EJRKNS_9allocatorIZNK7httplib6Server17read_content_coreERNS2_6StreamERNS2_7RequestERNS2_8ResponseENS_8functionIFbPKcmEEENSA_IFbRKNS2_17MultipartFormDataEEEESE_EUlSC_myyE0_EEEEERNS_13tuple_elementIXT_ENS_5tupleIJDpT0_EEEE4typeERSS_, symObjAddr: 0x7F860, symBinAddr: 0x100081E18, symSize: 0x24 }
  - { offsetInCU: 0x95268, offset: 0x95268, size: 0x8, addend: 0x0, symName: __ZNSt3__18__invokeB8ue170006IRZNK7httplib6Server17read_content_coreERNS1_6StreamERNS1_7RequestERNS1_8ResponseENS_8functionIFbPKcmEEENS9_IFbRKNS1_17MultipartFormDataEEEESD_EUlSB_myyE0_JSB_myyEEEDTclclsr3stdE7declvalIT_EEspclsr3stdE7declvalIT0_EEEEOSL_DpOSM_, symObjAddr: 0x7F978, symBinAddr: 0x100081F30, symSize: 0x58 }
  - { offsetInCU: 0x95458, offset: 0x95458, size: 0x8, addend: 0x0, symName: __ZNSt3__116forward_as_tupleB8ue170006IJZN7httplib6detail24prepare_content_receiverINS1_7RequestEZNS2_12read_contentIS4_EEbRNS1_6StreamERT_mRiNS_8functionIFbyyEEENSB_IFbPKcmyyEEEbEUlRKSH_E_EEbS9_SA_SH_bT0_EUlSF_myyE_EEENS_5tupleIJDpOT_EEESQ_, symObjAddr: 0x80B10, symBinAddr: 0x1000830C8, symSize: 0x2C }
  - { offsetInCU: 0x95491, offset: 0x95491, size: 0x8, addend: 0x0, symName: __ZNSt3__116forward_as_tupleB8ue170006IJNS_9allocatorIZN7httplib6detail24prepare_content_receiverINS2_7RequestEZNS3_12read_contentIS5_EEbRNS2_6StreamERT_mRiNS_8functionIFbyyEEENSC_IFbPKcmyyEEEbEUlRKSI_E_EEbSA_SB_SI_bT0_EUlSG_myyE_EEEEENS_5tupleIJDpOT_EEESS_, symObjAddr: 0x80B3C, symBinAddr: 0x1000830F4, symSize: 0x2C }
  - { offsetInCU: 0x954F4, offset: 0x954F4, size: 0x8, addend: 0x0, symName: __ZNSt3__13getB8ue170006ILm0EJOZN7httplib6detail24prepare_content_receiverINS1_7RequestEZNS2_12read_contentIS4_EEbRNS1_6StreamERT_mRiNS_8functionIFbyyEEENSB_IFbPKcmyyEEEbEUlRKSH_E_EEbS9_SA_SH_bT0_EUlSF_myyE_EEERNS_13tuple_elementIXT_ENS_5tupleIJDpT0_EEEE4typeERSS_, symObjAddr: 0x80E54, symBinAddr: 0x10008340C, symSize: 0x24 }
  - { offsetInCU: 0x95536, offset: 0x95536, size: 0x8, addend: 0x0, symName: __ZNSt3__13getB8ue170006ILm0EJONS_9allocatorIZN7httplib6detail24prepare_content_receiverINS2_7RequestEZNS3_12read_contentIS5_EEbRNS2_6StreamERT_mRiNS_8functionIFbyyEEENSC_IFbPKcmyyEEEbEUlRKSI_E_EEbSA_SB_SI_bT0_EUlSG_myyE_EEEEERNS_13tuple_elementIXT_ENS_5tupleIJDpT0_EEEE4typeERSU_, symObjAddr: 0x80E90, symBinAddr: 0x100083448, symSize: 0x24 }
  - { offsetInCU: 0x95A5C, offset: 0x95A5C, size: 0x8, addend: 0x0, symName: __ZNSt3__116forward_as_tupleB8ue170006IJRKZN7httplib6detail24prepare_content_receiverINS1_7RequestEZNS2_12read_contentIS4_EEbRNS1_6StreamERT_mRiNS_8functionIFbyyEEENSB_IFbPKcmyyEEEbEUlRKSH_E_EEbS9_SA_SH_bT0_EUlSF_myyE_EEENS_5tupleIJDpOT_EEESS_, symObjAddr: 0x8142C, symBinAddr: 0x1000839E4, symSize: 0x2C }
  - { offsetInCU: 0x95AAA, offset: 0x95AAA, size: 0x8, addend: 0x0, symName: __ZNSt3__13getB8ue170006ILm0EJRKZN7httplib6detail24prepare_content_receiverINS1_7RequestEZNS2_12read_contentIS4_EEbRNS1_6StreamERT_mRiNS_8functionIFbyyEEENSB_IFbPKcmyyEEEbEUlRKSH_E_EEbS9_SA_SH_bT0_EUlSF_myyE_EEERNS_13tuple_elementIXT_ENS_5tupleIJDpT0_EEEE4typeERST_, symObjAddr: 0x8161C, symBinAddr: 0x100083BD4, symSize: 0x24 }
  - { offsetInCU: 0x95AEC, offset: 0x95AEC, size: 0x8, addend: 0x0, symName: __ZNSt3__116forward_as_tupleB8ue170006IJRKNS_9allocatorIZN7httplib6detail24prepare_content_receiverINS2_7RequestEZNS3_12read_contentIS5_EEbRNS2_6StreamERT_mRiNS_8functionIFbyyEEENSC_IFbPKcmyyEEEbEUlRKSI_E_EEbSA_SB_SI_bT0_EUlSG_myyE_EEEEENS_5tupleIJDpOT_EEESU_, symObjAddr: 0x8197C, symBinAddr: 0x100083F34, symSize: 0x2C }
  - { offsetInCU: 0x95B3A, offset: 0x95B3A, size: 0x8, addend: 0x0, symName: __ZNSt3__13getB8ue170006ILm0EJRKNS_9allocatorIZN7httplib6detail24prepare_content_receiverINS2_7RequestEZNS3_12read_contentIS5_EEbRNS2_6StreamERT_mRiNS_8functionIFbyyEEENSC_IFbPKcmyyEEEbEUlRKSI_E_EEbSA_SB_SI_bT0_EUlSG_myyE_EEEEERNS_13tuple_elementIXT_ENS_5tupleIJDpT0_EEEE4typeERSV_, symObjAddr: 0x81B60, symBinAddr: 0x100084118, symSize: 0x24 }
  - { offsetInCU: 0x95B7C, offset: 0x95B7C, size: 0x8, addend: 0x0, symName: __ZNSt3__18__invokeB8ue170006IRZN7httplib6detail24prepare_content_receiverINS1_7RequestEZNS2_12read_contentIS4_EEbRNS1_6StreamERT_mRiNS_8functionIFbyyEEENSB_IFbPKcmyyEEEbEUlRKSH_E_EEbS9_SA_SH_bT0_EUlSF_myyE_JSF_myyEEEDTclclsr3stdE7declvalIS8_EEspclsr3stdE7declvalIT0_EEEEOS8_DpOSO_, symObjAddr: 0x81C64, symBinAddr: 0x10008421C, symSize: 0x58 }
  - { offsetInCU: 0x96245, offset: 0x96245, size: 0x8, addend: 0x0, symName: __ZNSt3__116forward_as_tupleB8ue170006IJZZN7httplib6detail24prepare_content_receiverINS1_7RequestEZNS2_12read_contentIS4_EEbRNS1_6StreamERT_mRiNS_8functionIFbyyEEENSB_IFbPKcmyyEEEbEUlRKSH_E_EEbS9_SA_SH_bT0_ENKUlSF_myyE_clESF_myyEUlSF_mE_EEENS_5tupleIJDpOT_EEESR_, symObjAddr: 0x8280C, symBinAddr: 0x100084DC4, symSize: 0x2C }
  - { offsetInCU: 0x9627E, offset: 0x9627E, size: 0x8, addend: 0x0, symName: __ZNSt3__116forward_as_tupleB8ue170006IJNS_9allocatorIZZN7httplib6detail24prepare_content_receiverINS2_7RequestEZNS3_12read_contentIS5_EEbRNS2_6StreamERT_mRiNS_8functionIFbyyEEENSC_IFbPKcmyyEEEbEUlRKSI_E_EEbSA_SB_SI_bT0_ENKUlSG_myyE_clESG_myyEUlSG_mE_EEEEENS_5tupleIJDpOT_EEEST_, symObjAddr: 0x82838, symBinAddr: 0x100084DF0, symSize: 0x2C }
  - { offsetInCU: 0x962E1, offset: 0x962E1, size: 0x8, addend: 0x0, symName: __ZNSt3__13getB8ue170006ILm0EJOZZN7httplib6detail24prepare_content_receiverINS1_7RequestEZNS2_12read_contentIS4_EEbRNS1_6StreamERT_mRiNS_8functionIFbyyEEENSB_IFbPKcmyyEEEbEUlRKSH_E_EEbS9_SA_SH_bT0_ENKUlSF_myyE_clESF_myyEUlSF_mE_EEERNS_13tuple_elementIXT_ENS_5tupleIJDpT0_EEEE4typeERST_, symObjAddr: 0x82B58, symBinAddr: 0x100085110, symSize: 0x24 }
  - { offsetInCU: 0x96323, offset: 0x96323, size: 0x8, addend: 0x0, symName: __ZNSt3__13getB8ue170006ILm0EJONS_9allocatorIZZN7httplib6detail24prepare_content_receiverINS2_7RequestEZNS3_12read_contentIS5_EEbRNS2_6StreamERT_mRiNS_8functionIFbyyEEENSC_IFbPKcmyyEEEbEUlRKSI_E_EEbSA_SB_SI_bT0_ENKUlSG_myyE_clESG_myyEUlSG_mE_EEEEERNS_13tuple_elementIXT_ENS_5tupleIJDpT0_EEEE4typeERSV_, symObjAddr: 0x82B94, symBinAddr: 0x10008514C, symSize: 0x24 }
  - { offsetInCU: 0x964F1, offset: 0x964F1, size: 0x8, addend: 0x0, symName: __ZNSt3__116forward_as_tupleB8ue170006IJRKZZN7httplib6detail24prepare_content_receiverINS1_7RequestEZNS2_12read_contentIS4_EEbRNS1_6StreamERT_mRiNS_8functionIFbyyEEENSB_IFbPKcmyyEEEbEUlRKSH_E_EEbS9_SA_SH_bT0_ENKUlSF_myyE_clESF_myyEUlSF_mE_EEENS_5tupleIJDpOT_EEEST_, symObjAddr: 0x82F90, symBinAddr: 0x100085548, symSize: 0x2C }
  - { offsetInCU: 0x9653F, offset: 0x9653F, size: 0x8, addend: 0x0, symName: __ZNSt3__13getB8ue170006ILm0EJRKZZN7httplib6detail24prepare_content_receiverINS1_7RequestEZNS2_12read_contentIS4_EEbRNS1_6StreamERT_mRiNS_8functionIFbyyEEENSB_IFbPKcmyyEEEbEUlRKSH_E_EEbS9_SA_SH_bT0_ENKUlSF_myyE_clESF_myyEUlSF_mE_EEERNS_13tuple_elementIXT_ENS_5tupleIJDpT0_EEEE4typeERSU_, symObjAddr: 0x83188, symBinAddr: 0x100085740, symSize: 0x24 }
  - { offsetInCU: 0x96581, offset: 0x96581, size: 0x8, addend: 0x0, symName: __ZNSt3__116forward_as_tupleB8ue170006IJRKNS_9allocatorIZZN7httplib6detail24prepare_content_receiverINS2_7RequestEZNS3_12read_contentIS5_EEbRNS2_6StreamERT_mRiNS_8functionIFbyyEEENSC_IFbPKcmyyEEEbEUlRKSI_E_EEbSA_SB_SI_bT0_ENKUlSG_myyE_clESG_myyEUlSG_mE_EEEEENS_5tupleIJDpOT_EEESV_, symObjAddr: 0x834E4, symBinAddr: 0x100085A9C, symSize: 0x2C }
  - { offsetInCU: 0x965CF, offset: 0x965CF, size: 0x8, addend: 0x0, symName: __ZNSt3__13getB8ue170006ILm0EJRKNS_9allocatorIZZN7httplib6detail24prepare_content_receiverINS2_7RequestEZNS3_12read_contentIS5_EEbRNS2_6StreamERT_mRiNS_8functionIFbyyEEENSC_IFbPKcmyyEEEbEUlRKSI_E_EEbSA_SB_SI_bT0_ENKUlSG_myyE_clESG_myyEUlSG_mE_EEEEERNS_13tuple_elementIXT_ENS_5tupleIJDpT0_EEEE4typeERSW_, symObjAddr: 0x836C8, symBinAddr: 0x100085C80, symSize: 0x24 }
  - { offsetInCU: 0x96611, offset: 0x96611, size: 0x8, addend: 0x0, symName: __ZNSt3__18__invokeB8ue170006IRZZN7httplib6detail24prepare_content_receiverINS1_7RequestEZNS2_12read_contentIS4_EEbRNS1_6StreamERT_mRiNS_8functionIFbyyEEENSB_IFbPKcmyyEEEbEUlRKSH_E_EEbS9_SA_SH_bT0_ENKUlSF_myyE_clESF_myyEUlSF_mE_JSF_mEEEDTclclsr3stdE7declvalIS8_EEspclsr3stdE7declvalIT0_EEEEOS8_DpOSP_, symObjAddr: 0x837AC, symBinAddr: 0x100085D64, symSize: 0x40 }
  - { offsetInCU: 0x967D9, offset: 0x967D9, size: 0x8, addend: 0x0, symName: __ZNSt3__116forward_as_tupleB8ue170006IJZN7httplib6detail24prepare_content_receiverINS1_7RequestEZNS2_12read_contentIS4_EEbRNS1_6StreamERT_mRiNS_8functionIFbyyEEENSB_IFbPKcmyyEEEbEUlRKSH_E_EEbS9_SA_SH_bT0_EUlSF_myyE0_EEENS_5tupleIJDpOT_EEESQ_, symObjAddr: 0x852F4, symBinAddr: 0x1000878AC, symSize: 0x2C }
  - { offsetInCU: 0x96812, offset: 0x96812, size: 0x8, addend: 0x0, symName: __ZNSt3__116forward_as_tupleB8ue170006IJNS_9allocatorIZN7httplib6detail24prepare_content_receiverINS2_7RequestEZNS3_12read_contentIS5_EEbRNS2_6StreamERT_mRiNS_8functionIFbyyEEENSC_IFbPKcmyyEEEbEUlRKSI_E_EEbSA_SB_SI_bT0_EUlSG_myyE0_EEEEENS_5tupleIJDpOT_EEESS_, symObjAddr: 0x85320, symBinAddr: 0x1000878D8, symSize: 0x2C }
  - { offsetInCU: 0x96875, offset: 0x96875, size: 0x8, addend: 0x0, symName: __ZNSt3__13getB8ue170006ILm0EJOZN7httplib6detail24prepare_content_receiverINS1_7RequestEZNS2_12read_contentIS4_EEbRNS1_6StreamERT_mRiNS_8functionIFbyyEEENSB_IFbPKcmyyEEEbEUlRKSH_E_EEbS9_SA_SH_bT0_EUlSF_myyE0_EEERNS_13tuple_elementIXT_ENS_5tupleIJDpT0_EEEE4typeERSS_, symObjAddr: 0x85638, symBinAddr: 0x100087BF0, symSize: 0x24 }
  - { offsetInCU: 0x968B7, offset: 0x968B7, size: 0x8, addend: 0x0, symName: __ZNSt3__13getB8ue170006ILm0EJONS_9allocatorIZN7httplib6detail24prepare_content_receiverINS2_7RequestEZNS3_12read_contentIS5_EEbRNS2_6StreamERT_mRiNS_8functionIFbyyEEENSC_IFbPKcmyyEEEbEUlRKSI_E_EEbSA_SB_SI_bT0_EUlSG_myyE0_EEEEERNS_13tuple_elementIXT_ENS_5tupleIJDpT0_EEEE4typeERSU_, symObjAddr: 0x85674, symBinAddr: 0x100087C2C, symSize: 0x24 }
  - { offsetInCU: 0x96DDD, offset: 0x96DDD, size: 0x8, addend: 0x0, symName: __ZNSt3__116forward_as_tupleB8ue170006IJRKZN7httplib6detail24prepare_content_receiverINS1_7RequestEZNS2_12read_contentIS4_EEbRNS1_6StreamERT_mRiNS_8functionIFbyyEEENSB_IFbPKcmyyEEEbEUlRKSH_E_EEbS9_SA_SH_bT0_EUlSF_myyE0_EEENS_5tupleIJDpOT_EEESS_, symObjAddr: 0x85C08, symBinAddr: 0x1000881C0, symSize: 0x2C }
  - { offsetInCU: 0x96E2B, offset: 0x96E2B, size: 0x8, addend: 0x0, symName: __ZNSt3__13getB8ue170006ILm0EJRKZN7httplib6detail24prepare_content_receiverINS1_7RequestEZNS2_12read_contentIS4_EEbRNS1_6StreamERT_mRiNS_8functionIFbyyEEENSB_IFbPKcmyyEEEbEUlRKSH_E_EEbS9_SA_SH_bT0_EUlSF_myyE0_EEERNS_13tuple_elementIXT_ENS_5tupleIJDpT0_EEEE4typeERST_, symObjAddr: 0x85DF8, symBinAddr: 0x1000883B0, symSize: 0x24 }
  - { offsetInCU: 0x96E6D, offset: 0x96E6D, size: 0x8, addend: 0x0, symName: __ZNSt3__116forward_as_tupleB8ue170006IJRKNS_9allocatorIZN7httplib6detail24prepare_content_receiverINS2_7RequestEZNS3_12read_contentIS5_EEbRNS2_6StreamERT_mRiNS_8functionIFbyyEEENSC_IFbPKcmyyEEEbEUlRKSI_E_EEbSA_SB_SI_bT0_EUlSG_myyE0_EEEEENS_5tupleIJDpOT_EEESU_, symObjAddr: 0x86154, symBinAddr: 0x10008870C, symSize: 0x2C }
  - { offsetInCU: 0x96EBB, offset: 0x96EBB, size: 0x8, addend: 0x0, symName: __ZNSt3__13getB8ue170006ILm0EJRKNS_9allocatorIZN7httplib6detail24prepare_content_receiverINS2_7RequestEZNS3_12read_contentIS5_EEbRNS2_6StreamERT_mRiNS_8functionIFbyyEEENSC_IFbPKcmyyEEEbEUlRKSI_E_EEbSA_SB_SI_bT0_EUlSG_myyE0_EEEEERNS_13tuple_elementIXT_ENS_5tupleIJDpT0_EEEE4typeERSV_, symObjAddr: 0x86338, symBinAddr: 0x1000888F0, symSize: 0x24 }
  - { offsetInCU: 0x96EFD, offset: 0x96EFD, size: 0x8, addend: 0x0, symName: __ZNSt3__18__invokeB8ue170006IRZN7httplib6detail24prepare_content_receiverINS1_7RequestEZNS2_12read_contentIS4_EEbRNS1_6StreamERT_mRiNS_8functionIFbyyEEENSB_IFbPKcmyyEEEbEUlRKSH_E_EEbS9_SA_SH_bT0_EUlSF_myyE0_JSF_myyEEEDTclclsr3stdE7declvalIS8_EEspclsr3stdE7declvalIT0_EEEEOS8_DpOSO_, symObjAddr: 0x8643C, symBinAddr: 0x1000889F4, symSize: 0x58 }
  - { offsetInCU: 0x975D1, offset: 0x975D1, size: 0x8, addend: 0x0, symName: __ZNSt3__116forward_as_tupleB8ue170006IJZN7httplib6Server7routingERNS1_7RequestERNS1_8ResponseERNS1_6StreamEEUlNS_8functionIFbRKNS1_17MultipartFormDataEEEENS9_IFbPKcmEEEE_EEENS_5tupleIJDpOT_EEESN_, symObjAddr: 0x878E4, symBinAddr: 0x100089E9C, symSize: 0x2C }
  - { offsetInCU: 0x9760A, offset: 0x9760A, size: 0x8, addend: 0x0, symName: __ZNSt3__116forward_as_tupleB8ue170006IJNS_9allocatorIZN7httplib6Server7routingERNS2_7RequestERNS2_8ResponseERNS2_6StreamEEUlNS_8functionIFbRKNS2_17MultipartFormDataEEEENSA_IFbPKcmEEEE_EEEEENS_5tupleIJDpOT_EEESP_, symObjAddr: 0x87910, symBinAddr: 0x100089EC8, symSize: 0x2C }
  - { offsetInCU: 0x9766D, offset: 0x9766D, size: 0x8, addend: 0x0, symName: __ZNSt3__13getB8ue170006ILm0EJOZN7httplib6Server7routingERNS1_7RequestERNS1_8ResponseERNS1_6StreamEEUlNS_8functionIFbRKNS1_17MultipartFormDataEEEENS9_IFbPKcmEEEE_EEERNS_13tuple_elementIXT_ENS_5tupleIJDpT0_EEEE4typeERSP_, symObjAddr: 0x87C30, symBinAddr: 0x10008A1E8, symSize: 0x24 }
  - { offsetInCU: 0x976AF, offset: 0x976AF, size: 0x8, addend: 0x0, symName: __ZNSt3__13getB8ue170006ILm0EJONS_9allocatorIZN7httplib6Server7routingERNS2_7RequestERNS2_8ResponseERNS2_6StreamEEUlNS_8functionIFbRKNS2_17MultipartFormDataEEEENSA_IFbPKcmEEEE_EEEEERNS_13tuple_elementIXT_ENS_5tupleIJDpT0_EEEE4typeERSR_, symObjAddr: 0x87C6C, symBinAddr: 0x10008A224, symSize: 0x24 }
  - { offsetInCU: 0x9787D, offset: 0x9787D, size: 0x8, addend: 0x0, symName: __ZNSt3__116forward_as_tupleB8ue170006IJRKZN7httplib6Server7routingERNS1_7RequestERNS1_8ResponseERNS1_6StreamEEUlNS_8functionIFbRKNS1_17MultipartFormDataEEEENS9_IFbPKcmEEEE_EEENS_5tupleIJDpOT_EEESP_, symObjAddr: 0x88068, symBinAddr: 0x10008A620, symSize: 0x2C }
  - { offsetInCU: 0x978CB, offset: 0x978CB, size: 0x8, addend: 0x0, symName: __ZNSt3__13getB8ue170006ILm0EJRKZN7httplib6Server7routingERNS1_7RequestERNS1_8ResponseERNS1_6StreamEEUlNS_8functionIFbRKNS1_17MultipartFormDataEEEENS9_IFbPKcmEEEE_EEERNS_13tuple_elementIXT_ENS_5tupleIJDpT0_EEEE4typeERSQ_, symObjAddr: 0x88260, symBinAddr: 0x10008A818, symSize: 0x24 }
  - { offsetInCU: 0x9790D, offset: 0x9790D, size: 0x8, addend: 0x0, symName: __ZNSt3__116forward_as_tupleB8ue170006IJRKNS_9allocatorIZN7httplib6Server7routingERNS2_7RequestERNS2_8ResponseERNS2_6StreamEEUlNS_8functionIFbRKNS2_17MultipartFormDataEEEENSA_IFbPKcmEEEE_EEEEENS_5tupleIJDpOT_EEESR_, symObjAddr: 0x885C0, symBinAddr: 0x10008AB78, symSize: 0x2C }
  - { offsetInCU: 0x9795B, offset: 0x9795B, size: 0x8, addend: 0x0, symName: __ZNSt3__13getB8ue170006ILm0EJRKNS_9allocatorIZN7httplib6Server7routingERNS2_7RequestERNS2_8ResponseERNS2_6StreamEEUlNS_8functionIFbRKNS2_17MultipartFormDataEEEENSA_IFbPKcmEEEE_EEEEERNS_13tuple_elementIXT_ENS_5tupleIJDpT0_EEEE4typeERSS_, symObjAddr: 0x887A4, symBinAddr: 0x10008AD5C, symSize: 0x24 }
  - { offsetInCU: 0x9799D, offset: 0x9799D, size: 0x8, addend: 0x0, symName: __ZNSt3__18__invokeB8ue170006IRZN7httplib6Server7routingERNS1_7RequestERNS1_8ResponseERNS1_6StreamEEUlNS_8functionIFbRKNS1_17MultipartFormDataEEEENS9_IFbPKcmEEEE_JSE_SI_EEEDTclclsr3stdE7declvalIT_EEspclsr3stdE7declvalIT0_EEEEOSL_DpOSM_, symObjAddr: 0x88888, symBinAddr: 0x10008AE40, symSize: 0xD8 }
  - { offsetInCU: 0x97A03, offset: 0x97A03, size: 0x8, addend: 0x0, symName: __ZNSt3__1neB8ue170006IPKNS_4pairINS_10unique_ptrIN7httplib6detail11MatcherBaseENS_14default_deleteIS5_EEEENS_8functionIFvRKNS3_7RequestERNS3_8ResponseERKNS3_13ContentReaderEEEEEEEEbRKNS_11__wrap_iterIT_EESR_, symObjAddr: 0x890C4, symBinAddr: 0x10008B67C, symSize: 0x34 }
  - { offsetInCU: 0x97A46, offset: 0x97A46, size: 0x8, addend: 0x0, symName: __ZNSt3__1eqB8ue170006IPKNS_4pairINS_10unique_ptrIN7httplib6detail11MatcherBaseENS_14default_deleteIS5_EEEENS_8functionIFvRKNS3_7RequestERNS3_8ResponseERKNS3_13ContentReaderEEEEEEEEbRKNS_11__wrap_iterIT_EESR_, symObjAddr: 0x89218, symBinAddr: 0x10008B7D0, symSize: 0x48 }
  - { offsetInCU: 0x97BEC, offset: 0x97BEC, size: 0x8, addend: 0x0, symName: __ZNSt3__116forward_as_tupleB8ue170006IJZN7httplib6Server12read_contentERNS1_6StreamERNS1_7RequestERNS1_8ResponseEEUlPKcmE_EEENS_5tupleIJDpOT_EEESF_, symObjAddr: 0x89C08, symBinAddr: 0x10008C1C0, symSize: 0x2C }
  - { offsetInCU: 0x97C25, offset: 0x97C25, size: 0x8, addend: 0x0, symName: __ZNSt3__116forward_as_tupleB8ue170006IJNS_9allocatorIZN7httplib6Server12read_contentERNS2_6StreamERNS2_7RequestERNS2_8ResponseEEUlPKcmE_EEEEENS_5tupleIJDpOT_EEESH_, symObjAddr: 0x89C34, symBinAddr: 0x10008C1EC, symSize: 0x2C }
  - { offsetInCU: 0x97C88, offset: 0x97C88, size: 0x8, addend: 0x0, symName: __ZNSt3__13getB8ue170006ILm0EJOZN7httplib6Server12read_contentERNS1_6StreamERNS1_7RequestERNS1_8ResponseEEUlPKcmE_EEERNS_13tuple_elementIXT_ENS_5tupleIJDpT0_EEEE4typeERSH_, symObjAddr: 0x89F4C, symBinAddr: 0x10008C504, symSize: 0x24 }
  - { offsetInCU: 0x97CCA, offset: 0x97CCA, size: 0x8, addend: 0x0, symName: __ZNSt3__13getB8ue170006ILm0EJONS_9allocatorIZN7httplib6Server12read_contentERNS2_6StreamERNS2_7RequestERNS2_8ResponseEEUlPKcmE_EEEEERNS_13tuple_elementIXT_ENS_5tupleIJDpT0_EEEE4typeERSJ_, symObjAddr: 0x89F88, symBinAddr: 0x10008C540, symSize: 0x24 }
  - { offsetInCU: 0x981F0, offset: 0x981F0, size: 0x8, addend: 0x0, symName: __ZNSt3__116forward_as_tupleB8ue170006IJRKZN7httplib6Server12read_contentERNS1_6StreamERNS1_7RequestERNS1_8ResponseEEUlPKcmE_EEENS_5tupleIJDpOT_EEESH_, symObjAddr: 0x8A51C, symBinAddr: 0x10008CAD4, symSize: 0x2C }
  - { offsetInCU: 0x9823E, offset: 0x9823E, size: 0x8, addend: 0x0, symName: __ZNSt3__13getB8ue170006ILm0EJRKZN7httplib6Server12read_contentERNS1_6StreamERNS1_7RequestERNS1_8ResponseEEUlPKcmE_EEERNS_13tuple_elementIXT_ENS_5tupleIJDpT0_EEEE4typeERSI_, symObjAddr: 0x8A70C, symBinAddr: 0x10008CCC4, symSize: 0x24 }
  - { offsetInCU: 0x98280, offset: 0x98280, size: 0x8, addend: 0x0, symName: __ZNSt3__116forward_as_tupleB8ue170006IJRKNS_9allocatorIZN7httplib6Server12read_contentERNS2_6StreamERNS2_7RequestERNS2_8ResponseEEUlPKcmE_EEEEENS_5tupleIJDpOT_EEESJ_, symObjAddr: 0x8AA68, symBinAddr: 0x10008D020, symSize: 0x2C }
  - { offsetInCU: 0x982CE, offset: 0x982CE, size: 0x8, addend: 0x0, symName: __ZNSt3__13getB8ue170006ILm0EJRKNS_9allocatorIZN7httplib6Server12read_contentERNS2_6StreamERNS2_7RequestERNS2_8ResponseEEUlPKcmE_EEEEERNS_13tuple_elementIXT_ENS_5tupleIJDpT0_EEEE4typeERSK_, symObjAddr: 0x8AC4C, symBinAddr: 0x10008D204, symSize: 0x24 }
  - { offsetInCU: 0x98310, offset: 0x98310, size: 0x8, addend: 0x0, symName: __ZNSt3__18__invokeB8ue170006IRZN7httplib6Server12read_contentERNS1_6StreamERNS1_7RequestERNS1_8ResponseEEUlPKcmE_JSA_mEEEDTclclsr3stdE7declvalIT_EEspclsr3stdE7declvalIT0_EEEEOSD_DpOSE_, symObjAddr: 0x8AD30, symBinAddr: 0x10008D2E8, symSize: 0x40 }
  - { offsetInCU: 0x989BC, offset: 0x989BC, size: 0x8, addend: 0x0, symName: __ZNSt3__116forward_as_tupleB8ue170006IJZN7httplib6Server12read_contentERNS1_6StreamERNS1_7RequestERNS1_8ResponseEEUlRKNS1_17MultipartFormDataEE_EEENS_5tupleIJDpOT_EEESG_, symObjAddr: 0x8B88C, symBinAddr: 0x10008DE44, symSize: 0x2C }
  - { offsetInCU: 0x989F5, offset: 0x989F5, size: 0x8, addend: 0x0, symName: __ZNSt3__116forward_as_tupleB8ue170006IJNS_9allocatorIZN7httplib6Server12read_contentERNS2_6StreamERNS2_7RequestERNS2_8ResponseEEUlRKNS2_17MultipartFormDataEE_EEEEENS_5tupleIJDpOT_EEESI_, symObjAddr: 0x8B8B8, symBinAddr: 0x10008DE70, symSize: 0x2C }
  - { offsetInCU: 0x98A58, offset: 0x98A58, size: 0x8, addend: 0x0, symName: __ZNSt3__13getB8ue170006ILm0EJOZN7httplib6Server12read_contentERNS1_6StreamERNS1_7RequestERNS1_8ResponseEEUlRKNS1_17MultipartFormDataEE_EEERNS_13tuple_elementIXT_ENS_5tupleIJDpT0_EEEE4typeERSI_, symObjAddr: 0x8BBD8, symBinAddr: 0x10008E190, symSize: 0x24 }
  - { offsetInCU: 0x98A9A, offset: 0x98A9A, size: 0x8, addend: 0x0, symName: __ZNSt3__13getB8ue170006ILm0EJONS_9allocatorIZN7httplib6Server12read_contentERNS2_6StreamERNS2_7RequestERNS2_8ResponseEEUlRKNS2_17MultipartFormDataEE_EEEEERNS_13tuple_elementIXT_ENS_5tupleIJDpT0_EEEE4typeERSK_, symObjAddr: 0x8BC14, symBinAddr: 0x10008E1CC, symSize: 0x24 }
  - { offsetInCU: 0x98C68, offset: 0x98C68, size: 0x8, addend: 0x0, symName: __ZNSt3__116forward_as_tupleB8ue170006IJRKZN7httplib6Server12read_contentERNS1_6StreamERNS1_7RequestERNS1_8ResponseEEUlRKNS1_17MultipartFormDataEE_EEENS_5tupleIJDpOT_EEESI_, symObjAddr: 0x8C010, symBinAddr: 0x10008E5C8, symSize: 0x2C }
  - { offsetInCU: 0x98CB6, offset: 0x98CB6, size: 0x8, addend: 0x0, symName: __ZNSt3__13getB8ue170006ILm0EJRKZN7httplib6Server12read_contentERNS1_6StreamERNS1_7RequestERNS1_8ResponseEEUlRKNS1_17MultipartFormDataEE_EEERNS_13tuple_elementIXT_ENS_5tupleIJDpT0_EEEE4typeERSJ_, symObjAddr: 0x8C208, symBinAddr: 0x10008E7C0, symSize: 0x24 }
  - { offsetInCU: 0x98CF8, offset: 0x98CF8, size: 0x8, addend: 0x0, symName: __ZNSt3__116forward_as_tupleB8ue170006IJRKNS_9allocatorIZN7httplib6Server12read_contentERNS2_6StreamERNS2_7RequestERNS2_8ResponseEEUlRKNS2_17MultipartFormDataEE_EEEEENS_5tupleIJDpOT_EEESK_, symObjAddr: 0x8C564, symBinAddr: 0x10008EB1C, symSize: 0x2C }
  - { offsetInCU: 0x98D46, offset: 0x98D46, size: 0x8, addend: 0x0, symName: __ZNSt3__13getB8ue170006ILm0EJRKNS_9allocatorIZN7httplib6Server12read_contentERNS2_6StreamERNS2_7RequestERNS2_8ResponseEEUlRKNS2_17MultipartFormDataEE_EEEEERNS_13tuple_elementIXT_ENS_5tupleIJDpT0_EEEE4typeERSL_, symObjAddr: 0x8C748, symBinAddr: 0x10008ED00, symSize: 0x24 }
  - { offsetInCU: 0x98D88, offset: 0x98D88, size: 0x8, addend: 0x0, symName: __ZNSt3__18__invokeB8ue170006IRZN7httplib6Server12read_contentERNS1_6StreamERNS1_7RequestERNS1_8ResponseEEUlRKNS1_17MultipartFormDataEE_JSB_EEEDTclclsr3stdE7declvalIT_EEspclsr3stdE7declvalIT0_EEEEOSE_DpOSF_, symObjAddr: 0x8C81C, symBinAddr: 0x10008EDD4, symSize: 0x30 }
  - { offsetInCU: 0x98F5A, offset: 0x98F5A, size: 0x8, addend: 0x0, symName: __ZNSt3__116forward_as_tupleB8ue170006IJZN7httplib6Server12read_contentERNS1_6StreamERNS1_7RequestERNS1_8ResponseEEUlPKcmE0_EEENS_5tupleIJDpOT_EEESF_, symObjAddr: 0x8DE54, symBinAddr: 0x10009040C, symSize: 0x2C }
  - { offsetInCU: 0x98F93, offset: 0x98F93, size: 0x8, addend: 0x0, symName: __ZNSt3__116forward_as_tupleB8ue170006IJNS_9allocatorIZN7httplib6Server12read_contentERNS2_6StreamERNS2_7RequestERNS2_8ResponseEEUlPKcmE0_EEEEENS_5tupleIJDpOT_EEESH_, symObjAddr: 0x8DE80, symBinAddr: 0x100090438, symSize: 0x2C }
  - { offsetInCU: 0x98FF6, offset: 0x98FF6, size: 0x8, addend: 0x0, symName: __ZNSt3__13getB8ue170006ILm0EJOZN7httplib6Server12read_contentERNS1_6StreamERNS1_7RequestERNS1_8ResponseEEUlPKcmE0_EEERNS_13tuple_elementIXT_ENS_5tupleIJDpT0_EEEE4typeERSH_, symObjAddr: 0x8E198, symBinAddr: 0x100090750, symSize: 0x24 }
  - { offsetInCU: 0x99038, offset: 0x99038, size: 0x8, addend: 0x0, symName: __ZNSt3__13getB8ue170006ILm0EJONS_9allocatorIZN7httplib6Server12read_contentERNS2_6StreamERNS2_7RequestERNS2_8ResponseEEUlPKcmE0_EEEEERNS_13tuple_elementIXT_ENS_5tupleIJDpT0_EEEE4typeERSJ_, symObjAddr: 0x8E1D4, symBinAddr: 0x10009078C, symSize: 0x24 }
  - { offsetInCU: 0x9955E, offset: 0x9955E, size: 0x8, addend: 0x0, symName: __ZNSt3__116forward_as_tupleB8ue170006IJRKZN7httplib6Server12read_contentERNS1_6StreamERNS1_7RequestERNS1_8ResponseEEUlPKcmE0_EEENS_5tupleIJDpOT_EEESH_, symObjAddr: 0x8E768, symBinAddr: 0x100090D20, symSize: 0x2C }
  - { offsetInCU: 0x995AC, offset: 0x995AC, size: 0x8, addend: 0x0, symName: __ZNSt3__13getB8ue170006ILm0EJRKZN7httplib6Server12read_contentERNS1_6StreamERNS1_7RequestERNS1_8ResponseEEUlPKcmE0_EEERNS_13tuple_elementIXT_ENS_5tupleIJDpT0_EEEE4typeERSI_, symObjAddr: 0x8E958, symBinAddr: 0x100090F10, symSize: 0x24 }
  - { offsetInCU: 0x995EE, offset: 0x995EE, size: 0x8, addend: 0x0, symName: __ZNSt3__116forward_as_tupleB8ue170006IJRKNS_9allocatorIZN7httplib6Server12read_contentERNS2_6StreamERNS2_7RequestERNS2_8ResponseEEUlPKcmE0_EEEEENS_5tupleIJDpOT_EEESJ_, symObjAddr: 0x8ECB4, symBinAddr: 0x10009126C, symSize: 0x2C }
  - { offsetInCU: 0x9963C, offset: 0x9963C, size: 0x8, addend: 0x0, symName: __ZNSt3__13getB8ue170006ILm0EJRKNS_9allocatorIZN7httplib6Server12read_contentERNS2_6StreamERNS2_7RequestERNS2_8ResponseEEUlPKcmE0_EEEEERNS_13tuple_elementIXT_ENS_5tupleIJDpT0_EEEE4typeERSK_, symObjAddr: 0x8EE98, symBinAddr: 0x100091450, symSize: 0x24 }
  - { offsetInCU: 0x9967E, offset: 0x9967E, size: 0x8, addend: 0x0, symName: __ZNSt3__18__invokeB8ue170006IRZN7httplib6Server12read_contentERNS1_6StreamERNS1_7RequestERNS1_8ResponseEEUlPKcmE0_JSA_mEEEDTclclsr3stdE7declvalIT_EEspclsr3stdE7declvalIT0_EEEEOSD_DpOSE_, symObjAddr: 0x8EF7C, symBinAddr: 0x100091534, symSize: 0x40 }
  - { offsetInCU: 0x99749, offset: 0x99749, size: 0x8, addend: 0x0, symName: __ZNSt3__1neB8ue170006IPKNS_4pairINS_10unique_ptrIN7httplib6detail11MatcherBaseENS_14default_deleteIS5_EEEENS_8functionIFvRKNS3_7RequestERNS3_8ResponseEEEEEEEEbRKNS_11__wrap_iterIT_EESO_, symObjAddr: 0x8F170, symBinAddr: 0x100091728, symSize: 0x34 }
  - { offsetInCU: 0x9978C, offset: 0x9978C, size: 0x8, addend: 0x0, symName: __ZNSt3__1eqB8ue170006IPKNS_4pairINS_10unique_ptrIN7httplib6detail11MatcherBaseENS_14default_deleteIS5_EEEENS_8functionIFvRKNS3_7RequestERNS3_8ResponseEEEEEEEEbRKNS_11__wrap_iterIT_EESO_, symObjAddr: 0x8F260, symBinAddr: 0x100091818, symSize: 0x48 }
  - { offsetInCU: 0x997CF, offset: 0x997CF, size: 0x8, addend: 0x0, symName: __ZNSt3__1neB8ue170006IPNS_4pairIllEEEEbRKNS_11__wrap_iterIT_EES8_, symObjAddr: 0x8F3F0, symBinAddr: 0x1000919A8, symSize: 0x34 }
  - { offsetInCU: 0x99812, offset: 0x99812, size: 0x8, addend: 0x0, symName: __ZNSt3__13maxB8ue170006IlEERKT_S3_S3_, symObjAddr: 0x8F43C, symBinAddr: 0x1000919F4, symSize: 0x2C }
  - { offsetInCU: 0x99855, offset: 0x99855, size: 0x8, addend: 0x0, symName: __ZNSt3__1eqB8ue170006IPNS_4pairIllEEEEbRKNS_11__wrap_iterIT_EES8_, symObjAddr: 0x8F50C, symBinAddr: 0x100091AC4, symSize: 0x48 }
  - { offsetInCU: 0x99898, offset: 0x99898, size: 0x8, addend: 0x0, symName: __ZNSt3__13maxB8ue170006IlNS_6__lessIvvEEEERKT_S5_S5_T0_, symObjAddr: 0x8F56C, symBinAddr: 0x100091B24, symSize: 0x54 }
  - { offsetInCU: 0x99925, offset: 0x99925, size: 0x8, addend: 0x0, symName: __ZNSt3__119__allocate_at_leastB8ue170006INS_9allocatorINS_4pairINS_10unique_ptrIN7httplib6detail11MatcherBaseENS_14default_deleteIS6_EEEENS_8functionIFvRKNS4_7RequestERNS4_8ResponseEEEEEEEEEENS_19__allocation_resultINS_16allocator_traitsIT_E7pointerEEERSM_m, symObjAddr: 0x90D54, symBinAddr: 0x10009330C, symSize: 0x40 }
  - { offsetInCU: 0x99968, offset: 0x99968, size: 0x8, addend: 0x0, symName: __ZNSt3__142__uninitialized_allocator_move_if_noexceptB8ue170006INS_9allocatorINS_4pairINS_10unique_ptrIN7httplib6detail11MatcherBaseENS_14default_deleteIS6_EEEENS_8functionIFvRKNS4_7RequestERNS4_8ResponseEEEEEEEENS_16reverse_iteratorIPSI_EESM_SM_EET2_RT_T0_T1_SN_, symObjAddr: 0x90F0C, symBinAddr: 0x1000934C4, symSize: 0x12C }
  - { offsetInCU: 0x99A0A, offset: 0x99A0A, size: 0x8, addend: 0x0, symName: __ZNSt3__14swapB8ue170006IPNS_4pairINS_10unique_ptrIN7httplib6detail11MatcherBaseENS_14default_deleteIS5_EEEENS_8functionIFvRKNS3_7RequestERNS3_8ResponseEEEEEEEENS_9enable_ifIXaasr21is_move_constructibleIT_EE5valuesr18is_move_assignableISK_EE5valueEvE4typeERSK_SN_, symObjAddr: 0x91084, symBinAddr: 0x10009363C, symSize: 0x3C }
  - { offsetInCU: 0x99A5C, offset: 0x99A5C, size: 0x8, addend: 0x0, symName: __ZNSt3__122__make_exception_guardB8ue170006INS_29_AllocatorDestroyRangeReverseINS_9allocatorINS_4pairINS_10unique_ptrIN7httplib6detail11MatcherBaseENS_14default_deleteIS7_EEEENS_8functionIFvRKNS5_7RequestERNS5_8ResponseEEEEEEEENS_16reverse_iteratorIPSJ_EEEEEENS_28__exception_guard_exceptionsIT_EESQ_, symObjAddr: 0x91188, symBinAddr: 0x100093740, symSize: 0x4C }
  - { offsetInCU: 0x99A92, offset: 0x99A92, size: 0x8, addend: 0x0, symName: __ZNSt3__1neB8ue170006IPNS_4pairINS_10unique_ptrIN7httplib6detail11MatcherBaseENS_14default_deleteIS5_EEEENS_8functionIFvRKNS3_7RequestERNS3_8ResponseEEEEEESI_EEbRKNS_16reverse_iteratorIT_EERKNSJ_IT0_EE, symObjAddr: 0x91218, symBinAddr: 0x1000937D0, symSize: 0x48 }
  - { offsetInCU: 0x99ADE, offset: 0x99ADE, size: 0x8, addend: 0x0, symName: __ZNSt3__112__to_addressB8ue170006INS_16reverse_iteratorIPNS_4pairINS_10unique_ptrIN7httplib6detail11MatcherBaseENS_14default_deleteIS6_EEEENS_8functionIFvRKNS4_7RequestERNS4_8ResponseEEEEEEEEvEEu7__decayIDTclsr19__to_address_helperIT_EE6__callclsr3stdE7declvalIRKSL_EEEEESN_, symObjAddr: 0x91294, symBinAddr: 0x10009384C, symSize: 0x24 }
  - { offsetInCU: 0x99B3F, offset: 0x99B3F, size: 0x8, addend: 0x0, symName: __ZNSt3__119__allocator_destroyB8ue170006INS_9allocatorINS_4pairINS_10unique_ptrIN7httplib6detail11MatcherBaseENS_14default_deleteIS6_EEEENS_8functionIFvRKNS4_7RequestERNS4_8ResponseEEEEEEEENS_16reverse_iteratorINSK_IPSI_EEEESN_EEvRT_T0_T1_, symObjAddr: 0x915F0, symBinAddr: 0x100093BA8, symSize: 0x70 }
  - { offsetInCU: 0x99BA4, offset: 0x99BA4, size: 0x8, addend: 0x0, symName: __ZNSt3__1neB8ue170006INS_16reverse_iteratorIPNS_4pairINS_10unique_ptrIN7httplib6detail11MatcherBaseENS_14default_deleteIS6_EEEENS_8functionIFvRKNS4_7RequestERNS4_8ResponseEEEEEEEESK_EEbRKNS1_IT_EERKNS1_IT0_EE, symObjAddr: 0x9169C, symBinAddr: 0x100093C54, symSize: 0x60 }
  - { offsetInCU: 0x99BF0, offset: 0x99BF0, size: 0x8, addend: 0x0, symName: __ZNSt3__112__to_addressB8ue170006INS_16reverse_iteratorINS1_IPNS_4pairINS_10unique_ptrIN7httplib6detail11MatcherBaseENS_14default_deleteIS6_EEEENS_8functionIFvRKNS4_7RequestERNS4_8ResponseEEEEEEEEEEvEEu7__decayIDTclsr19__to_address_helperIT_EE6__callclsr3stdE7declvalIRKSM_EEEEESO_, symObjAddr: 0x916FC, symBinAddr: 0x100093CB4, symSize: 0x24 }
  - { offsetInCU: 0x9A2DE, offset: 0x9A2DE, size: 0x8, addend: 0x0, symName: __ZNSt3__1neB8ue170006ERKNS_21__hash_const_iteratorIPNS_11__hash_nodeINS_12basic_stringIcNS_11char_traitsIcEENS_9allocatorIcEEEEPvEEEESD_, symObjAddr: 0x92128, symBinAddr: 0x1000946E0, symSize: 0x34 }
  - { offsetInCU: 0x9A31B, offset: 0x9A31B, size: 0x8, addend: 0x0, symName: __ZNSt3__1eqB8ue170006ERKNS_21__hash_const_iteratorIPNS_11__hash_nodeINS_12basic_stringIcNS_11char_traitsIcEENS_9allocatorIcEEEEPvEEEESD_, symObjAddr: 0x92CC0, symBinAddr: 0x100095278, symSize: 0x30 }
  - { offsetInCU: 0x9A358, offset: 0x9A358, size: 0x8, addend: 0x0, symName: __ZNSt3__116__constrain_hashB8ue170006Emm, symObjAddr: 0x92F88, symBinAddr: 0x100095540, symSize: 0x98 }
  - { offsetInCU: 0x9A392, offset: 0x9A392, size: 0x8, addend: 0x0, symName: __ZNSt3__116__do_string_hashB8ue170006IPKcEEmT_S3_, symObjAddr: 0x93184, symBinAddr: 0x10009573C, symSize: 0x3C }
  - { offsetInCU: 0x9A3D8, offset: 0x9A3D8, size: 0x8, addend: 0x0, symName: __ZNSt3__110__loadwordB8ue170006ImEET_PKv, symObjAddr: 0x93B78, symBinAddr: 0x100096130, symSize: 0x20 }
  - { offsetInCU: 0x9A41C, offset: 0x9A41C, size: 0x8, addend: 0x0, symName: __ZNSt3__14swapB8ue170006ImEENS_9enable_ifIXaasr21is_move_constructibleIT_EE5valuesr18is_move_assignableIS2_EE5valueEvE4typeERS2_S5_, symObjAddr: 0x93D34, symBinAddr: 0x1000962EC, symSize: 0x3C }
  - { offsetInCU: 0x9A46E, offset: 0x9A46E, size: 0x8, addend: 0x0, symName: __ZNSt3__110__loadwordB8ue170006IjEET_PKv, symObjAddr: 0x93DC4, symBinAddr: 0x10009637C, symSize: 0x20 }
  - { offsetInCU: 0x9A572, offset: 0x9A572, size: 0x8, addend: 0x0, symName: __ZNSt3__116__is_hash_power2B8ue170006Em, symObjAddr: 0x951A0, symBinAddr: 0x100097758, symSize: 0x50 }
  - { offsetInCU: 0x9A59E, offset: 0x9A59E, size: 0x8, addend: 0x0, symName: __ZNSt3__116__next_hash_pow2B8ue170006Em, symObjAddr: 0x951F0, symBinAddr: 0x1000977A8, symSize: 0x6C }
  - { offsetInCU: 0x9A5CA, offset: 0x9A5CA, size: 0x8, addend: 0x0, symName: __ZNSt3__112__libcpp_clzB8ue170006Em, symObjAddr: 0x953F0, symBinAddr: 0x1000979A8, symSize: 0x1C }
  - { offsetInCU: 0x9A638, offset: 0x9A638, size: 0x8, addend: 0x0, symName: __ZNSt3__16searchB8ue170006INS_11__wrap_iterIPKcEEPcEET_S6_S6_T0_S7_, symObjAddr: 0x9ACE0, symBinAddr: 0x10009D298, symSize: 0x54 }
  - { offsetInCU: 0x9A6A0, offset: 0x9A6A0, size: 0x8, addend: 0x0, symName: __ZNSt3__16searchB8ue170006INS_11__wrap_iterIPKcEEPcNS_10__equal_toEEET_S7_S7_T0_S8_T1_, symObjAddr: 0x9AD84, symBinAddr: 0x10009D33C, symSize: 0x7C }
  - { offsetInCU: 0x9A72E, offset: 0x9A72E, size: 0x8, addend: 0x0, symName: __ZNSt3__113__search_implB8ue170006INS_11__wrap_iterIPKcEES4_PcS5_NS_10__equal_toENS_10__identityES7_EENS_4pairIT_S9_EES9_T0_T1_T2_RT3_RT4_RT5_PNS_9enable_ifIXaasr37__has_random_access_iterator_categoryIS9_EE5valuesr37__has_random_access_iterator_categoryISC_EE5valueEvE4typeE, symObjAddr: 0x9AE00, symBinAddr: 0x10009D3B8, symSize: 0x108 }
  - { offsetInCU: 0x9A816, offset: 0x9A816, size: 0x8, addend: 0x0, symName: __ZNSt3__19make_pairB8ue170006IRNS_11__wrap_iterIPKcEES5_EENS_4pairINS_18__unwrap_ref_decayIT_E4typeENS7_IT0_E4typeEEEOS8_OSB_, symObjAddr: 0x9AF08, symBinAddr: 0x10009D4C0, symSize: 0x38 }
  - { offsetInCU: 0x9A865, offset: 0x9A865, size: 0x8, addend: 0x0, symName: __ZNSt3__127__search_random_access_implB8ue170006INS_17_ClassicAlgPolicyENS_11__wrap_iterIPKcEES5_PcS6_NS_10__equal_toENS_10__identityES8_llEENS_4pairIT0_SA_EESA_T1_T2_T3_RT4_RT5_RT6_T7_T8_, symObjAddr: 0x9AF40, symBinAddr: 0x10009D4F8, symSize: 0x1F0 }
  - { offsetInCU: 0x9A99D, offset: 0x9A99D, size: 0x8, addend: 0x0, symName: __ZNSt3__19make_pairB8ue170006IRNS_11__wrap_iterIPKcEES4_EENS_4pairINS_18__unwrap_ref_decayIT_E4typeENS7_IT0_E4typeEEEOS8_OSB_, symObjAddr: 0x9B1FC, symBinAddr: 0x10009D7B4, symSize: 0x38 }
  - { offsetInCU: 0x9AB4F, offset: 0x9AB4F, size: 0x8, addend: 0x0, symName: __ZNSt3__116forward_as_tupleB8ue170006IJZN7httplib6Server6listenERKNS_12basic_stringIcNS_11char_traitsIcEENS_9allocatorIcEEEEiiEUlvE_EEENS_5tupleIJDpOT_EEESF_, symObjAddr: 0x9DFE8, symBinAddr: 0x1000A05A0, symSize: 0x2C }
  - { offsetInCU: 0x9AB88, offset: 0x9AB88, size: 0x8, addend: 0x0, symName: __ZNSt3__116forward_as_tupleB8ue170006IJNS_9allocatorIZN7httplib6Server6listenERKNS_12basic_stringIcNS_11char_traitsIcEENS1_IcEEEEiiEUlvE_EEEEENS_5tupleIJDpOT_EEESG_, symObjAddr: 0x9E014, symBinAddr: 0x1000A05CC, symSize: 0x2C }
  - { offsetInCU: 0x9ABEB, offset: 0x9ABEB, size: 0x8, addend: 0x0, symName: __ZNSt3__13getB8ue170006ILm0EJOZN7httplib6Server6listenERKNS_12basic_stringIcNS_11char_traitsIcEENS_9allocatorIcEEEEiiEUlvE_EEERNS_13tuple_elementIXT_ENS_5tupleIJDpT0_EEEE4typeERSH_, symObjAddr: 0x9E32C, symBinAddr: 0x1000A08E4, symSize: 0x24 }
  - { offsetInCU: 0x9AC2D, offset: 0x9AC2D, size: 0x8, addend: 0x0, symName: __ZNSt3__13getB8ue170006ILm0EJONS_9allocatorIZN7httplib6Server6listenERKNS_12basic_stringIcNS_11char_traitsIcEENS1_IcEEEEiiEUlvE_EEEEERNS_13tuple_elementIXT_ENS_5tupleIJDpT0_EEEE4typeERSI_, symObjAddr: 0x9E368, symBinAddr: 0x1000A0920, symSize: 0x24 }
  - { offsetInCU: 0x9B153, offset: 0x9B153, size: 0x8, addend: 0x0, symName: __ZNSt3__116forward_as_tupleB8ue170006IJRKZN7httplib6Server6listenERKNS_12basic_stringIcNS_11char_traitsIcEENS_9allocatorIcEEEEiiEUlvE_EEENS_5tupleIJDpOT_EEESH_, symObjAddr: 0x9E8FC, symBinAddr: 0x1000A0EB4, symSize: 0x2C }
  - { offsetInCU: 0x9B1A1, offset: 0x9B1A1, size: 0x8, addend: 0x0, symName: __ZNSt3__13getB8ue170006ILm0EJRKZN7httplib6Server6listenERKNS_12basic_stringIcNS_11char_traitsIcEENS_9allocatorIcEEEEiiEUlvE_EEERNS_13tuple_elementIXT_ENS_5tupleIJDpT0_EEEE4typeERSI_, symObjAddr: 0x9EAEC, symBinAddr: 0x1000A10A4, symSize: 0x24 }
  - { offsetInCU: 0x9B1E3, offset: 0x9B1E3, size: 0x8, addend: 0x0, symName: __ZNSt3__116forward_as_tupleB8ue170006IJRKNS_9allocatorIZN7httplib6Server6listenERKNS_12basic_stringIcNS_11char_traitsIcEENS1_IcEEEEiiEUlvE_EEEEENS_5tupleIJDpOT_EEESI_, symObjAddr: 0x9EE48, symBinAddr: 0x1000A1400, symSize: 0x2C }
  - { offsetInCU: 0x9B231, offset: 0x9B231, size: 0x8, addend: 0x0, symName: __ZNSt3__13getB8ue170006ILm0EJRKNS_9allocatorIZN7httplib6Server6listenERKNS_12basic_stringIcNS_11char_traitsIcEENS1_IcEEEEiiEUlvE_EEEEERNS_13tuple_elementIXT_ENS_5tupleIJDpT0_EEEE4typeERSJ_, symObjAddr: 0x9F02C, symBinAddr: 0x1000A15E4, symSize: 0x24 }
  - { offsetInCU: 0x9B274, offset: 0x9B274, size: 0x8, addend: 0x0, symName: __ZNSt3__18__invokeB8ue170006IRZN7httplib6Server6listenERKNS_12basic_stringIcNS_11char_traitsIcEENS_9allocatorIcEEEEiiEUlvE_JEEEDTclclsr3stdE7declvalIT_EEspclsr3stdE7declvalIT0_EEEEOSD_DpOSE_, symObjAddr: 0x9F0E8, symBinAddr: 0x1000A16A0, symSize: 0x24 }
  - { offsetInCU: 0x9B2AD, offset: 0x9B2AD, size: 0x8, addend: 0x0, symName: __ZNSt3__118__cxx_atomic_storeB8ue170006IbEEvPNS_22__cxx_atomic_base_implIT_EES2_NS_12memory_orderE, symObjAddr: 0x9F1C4, symBinAddr: 0x1000A177C, symSize: 0x90 }
  - { offsetInCU: 0x9B2FE, offset: 0x9B2FE, size: 0x8, addend: 0x0, symName: __ZNSt3__14copyB8ue170006INS_11__wrap_iterIPKcEEPcEET0_T_S7_S6_, symObjAddr: 0x9FB4C, symBinAddr: 0x1000A2104, symSize: 0x50 }
  - { offsetInCU: 0x9B358, offset: 0x9B358, size: 0x8, addend: 0x0, symName: __ZNSt3__16__copyB8ue170006INS_17_ClassicAlgPolicyENS_11__wrap_iterIPKcEES5_PcEENS_4pairIT0_T2_EES8_T1_S9_, symObjAddr: 0x9FCA0, symBinAddr: 0x1000A2258, symSize: 0x54 }
  - { offsetInCU: 0x9B3C4, offset: 0x9B3C4, size: 0x8, addend: 0x0, symName: __ZNSt3__123__dispatch_copy_or_moveB8ue170006INS_17_ClassicAlgPolicyENS_11__copy_loopIS1_EENS_14__copy_trivialENS_11__wrap_iterIPKcEES8_PcEENS_4pairIT2_T4_EESB_T3_SC_, symObjAddr: 0x9FCF4, symBinAddr: 0x1000A22AC, symSize: 0x54 }
  - { offsetInCU: 0x9B442, offset: 0x9B442, size: 0x8, addend: 0x0, symName: __ZNSt3__121__unwrap_and_dispatchB8ue170006INS_10__overloadINS_11__copy_loopINS_17_ClassicAlgPolicyEEENS_14__copy_trivialEEENS_11__wrap_iterIPKcEESA_PcLi0EEENS_4pairIT0_T2_EESD_T1_SE_, symObjAddr: 0x9FD48, symBinAddr: 0x1000A2300, symSize: 0xCC }
  - { offsetInCU: 0x9B4D2, offset: 0x9B4D2, size: 0x8, addend: 0x0, symName: __ZNSt3__114__unwrap_rangeB8ue170006INS_11__wrap_iterIPKcEES3_EENS_4pairIT0_S6_EET_S8_, symObjAddr: 0x9FE14, symBinAddr: 0x1000A23CC, symSize: 0x70 }
  - { offsetInCU: 0x9B51E, offset: 0x9B51E, size: 0x8, addend: 0x0, symName: __ZNSt3__19make_pairB8ue170006INS_11__wrap_iterIPKcEEPcEENS_4pairINS_18__unwrap_ref_decayIT_E4typeENS7_IT0_E4typeEEEOS8_OSB_, symObjAddr: 0x9FE84, symBinAddr: 0x1000A243C, symSize: 0x38 }
  - { offsetInCU: 0x9B56D, offset: 0x9B56D, size: 0x8, addend: 0x0, symName: __ZNSt3__114__rewrap_rangeB8ue170006INS_11__wrap_iterIPKcEES3_EET_S5_T0_, symObjAddr: 0x9FEBC, symBinAddr: 0x1000A2474, symSize: 0x3C }
  - { offsetInCU: 0x9B68E, offset: 0x9B68E, size: 0x8, addend: 0x0, symName: __ZNSt3__118__cxx_atomic_storeB8ue170006IiEEvPNS_22__cxx_atomic_base_implIT_EES2_NS_12memory_orderE, symObjAddr: 0xA028C, symBinAddr: 0x1000A2844, symSize: 0x84 }
  - { offsetInCU: 0x9BC3F, offset: 0x9BC3F, size: 0x8, addend: 0x0, symName: __ZNSt3__116forward_as_tupleB8ue170006IJZN7httplib6Server15listen_internalEvEUlvE_EEENS_5tupleIJDpOT_EEES7_, symObjAddr: 0xA0B10, symBinAddr: 0x1000A30C8, symSize: 0x2C }
  - { offsetInCU: 0x9BC78, offset: 0x9BC78, size: 0x8, addend: 0x0, symName: __ZNSt3__116forward_as_tupleB8ue170006IJNS_9allocatorIZN7httplib6Server15listen_internalEvEUlvE_EEEEENS_5tupleIJDpOT_EEES9_, symObjAddr: 0xA0B3C, symBinAddr: 0x1000A30F4, symSize: 0x2C }
  - { offsetInCU: 0x9BCDB, offset: 0x9BCDB, size: 0x8, addend: 0x0, symName: __ZNSt3__13getB8ue170006ILm0EJOZN7httplib6Server15listen_internalEvEUlvE_EEERNS_13tuple_elementIXT_ENS_5tupleIJDpT0_EEEE4typeERS9_, symObjAddr: 0xA0E54, symBinAddr: 0x1000A340C, symSize: 0x24 }
  - { offsetInCU: 0x9BD1D, offset: 0x9BD1D, size: 0x8, addend: 0x0, symName: __ZNSt3__13getB8ue170006ILm0EJONS_9allocatorIZN7httplib6Server15listen_internalEvEUlvE_EEEEERNS_13tuple_elementIXT_ENS_5tupleIJDpT0_EEEE4typeERSB_, symObjAddr: 0xA0E90, symBinAddr: 0x1000A3448, symSize: 0x24 }
  - { offsetInCU: 0x9C243, offset: 0x9C243, size: 0x8, addend: 0x0, symName: __ZNSt3__116forward_as_tupleB8ue170006IJRKZN7httplib6Server15listen_internalEvEUlvE_EEENS_5tupleIJDpOT_EEES9_, symObjAddr: 0xA1424, symBinAddr: 0x1000A39DC, symSize: 0x2C }
  - { offsetInCU: 0x9C291, offset: 0x9C291, size: 0x8, addend: 0x0, symName: __ZNSt3__13getB8ue170006ILm0EJRKZN7httplib6Server15listen_internalEvEUlvE_EEERNS_13tuple_elementIXT_ENS_5tupleIJDpT0_EEEE4typeERSA_, symObjAddr: 0xA1614, symBinAddr: 0x1000A3BCC, symSize: 0x24 }
  - { offsetInCU: 0x9C2D3, offset: 0x9C2D3, size: 0x8, addend: 0x0, symName: __ZNSt3__116forward_as_tupleB8ue170006IJRKNS_9allocatorIZN7httplib6Server15listen_internalEvEUlvE_EEEEENS_5tupleIJDpOT_EEESB_, symObjAddr: 0xA1970, symBinAddr: 0x1000A3F28, symSize: 0x2C }
  - { offsetInCU: 0x9C321, offset: 0x9C321, size: 0x8, addend: 0x0, symName: __ZNSt3__13getB8ue170006ILm0EJRKNS_9allocatorIZN7httplib6Server15listen_internalEvEUlvE_EEEEERNS_13tuple_elementIXT_ENS_5tupleIJDpT0_EEEE4typeERSC_, symObjAddr: 0xA1B54, symBinAddr: 0x1000A410C, symSize: 0x24 }
  - { offsetInCU: 0x9C364, offset: 0x9C364, size: 0x8, addend: 0x0, symName: __ZNSt3__18__invokeB8ue170006IRZN7httplib6Server15listen_internalEvEUlvE_JEEEDTclclsr3stdE7declvalIT_EEspclsr3stdE7declvalIT0_EEEEOS5_DpOS6_, symObjAddr: 0xA1C10, symBinAddr: 0x1000A41C8, symSize: 0x24 }
  - { offsetInCU: 0x9C4FF, offset: 0x9C4FF, size: 0x8, addend: 0x0, symName: __ZNSt3__116forward_as_tupleB8ue170006IJZN7httplib6Server15listen_internalEvEUlvE0_EEENS_5tupleIJDpOT_EEES7_, symObjAddr: 0xA24E4, symBinAddr: 0x1000A4A9C, symSize: 0x2C }
  - { offsetInCU: 0x9C538, offset: 0x9C538, size: 0x8, addend: 0x0, symName: __ZNSt3__116forward_as_tupleB8ue170006IJNS_9allocatorIZN7httplib6Server15listen_internalEvEUlvE0_EEEEENS_5tupleIJDpOT_EEES9_, symObjAddr: 0xA2510, symBinAddr: 0x1000A4AC8, symSize: 0x2C }
  - { offsetInCU: 0x9C59B, offset: 0x9C59B, size: 0x8, addend: 0x0, symName: __ZNSt3__13getB8ue170006ILm0EJOZN7httplib6Server15listen_internalEvEUlvE0_EEERNS_13tuple_elementIXT_ENS_5tupleIJDpT0_EEEE4typeERS9_, symObjAddr: 0xA2828, symBinAddr: 0x1000A4DE0, symSize: 0x24 }
  - { offsetInCU: 0x9C5DD, offset: 0x9C5DD, size: 0x8, addend: 0x0, symName: __ZNSt3__13getB8ue170006ILm0EJONS_9allocatorIZN7httplib6Server15listen_internalEvEUlvE0_EEEEERNS_13tuple_elementIXT_ENS_5tupleIJDpT0_EEEE4typeERSB_, symObjAddr: 0xA2864, symBinAddr: 0x1000A4E1C, symSize: 0x24 }
  - { offsetInCU: 0x9CB03, offset: 0x9CB03, size: 0x8, addend: 0x0, symName: __ZNSt3__116forward_as_tupleB8ue170006IJRKZN7httplib6Server15listen_internalEvEUlvE0_EEENS_5tupleIJDpOT_EEES9_, symObjAddr: 0xA2E00, symBinAddr: 0x1000A53B8, symSize: 0x2C }
  - { offsetInCU: 0x9CB51, offset: 0x9CB51, size: 0x8, addend: 0x0, symName: __ZNSt3__13getB8ue170006ILm0EJRKZN7httplib6Server15listen_internalEvEUlvE0_EEERNS_13tuple_elementIXT_ENS_5tupleIJDpT0_EEEE4typeERSA_, symObjAddr: 0xA2FF0, symBinAddr: 0x1000A55A8, symSize: 0x24 }
  - { offsetInCU: 0x9CB93, offset: 0x9CB93, size: 0x8, addend: 0x0, symName: __ZNSt3__116forward_as_tupleB8ue170006IJRKNS_9allocatorIZN7httplib6Server15listen_internalEvEUlvE0_EEEEENS_5tupleIJDpOT_EEESB_, symObjAddr: 0xA3350, symBinAddr: 0x1000A5908, symSize: 0x2C }
  - { offsetInCU: 0x9CBE1, offset: 0x9CBE1, size: 0x8, addend: 0x0, symName: __ZNSt3__13getB8ue170006ILm0EJRKNS_9allocatorIZN7httplib6Server15listen_internalEvEUlvE0_EEEEERNS_13tuple_elementIXT_ENS_5tupleIJDpT0_EEEE4typeERSC_, symObjAddr: 0xA3534, symBinAddr: 0x1000A5AEC, symSize: 0x24 }
  - { offsetInCU: 0x9CC24, offset: 0x9CC24, size: 0x8, addend: 0x0, symName: __ZNSt3__18__invokeB8ue170006IRZN7httplib6Server15listen_internalEvEUlvE0_JEEEDTclclsr3stdE7declvalIT_EEspclsr3stdE7declvalIT0_EEEEOS5_DpOS6_, symObjAddr: 0xA35F0, symBinAddr: 0x1000A5BA8, symSize: 0x24 }
  - { offsetInCU: 0x9CC5C, offset: 0x9CC5C, size: 0x8, addend: 0x0, symName: __ZNSt3__116__pad_and_outputB8ue170006IcNS_11char_traitsIcEEEENS_19ostreambuf_iteratorIT_T0_EES6_PKS4_S8_S8_RNS_8ios_baseES4_, symObjAddr: 0xA3BCC, symBinAddr: 0x1000A6184, symSize: 0x240 }
  - { offsetInCU: 0x9CE97, offset: 0x9CE97, size: 0x8, addend: 0x0, symName: '__ZNSt3__116forward_as_tupleB8ue170006IJZ4mainE3$_0EEENS_5tupleIJDpOT_EEES5_', symObjAddr: 0xA4960, symBinAddr: 0x1000A6F18, symSize: 0x2C }
  - { offsetInCU: 0x9CED1, offset: 0x9CED1, size: 0x8, addend: 0x0, symName: '__ZNSt3__116forward_as_tupleB8ue170006IJNS_9allocatorIZ4mainE3$_0EEEEENS_5tupleIJDpOT_EEES7_', symObjAddr: 0xA498C, symBinAddr: 0x1000A6F44, symSize: 0x2C }
  - { offsetInCU: 0x9CF35, offset: 0x9CF35, size: 0x8, addend: 0x0, symName: '__ZNSt3__13getB8ue170006ILm0EJOZ4mainE3$_0EEERNS_13tuple_elementIXT_ENS_5tupleIJDpT0_EEEE4typeERS7_', symObjAddr: 0xA4C98, symBinAddr: 0x1000A7250, symSize: 0x24 }
  - { offsetInCU: 0x9CF78, offset: 0x9CF78, size: 0x8, addend: 0x0, symName: '__ZNSt3__13getB8ue170006ILm0EJONS_9allocatorIZ4mainE3$_0EEEEERNS_13tuple_elementIXT_ENS_5tupleIJDpT0_EEEE4typeERS9_', symObjAddr: 0xA4CD4, symBinAddr: 0x1000A728C, symSize: 0x24 }
  - { offsetInCU: 0x9D4B9, offset: 0x9D4B9, size: 0x8, addend: 0x0, symName: '__ZNSt3__116forward_as_tupleB8ue170006IJRKZ4mainE3$_0EEENS_5tupleIJDpOT_EEES7_', symObjAddr: 0xA5268, symBinAddr: 0x1000A7820, symSize: 0x2C }
  - { offsetInCU: 0x9D508, offset: 0x9D508, size: 0x8, addend: 0x0, symName: '__ZNSt3__13getB8ue170006ILm0EJRKZ4mainE3$_0EEERNS_13tuple_elementIXT_ENS_5tupleIJDpT0_EEEE4typeERS8_', symObjAddr: 0xA544C, symBinAddr: 0x1000A7A04, symSize: 0x24 }
  - { offsetInCU: 0x9D54B, offset: 0x9D54B, size: 0x8, addend: 0x0, symName: '__ZNSt3__116forward_as_tupleB8ue170006IJRKNS_9allocatorIZ4mainE3$_0EEEEENS_5tupleIJDpOT_EEES9_', symObjAddr: 0xA57A8, symBinAddr: 0x1000A7D60, symSize: 0x2C }
  - { offsetInCU: 0x9D59A, offset: 0x9D59A, size: 0x8, addend: 0x0, symName: '__ZNSt3__13getB8ue170006ILm0EJRKNS_9allocatorIZ4mainE3$_0EEEEERNS_13tuple_elementIXT_ENS_5tupleIJDpT0_EEEE4typeERSA_', symObjAddr: 0xA598C, symBinAddr: 0x1000A7F44, symSize: 0x24 }
  - { offsetInCU: 0x9D5DD, offset: 0x9D5DD, size: 0x8, addend: 0x0, symName: '__ZNSt3__18__invokeB8ue170006IRZ4mainE3$_0JRKN7httplib7RequestERNS3_8ResponseEEEEDTclclsr3stdE7declvalIT_EEspclsr3stdE7declvalIT0_EEEEOS9_DpOSA_', symObjAddr: 0xA5A68, symBinAddr: 0x1000A8020, symSize: 0x34 }
  - { offsetInCU: 0x9D63E, offset: 0x9D63E, size: 0x8, addend: 0x0, symName: __ZNSt3__1lsB8ue170006IcNS_11char_traitsIcEENS_9allocatorIcEEEERNS_13basic_ostreamIT_T0_EES9_RKNS_12basic_stringIS6_S7_T1_EE, symObjAddr: 0xA6240, symBinAddr: 0x1000A87F8, symSize: 0x4C }
  - { offsetInCU: 0x9DC26, offset: 0x9DC26, size: 0x8, addend: 0x0, symName: __ZNSt3__121__convert_to_integralB8ue170006Ei, symObjAddr: 0xA9698, symBinAddr: 0x1000ABC50, symSize: 0x14 }
  - { offsetInCU: 0x9DC52, offset: 0x9DC52, size: 0x8, addend: 0x0, symName: __ZNSt3__15beginB8ue170006INS_12basic_stringIcNS_11char_traitsIcEENS_9allocatorIcEEEEEEDTcldtfp_5beginEERKT_, symObjAddr: 0xA9D90, symBinAddr: 0x1000AC348, symSize: 0x2C }
  - { offsetInCU: 0x9DC87, offset: 0x9DC87, size: 0x8, addend: 0x0, symName: __ZNSt3__13endB8ue170006INS_12basic_stringIcNS_11char_traitsIcEENS_9allocatorIcEEEEEEDTcldtfp_3endEERKT_, symObjAddr: 0xA9DBC, symBinAddr: 0x1000AC374, symSize: 0x2C }
  - { offsetInCU: 0x9DCBC, offset: 0x9DCBC, size: 0x8, addend: 0x0, symName: __ZNSt3__119__allocate_at_leastB8ue170006INS_9allocatorImEEEENS_19__allocation_resultINS_16allocator_traitsIT_E7pointerEEERS5_m, symObjAddr: 0xAE69C, symBinAddr: 0x1000B0C54, symSize: 0x40 }
  - { offsetInCU: 0x9DCFF, offset: 0x9DCFF, size: 0x8, addend: 0x0, symName: __ZNSt3__16__copyB8ue170006INS_17_ClassicAlgPolicyENS_14__bit_iteratorINS_6vectorIbNS_9allocatorIbEEEELb0ELm0EEES7_S7_EENS_4pairIT0_T2_EES9_T1_SA_, symObjAddr: 0xAE804, symBinAddr: 0x1000B0DBC, symSize: 0x88 }
  - { offsetInCU: 0x9DD6E, offset: 0x9DD6E, size: 0x8, addend: 0x0, symName: __ZNSt3__123__dispatch_copy_or_moveB8ue170006INS_17_ClassicAlgPolicyENS_11__copy_loopIS1_EENS_14__copy_trivialENS_14__bit_iteratorINS_6vectorIbNS_9allocatorIbEEEELb0ELm0EEESA_SA_EENS_4pairIT2_T4_EESC_T3_SD_, symObjAddr: 0xAE924, symBinAddr: 0x1000B0EDC, symSize: 0x88 }
  - { offsetInCU: 0x9DDEF, offset: 0x9DDEF, size: 0x8, addend: 0x0, symName: __ZNSt3__121__unwrap_and_dispatchB8ue170006INS_10__overloadINS_11__copy_loopINS_17_ClassicAlgPolicyEEENS_14__copy_trivialEEENS_14__bit_iteratorINS_6vectorIbNS_9allocatorIbEEEELb0ELm0EEESC_SC_Li0EEENS_4pairIT0_T2_EESE_T1_SF_, symObjAddr: 0xAE9AC, symBinAddr: 0x1000B0F64, symSize: 0x15C }
  - { offsetInCU: 0x9DE84, offset: 0x9DE84, size: 0x8, addend: 0x0, symName: __ZNSt3__114__unwrap_rangeB8ue170006INS_14__bit_iteratorINS_6vectorIbNS_9allocatorIbEEEELb0ELm0EEES6_EENS_4pairIT0_S8_EET_SA_, symObjAddr: 0xAEB08, symBinAddr: 0x1000B10C0, symSize: 0x8C }
  - { offsetInCU: 0x9DFA6, offset: 0x9DFA6, size: 0x8, addend: 0x0, symName: __ZNSt3__113__unwrap_iterB8ue170006INS_14__bit_iteratorINS_6vectorIbNS_9allocatorIbEEEELb0ELm0EEENS_18__unwrap_iter_implIS6_Lb0EEELi0EEEDTclsrT0_8__unwrapclsr3stdE7declvalIT_EEEESA_, symObjAddr: 0xAEC4C, symBinAddr: 0x1000B1204, symSize: 0x44 }
  - { offsetInCU: 0x9DFEB, offset: 0x9DFEB, size: 0x8, addend: 0x0, symName: __ZNSt3__19make_pairB8ue170006INS_14__bit_iteratorINS_6vectorIbNS_9allocatorIbEEEELb0ELm0EEES6_EENS_4pairINS_18__unwrap_ref_decayIT_E4typeENS8_IT0_E4typeEEEOS9_OSC_, symObjAddr: 0xAEC90, symBinAddr: 0x1000B1248, symSize: 0x40 }
  - { offsetInCU: 0x9E03A, offset: 0x9E03A, size: 0x8, addend: 0x0, symName: __ZNSt3__114__rewrap_rangeB8ue170006INS_14__bit_iteratorINS_6vectorIbNS_9allocatorIbEEEELb0ELm0EEES6_EET_S7_T0_, symObjAddr: 0xAECD0, symBinAddr: 0x1000B1288, symSize: 0x6C }
  - { offsetInCU: 0x9E088, offset: 0x9E088, size: 0x8, addend: 0x0, symName: __ZNSt3__113__rewrap_iterB8ue170006INS_14__bit_iteratorINS_6vectorIbNS_9allocatorIbEEEELb0ELm0EEES6_NS_18__unwrap_iter_implIS6_Lb0EEEEET_S9_T0_, symObjAddr: 0xAED3C, symBinAddr: 0x1000B12F4, symSize: 0x74 }
  - { offsetInCU: 0x9E0DF, offset: 0x9E0DF, size: 0x8, addend: 0x0, symName: __ZNSt3__1neB8ue170006ERKNS_14__bit_iteratorINS_6vectorIbNS_9allocatorIbEEEELb0ELm0EEES7_, symObjAddr: 0xAEDB0, symBinAddr: 0x1000B1368, symSize: 0x34 }
  - { offsetInCU: 0x9E11C, offset: 0x9E11C, size: 0x8, addend: 0x0, symName: __ZNSt3__1eqB8ue170006ERKNS_14__bit_iteratorINS_6vectorIbNS_9allocatorIbEEEELb0ELm0EEES7_, symObjAddr: 0xAEEC4, symBinAddr: 0x1000B147C, symSize: 0x64 }
  - { offsetInCU: 0x9E1A1, offset: 0x9E1A1, size: 0x8, addend: 0x0, symName: __ZNSt3__14swapB8ue170006IPmEENS_9enable_ifIXaasr21is_move_constructibleIT_EE5valuesr18is_move_assignableIS3_EE5valueEvE4typeERS3_S6_, symObjAddr: 0xAF14C, symBinAddr: 0x1000B1704, symSize: 0x3C }
  - { offsetInCU: 0x9E1F4, offset: 0x9E1F4, size: 0x8, addend: 0x0, symName: __ZNSt3__116__swap_allocatorB8ue170006INS_9allocatorImEEEEvRT_S4_NS_17integral_constantIbLb0EEE, symObjAddr: 0xAF188, symBinAddr: 0x1000B1740, symSize: 0x14 }
  - { offsetInCU: 0x9E235, offset: 0x9E235, size: 0x8, addend: 0x0, symName: __ZNSt3__112__to_addressB8ue170006IPN8nlohmann16json_abi_v3_11_310basic_jsonINS_3mapENS_6vectorENS_12basic_stringIcNS_11char_traitsIcEENS_9allocatorIcEEEEbxydS9_NS2_14adl_serializerENS5_IhNS9_IhEEEEvEEEEPT_SI_, symObjAddr: 0xAF6FC, symBinAddr: 0x1000B1CB4, symSize: 0x14 }
  - { offsetInCU: 0x9E39C, offset: 0x9E39C, size: 0x8, addend: 0x0, symName: __ZNSt3__112__to_addressB8ue170006IN8nlohmann16json_abi_v3_11_310basic_jsonINS_3mapENS_6vectorENS_12basic_stringIcNS_11char_traitsIcEENS_9allocatorIcEEEEbxydS9_NS2_14adl_serializerENS5_IhNS9_IhEEEEvEEEEPT_SH_, symObjAddr: 0xB15D8, symBinAddr: 0x1000B3B90, symSize: 0x14 }
  - { offsetInCU: 0x9E3D1, offset: 0x9E3D1, size: 0x8, addend: 0x0, symName: __ZNSt3__119__allocate_at_leastB8ue170006INS_9allocatorIN8nlohmann16json_abi_v3_11_310basic_jsonINS_3mapENS_6vectorENS_12basic_stringIcNS_11char_traitsIcEENS1_IcEEEEbxydS1_NS3_14adl_serializerENS6_IhNS1_IhEEEEvEEEEEENS_19__allocation_resultINS_16allocator_traitsIT_E7pointerEEERSJ_m, symObjAddr: 0xB1C04, symBinAddr: 0x1000B41BC, symSize: 0x40 }
  - { offsetInCU: 0x9E414, offset: 0x9E414, size: 0x8, addend: 0x0, symName: __ZNSt3__142__uninitialized_allocator_move_if_noexceptB8ue170006INS_9allocatorIN8nlohmann16json_abi_v3_11_310basic_jsonINS_3mapENS_6vectorENS_12basic_stringIcNS_11char_traitsIcEENS1_IcEEEEbxydS1_NS3_14adl_serializerENS6_IhNS1_IhEEEEvEEEENS_16reverse_iteratorIPSF_EESJ_SJ_EET2_RT_T0_T1_SK_, symObjAddr: 0xB1E8C, symBinAddr: 0x1000B4444, symSize: 0x12C }
  - { offsetInCU: 0x9E4B6, offset: 0x9E4B6, size: 0x8, addend: 0x0, symName: __ZNSt3__14swapB8ue170006IPN8nlohmann16json_abi_v3_11_310basic_jsonINS_3mapENS_6vectorENS_12basic_stringIcNS_11char_traitsIcEENS_9allocatorIcEEEEbxydS9_NS2_14adl_serializerENS5_IhNS9_IhEEEEvEEEENS_9enable_ifIXaasr21is_move_constructibleIT_EE5valuesr18is_move_assignableISI_EE5valueEvE4typeERSI_SL_, symObjAddr: 0xB2004, symBinAddr: 0x1000B45BC, symSize: 0x3C }
  - { offsetInCU: 0x9E508, offset: 0x9E508, size: 0x8, addend: 0x0, symName: __ZNSt3__122__make_exception_guardB8ue170006INS_29_AllocatorDestroyRangeReverseINS_9allocatorIN8nlohmann16json_abi_v3_11_310basic_jsonINS_3mapENS_6vectorENS_12basic_stringIcNS_11char_traitsIcEENS2_IcEEEEbxydS2_NS4_14adl_serializerENS7_IhNS2_IhEEEEvEEEENS_16reverse_iteratorIPSG_EEEEEENS_28__exception_guard_exceptionsIT_EESN_, symObjAddr: 0xB2134, symBinAddr: 0x1000B46EC, symSize: 0x4C }
  - { offsetInCU: 0x9E53E, offset: 0x9E53E, size: 0x8, addend: 0x0, symName: __ZNSt3__1neB8ue170006IPN8nlohmann16json_abi_v3_11_310basic_jsonINS_3mapENS_6vectorENS_12basic_stringIcNS_11char_traitsIcEENS_9allocatorIcEEEEbxydS9_NS2_14adl_serializerENS5_IhNS9_IhEEEEvEESG_EEbRKNS_16reverse_iteratorIT_EERKNSH_IT0_EE, symObjAddr: 0xB21C4, symBinAddr: 0x1000B477C, symSize: 0x48 }
  - { offsetInCU: 0x9E58A, offset: 0x9E58A, size: 0x8, addend: 0x0, symName: __ZNSt3__112__to_addressB8ue170006INS_16reverse_iteratorIPN8nlohmann16json_abi_v3_11_310basic_jsonINS_3mapENS_6vectorENS_12basic_stringIcNS_11char_traitsIcEENS_9allocatorIcEEEEbxydSA_NS3_14adl_serializerENS6_IhNSA_IhEEEEvEEEEvEEu7__decayIDTclsr19__to_address_helperIT_EE6__callclsr3stdE7declvalIRKSJ_EEEEESL_, symObjAddr: 0xB220C, symBinAddr: 0x1000B47C4, symSize: 0x24 }
  - { offsetInCU: 0x9E5EB, offset: 0x9E5EB, size: 0x8, addend: 0x0, symName: __ZNSt3__119__allocator_destroyB8ue170006INS_9allocatorIN8nlohmann16json_abi_v3_11_310basic_jsonINS_3mapENS_6vectorENS_12basic_stringIcNS_11char_traitsIcEENS1_IcEEEEbxydS1_NS3_14adl_serializerENS6_IhNS1_IhEEEEvEEEENS_16reverse_iteratorINSH_IPSF_EEEESK_EEvRT_T0_T1_, symObjAddr: 0xB24BC, symBinAddr: 0x1000B4A74, symSize: 0x70 }
  - { offsetInCU: 0x9E650, offset: 0x9E650, size: 0x8, addend: 0x0, symName: __ZNSt3__1neB8ue170006INS_16reverse_iteratorIPN8nlohmann16json_abi_v3_11_310basic_jsonINS_3mapENS_6vectorENS_12basic_stringIcNS_11char_traitsIcEENS_9allocatorIcEEEEbxydSA_NS3_14adl_serializerENS6_IhNSA_IhEEEEvEEEESI_EEbRKNS1_IT_EERKNS1_IT0_EE, symObjAddr: 0xB2568, symBinAddr: 0x1000B4B20, symSize: 0x60 }
  - { offsetInCU: 0x9E69C, offset: 0x9E69C, size: 0x8, addend: 0x0, symName: __ZNSt3__112__to_addressB8ue170006INS_16reverse_iteratorINS1_IPN8nlohmann16json_abi_v3_11_310basic_jsonINS_3mapENS_6vectorENS_12basic_stringIcNS_11char_traitsIcEENS_9allocatorIcEEEEbxydSA_NS3_14adl_serializerENS6_IhNSA_IhEEEEvEEEEEEvEEu7__decayIDTclsr19__to_address_helperIT_EE6__callclsr3stdE7declvalIRKSK_EEEEESM_, symObjAddr: 0xB25F4, symBinAddr: 0x1000B4BAC, symSize: 0x24 }
  - { offsetInCU: 0x9E6FC, offset: 0x9E6FC, size: 0x8, addend: 0x0, symName: __ZNSt3__119__allocate_at_leastB8ue170006INS_9allocatorIPN8nlohmann16json_abi_v3_11_310basic_jsonINS_3mapENS_6vectorENS_12basic_stringIcNS_11char_traitsIcEENS1_IcEEEEbxydS1_NS3_14adl_serializerENS6_IhNS1_IhEEEEvEEEEEENS_19__allocation_resultINS_16allocator_traitsIT_E7pointerEEERSK_m, symObjAddr: 0xB3178, symBinAddr: 0x1000B5730, symSize: 0x40 }
  - { offsetInCU: 0x9E73F, offset: 0x9E73F, size: 0x8, addend: 0x0, symName: __ZNSt3__142__uninitialized_allocator_move_if_noexceptB8ue170006INS_9allocatorIPN8nlohmann16json_abi_v3_11_310basic_jsonINS_3mapENS_6vectorENS_12basic_stringIcNS_11char_traitsIcEENS1_IcEEEEbxydS1_NS3_14adl_serializerENS6_IhNS1_IhEEEEvEEEENS_16reverse_iteratorIPSG_EESK_SG_vEET1_RT_T0_SO_SL_, symObjAddr: 0xB332C, symBinAddr: 0x1000B58E4, symSize: 0x78 }
  - { offsetInCU: 0x9E7BD, offset: 0x9E7BD, size: 0x8, addend: 0x0, symName: __ZNSt3__14swapB8ue170006IPPN8nlohmann16json_abi_v3_11_310basic_jsonINS_3mapENS_6vectorENS_12basic_stringIcNS_11char_traitsIcEENS_9allocatorIcEEEEbxydS9_NS2_14adl_serializerENS5_IhNS9_IhEEEEvEEEENS_9enable_ifIXaasr21is_move_constructibleIT_EE5valuesr18is_move_assignableISJ_EE5valueEvE4typeERSJ_SM_, symObjAddr: 0xB33F0, symBinAddr: 0x1000B59A8, symSize: 0x3C }
  - { offsetInCU: 0x9E80F, offset: 0x9E80F, size: 0x8, addend: 0x0, symName: __ZNSt3__14moveB8ue170006INS_16reverse_iteratorIPPN8nlohmann16json_abi_v3_11_310basic_jsonINS_3mapENS_6vectorENS_12basic_stringIcNS_11char_traitsIcEENS_9allocatorIcEEEEbxydSA_NS3_14adl_serializerENS6_IhNSA_IhEEEEvEEEESJ_EET0_T_SL_SK_, symObjAddr: 0xB34D8, symBinAddr: 0x1000B5A90, symSize: 0x78 }
  - { offsetInCU: 0x9E869, offset: 0x9E869, size: 0x8, addend: 0x0, symName: __ZNSt3__16__moveB8ue170006INS_17_ClassicAlgPolicyENS_16reverse_iteratorIPPN8nlohmann16json_abi_v3_11_310basic_jsonINS_3mapENS_6vectorENS_12basic_stringIcNS_11char_traitsIcEENS_9allocatorIcEEEEbxydSB_NS4_14adl_serializerENS7_IhNSB_IhEEEEvEEEESK_SK_EENS_4pairIT0_T2_EESM_T1_SN_, symObjAddr: 0xB3550, symBinAddr: 0x1000B5B08, symSize: 0x64 }
  - { offsetInCU: 0x9E8D5, offset: 0x9E8D5, size: 0x8, addend: 0x0, symName: __ZNSt3__123__dispatch_copy_or_moveB8ue170006INS_17_ClassicAlgPolicyENS_11__move_loopIS1_EENS_14__move_trivialENS_16reverse_iteratorIPPN8nlohmann16json_abi_v3_11_310basic_jsonINS_3mapENS_6vectorENS_12basic_stringIcNS_11char_traitsIcEENS_9allocatorIcEEEEbxydSE_NS7_14adl_serializerENSA_IhNSE_IhEEEEvEEEESN_SN_EENS_4pairIT2_T4_EESP_T3_SQ_, symObjAddr: 0xB35B4, symBinAddr: 0x1000B5B6C, symSize: 0x64 }
  - { offsetInCU: 0x9E953, offset: 0x9E953, size: 0x8, addend: 0x0, symName: __ZNSt3__121__unwrap_and_dispatchB8ue170006INS_10__overloadINS_11__move_loopINS_17_ClassicAlgPolicyEEENS_14__move_trivialEEENS_16reverse_iteratorIPPN8nlohmann16json_abi_v3_11_310basic_jsonINS_3mapENS_6vectorENS_12basic_stringIcNS_11char_traitsIcEENS_9allocatorIcEEEEbxydSG_NS9_14adl_serializerENSC_IhNSG_IhEEEEvEEEESP_SP_Li0EEENS_4pairIT0_T2_EESR_T1_SS_, symObjAddr: 0xB3618, symBinAddr: 0x1000B5BD0, symSize: 0x12C }
  - { offsetInCU: 0x9E9E5, offset: 0x9E9E5, size: 0x8, addend: 0x0, symName: __ZNSt3__114__unwrap_rangeB8ue170006INS_16reverse_iteratorIPPN8nlohmann16json_abi_v3_11_310basic_jsonINS_3mapENS_6vectorENS_12basic_stringIcNS_11char_traitsIcEENS_9allocatorIcEEEEbxydSA_NS3_14adl_serializerENS6_IhNSA_IhEEEEvEEEESJ_EENS_4pairIT0_SL_EET_SN_, symObjAddr: 0xB3744, symBinAddr: 0x1000B5CFC, symSize: 0x84 }
  - { offsetInCU: 0x9EB05, offset: 0x9EB05, size: 0x8, addend: 0x0, symName: __ZNSt3__113__unwrap_iterB8ue170006INS_16reverse_iteratorIPPN8nlohmann16json_abi_v3_11_310basic_jsonINS_3mapENS_6vectorENS_12basic_stringIcNS_11char_traitsIcEENS_9allocatorIcEEEEbxydSA_NS3_14adl_serializerENS6_IhNSA_IhEEEEvEEEENS_18__unwrap_iter_implISJ_Lb0EEELi0EEEDTclsrT0_8__unwrapclsr3stdE7declvalIT_EEEESN_, symObjAddr: 0xB3868, symBinAddr: 0x1000B5E20, symSize: 0x44 }
  - { offsetInCU: 0x9EB49, offset: 0x9EB49, size: 0x8, addend: 0x0, symName: __ZNSt3__19make_pairB8ue170006INS_16reverse_iteratorIPPN8nlohmann16json_abi_v3_11_310basic_jsonINS_3mapENS_6vectorENS_12basic_stringIcNS_11char_traitsIcEENS_9allocatorIcEEEEbxydSA_NS3_14adl_serializerENS6_IhNSA_IhEEEEvEEEESJ_EENS_4pairINS_18__unwrap_ref_decayIT_E4typeENSL_IT0_E4typeEEEOSM_OSP_, symObjAddr: 0xB38AC, symBinAddr: 0x1000B5E64, symSize: 0x38 }
  - { offsetInCU: 0x9EB98, offset: 0x9EB98, size: 0x8, addend: 0x0, symName: __ZNSt3__114__rewrap_rangeB8ue170006INS_16reverse_iteratorIPPN8nlohmann16json_abi_v3_11_310basic_jsonINS_3mapENS_6vectorENS_12basic_stringIcNS_11char_traitsIcEENS_9allocatorIcEEEEbxydSA_NS3_14adl_serializerENS6_IhNSA_IhEEEEvEEEESJ_EET_SK_T0_, symObjAddr: 0xB38E4, symBinAddr: 0x1000B5E9C, symSize: 0x5C }
  - { offsetInCU: 0x9EBE4, offset: 0x9EBE4, size: 0x8, addend: 0x0, symName: __ZNSt3__113__rewrap_iterB8ue170006INS_16reverse_iteratorIPPN8nlohmann16json_abi_v3_11_310basic_jsonINS_3mapENS_6vectorENS_12basic_stringIcNS_11char_traitsIcEENS_9allocatorIcEEEEbxydSA_NS3_14adl_serializerENS6_IhNSA_IhEEEEvEEEESJ_NS_18__unwrap_iter_implISJ_Lb0EEEEET_SM_T0_, symObjAddr: 0xB3940, symBinAddr: 0x1000B5EF8, symSize: 0x74 }
  - { offsetInCU: 0x9EC39, offset: 0x9EC39, size: 0x8, addend: 0x0, symName: __ZNSt3__1neB8ue170006IPPN8nlohmann16json_abi_v3_11_310basic_jsonINS_3mapENS_6vectorENS_12basic_stringIcNS_11char_traitsIcEENS_9allocatorIcEEEEbxydS9_NS2_14adl_serializerENS5_IhNS9_IhEEEEvEESH_EEbRKNS_16reverse_iteratorIT_EERKNSI_IT0_EE, symObjAddr: 0xB39B4, symBinAddr: 0x1000B5F6C, symSize: 0x48 }
  - { offsetInCU: 0x9F38F, offset: 0x9F38F, size: 0x8, addend: 0x0, symName: __ZNSt3__1neB8ue170006INS_3mapINS_12basic_stringIcNS_11char_traitsIcEENS_9allocatorIcEEEEN8nlohmann16json_abi_v3_11_310basic_jsonIS1_NS_6vectorES7_bxydS5_NS9_14adl_serializerENSB_IhNS5_IhEEEEvEENS_4lessIS7_EENS5_INS_4pairIKS7_SF_EEEEEEZNSF_6createISM_JRKSM_EEEPT_DpOT0_EUlPSM_E_EEbRKNS_10unique_ptrISQ_T0_EEDn, symObjAddr: 0xB5948, symBinAddr: 0x1000B7F00, symSize: 0x2C }
  - { offsetInCU: 0x9F3DB, offset: 0x9F3DB, size: 0x8, addend: 0x0, symName: __ZNSt3__1neB8ue170006ERKNS_20__map_const_iteratorINS_21__tree_const_iteratorINS_12__value_typeINS_12basic_stringIcNS_11char_traitsIcEENS_9allocatorIcEEEEN8nlohmann16json_abi_v3_11_310basic_jsonINS_3mapENS_6vectorES8_bxydS6_NSA_14adl_serializerENSD_IhNS6_IhEEEEvEEEEPNS_11__tree_nodeISI_PvEElEEEESQ_, symObjAddr: 0xB610C, symBinAddr: 0x1000B86C4, symSize: 0x30 }
  - { offsetInCU: 0x9F418, offset: 0x9F418, size: 0x8, addend: 0x0, symName: __ZNSt3__1neB8ue170006ERKNS_21__tree_const_iteratorINS_12__value_typeINS_12basic_stringIcNS_11char_traitsIcEENS_9allocatorIcEEEEN8nlohmann16json_abi_v3_11_310basic_jsonINS_3mapENS_6vectorES7_bxydS5_NS9_14adl_serializerENSC_IhNS5_IhEEEEvEEEEPNS_11__tree_nodeISH_PvEElEESO_, symObjAddr: 0xB6214, symBinAddr: 0x1000B87CC, symSize: 0x34 }
  - { offsetInCU: 0x9F455, offset: 0x9F455, size: 0x8, addend: 0x0, symName: __ZNSt3__1eqB8ue170006ERKNS_21__tree_const_iteratorINS_12__value_typeINS_12basic_stringIcNS_11char_traitsIcEENS_9allocatorIcEEEEN8nlohmann16json_abi_v3_11_310basic_jsonINS_3mapENS_6vectorES7_bxydS5_NS9_14adl_serializerENSC_IhNS5_IhEEEEvEEEEPNS_11__tree_nodeISH_PvEElEESO_, symObjAddr: 0xB6248, symBinAddr: 0x1000B8800, symSize: 0x30 }
  - { offsetInCU: 0x9F4B6, offset: 0x9F4B6, size: 0x8, addend: 0x0, symName: __ZNSt3__14nextB8ue170006INS_21__tree_const_iteratorINS_12__value_typeINS_12basic_stringIcNS_11char_traitsIcEENS_9allocatorIcEEEEN8nlohmann16json_abi_v3_11_310basic_jsonINS_3mapENS_6vectorES8_bxydS6_NSA_14adl_serializerENSD_IhNS6_IhEEEEvEEEEPNS_11__tree_nodeISI_PvEElEEEENS_9enable_ifIXsr29__has_input_iterator_categoryIT_EE5valueESP_E4typeESP_NS_15iterator_traitsISP_E15difference_typeE, symObjAddr: 0xB6D50, symBinAddr: 0x1000B9308, symSize: 0x3C }
  - { offsetInCU: 0x9F4FA, offset: 0x9F4FA, size: 0x8, addend: 0x0, symName: __ZNSt3__19__advanceB8ue170006INS_21__tree_const_iteratorINS_12__value_typeINS_12basic_stringIcNS_11char_traitsIcEENS_9allocatorIcEEEEN8nlohmann16json_abi_v3_11_310basic_jsonINS_3mapENS_6vectorES8_bxydS6_NSA_14adl_serializerENSD_IhNS6_IhEEEEvEEEEPNS_11__tree_nodeISI_PvEElEEEEvRT_NS_15iterator_traitsISO_E15difference_typeENS_26bidirectional_iterator_tagE, symObjAddr: 0xB6F38, symBinAddr: 0x1000B94F0, symSize: 0xA4 }
  - { offsetInCU: 0x9FC32, offset: 0x9FC32, size: 0x8, addend: 0x0, symName: __ZNSt3__1neB8ue170006INS_6vectorIN8nlohmann16json_abi_v3_11_310basic_jsonINS_3mapES1_NS_12basic_stringIcNS_11char_traitsIcEENS_9allocatorIcEEEEbxydS9_NS3_14adl_serializerENS1_IhNS9_IhEEEEvEENS9_ISF_EEEEZNSF_6createISH_JRKSH_EEEPT_DpOT0_EUlPSH_E_EEbRKNS_10unique_ptrISL_T0_EEDn, symObjAddr: 0xB7E78, symBinAddr: 0x1000BA430, symSize: 0x2C }
  - { offsetInCU: 0x9FC7E, offset: 0x9FC7E, size: 0x8, addend: 0x0, symName: __ZNSt3__122__make_exception_guardB8ue170006INS_6vectorIN8nlohmann16json_abi_v3_11_310basic_jsonINS_3mapES1_NS_12basic_stringIcNS_11char_traitsIcEENS_9allocatorIcEEEEbxydS9_NS3_14adl_serializerENS1_IhNS9_IhEEEEvEENS9_ISF_EEE16__destroy_vectorEEENS_28__exception_guard_exceptionsIT_EESK_, symObjAddr: 0xB8358, symBinAddr: 0x1000BA910, symSize: 0x40 }
  - { offsetInCU: 0x9FCB3, offset: 0x9FCB3, size: 0x8, addend: 0x0, symName: __ZNSt3__130__uninitialized_allocator_copyB8ue170006INS_9allocatorIN8nlohmann16json_abi_v3_11_310basic_jsonINS_3mapENS_6vectorENS_12basic_stringIcNS_11char_traitsIcEENS1_IcEEEEbxydS1_NS3_14adl_serializerENS6_IhNS1_IhEEEEvEEEEPSF_SH_SH_EET2_RT_T0_T1_SI_, symObjAddr: 0xB85C4, symBinAddr: 0x1000BAB7C, symSize: 0x80 }
  - { offsetInCU: 0x9FD52, offset: 0x9FD52, size: 0x8, addend: 0x0, symName: __ZNSt3__114__unwrap_rangeB8ue170006IPN8nlohmann16json_abi_v3_11_310basic_jsonINS_3mapENS_6vectorENS_12basic_stringIcNS_11char_traitsIcEENS_9allocatorIcEEEEbxydS9_NS2_14adl_serializerENS5_IhNS9_IhEEEEvEESG_EENS_4pairIT0_SI_EET_SK_, symObjAddr: 0xB8644, symBinAddr: 0x1000BABFC, symSize: 0x60 }
  - { offsetInCU: 0x9FD9E, offset: 0x9FD9E, size: 0x8, addend: 0x0, symName: __ZNSt3__135__uninitialized_allocator_copy_implB8ue170006INS_9allocatorIN8nlohmann16json_abi_v3_11_310basic_jsonINS_3mapENS_6vectorENS_12basic_stringIcNS_11char_traitsIcEENS1_IcEEEEbxydS1_NS3_14adl_serializerENS6_IhNS1_IhEEEEvEEEEPSF_SH_SH_EET2_RT_T0_T1_SI_, symObjAddr: 0xB86A4, symBinAddr: 0x1000BAC5C, symSize: 0xF4 }
  - { offsetInCU: 0x9FE3E, offset: 0x9FE3E, size: 0x8, addend: 0x0, symName: __ZNSt3__113__unwrap_iterB8ue170006IPN8nlohmann16json_abi_v3_11_310basic_jsonINS_3mapENS_6vectorENS_12basic_stringIcNS_11char_traitsIcEENS_9allocatorIcEEEEbxydS9_NS2_14adl_serializerENS5_IhNS9_IhEEEEvEENS_18__unwrap_iter_implISG_Lb1EEELi0EEEDTclsrT0_8__unwrapclsr3stdE7declvalIT_EEEESK_, symObjAddr: 0xB8798, symBinAddr: 0x1000BAD50, symSize: 0x24 }
  - { offsetInCU: 0x9FE82, offset: 0x9FE82, size: 0x8, addend: 0x0, symName: __ZNSt3__113__rewrap_iterB8ue170006IPN8nlohmann16json_abi_v3_11_310basic_jsonINS_3mapENS_6vectorENS_12basic_stringIcNS_11char_traitsIcEENS_9allocatorIcEEEEbxydS9_NS2_14adl_serializerENS5_IhNS9_IhEEEEvEESG_NS_18__unwrap_iter_implISG_Lb1EEEEET_SJ_T0_, symObjAddr: 0xB87BC, symBinAddr: 0x1000BAD74, symSize: 0x3C }
  - { offsetInCU: 0x9FED7, offset: 0x9FED7, size: 0x8, addend: 0x0, symName: __ZNSt3__19make_pairB8ue170006IPN8nlohmann16json_abi_v3_11_310basic_jsonINS_3mapENS_6vectorENS_12basic_stringIcNS_11char_traitsIcEENS_9allocatorIcEEEEbxydS9_NS2_14adl_serializerENS5_IhNS9_IhEEEEvEESG_EENS_4pairINS_18__unwrap_ref_decayIT_E4typeENSI_IT0_E4typeEEEOSJ_OSM_, symObjAddr: 0xB87F8, symBinAddr: 0x1000BADB0, symSize: 0x38 }
  - { offsetInCU: 0x9FFFA, offset: 0x9FFFA, size: 0x8, addend: 0x0, symName: __ZNSt3__122__make_exception_guardB8ue170006INS_29_AllocatorDestroyRangeReverseINS_9allocatorIN8nlohmann16json_abi_v3_11_310basic_jsonINS_3mapENS_6vectorENS_12basic_stringIcNS_11char_traitsIcEENS2_IcEEEEbxydS2_NS4_14adl_serializerENS7_IhNS2_IhEEEEvEEEEPSG_EEEENS_28__exception_guard_exceptionsIT_EESL_, symObjAddr: 0xB88A0, symBinAddr: 0x1000BAE58, symSize: 0x4C }
  - { offsetInCU: 0xA0031, offset: 0xA0031, size: 0x8, addend: 0x0, symName: __ZNSt3__119__allocator_destroyB8ue170006INS_9allocatorIN8nlohmann16json_abi_v3_11_310basic_jsonINS_3mapENS_6vectorENS_12basic_stringIcNS_11char_traitsIcEENS1_IcEEEEbxydS1_NS3_14adl_serializerENS6_IhNS1_IhEEEEvEEEENS_16reverse_iteratorIPSF_EESJ_EEvRT_T0_T1_, symObjAddr: 0xB8B30, symBinAddr: 0x1000BB0E8, symSize: 0x70 }
  - { offsetInCU: 0xA0432, offset: 0xA0432, size: 0x8, addend: 0x0, symName: __ZNSt3__1neB8ue170006INS_12basic_stringIcNS_11char_traitsIcEENS_9allocatorIcEEEEZN8nlohmann16json_abi_v3_11_310basic_jsonINS_3mapENS_6vectorES6_bxydS4_NS8_14adl_serializerENSB_IhNS4_IhEEEEvE6createIS6_JRKS6_EEEPT_DpOT0_EUlPS6_E_EEbRKNS_10unique_ptrISJ_T0_EEDn, symObjAddr: 0xB91D0, symBinAddr: 0x1000BB788, symSize: 0x2C }
  - { offsetInCU: 0xA0B1C, offset: 0xA0B1C, size: 0x8, addend: 0x0, symName: __ZNSt3__1neB8ue170006IN8nlohmann16json_abi_v3_11_327byte_container_with_subtypeINS_6vectorIhNS_9allocatorIhEEEEEEZNS2_10basic_jsonINS_3mapES4_NS_12basic_stringIcNS_11char_traitsIcEENS5_IcEEEEbxydS5_NS2_14adl_serializerES7_vE6createIS8_JRKS8_EEEPT_DpOT0_EUlPS8_E_EEbRKNS_10unique_ptrISL_T0_EEDn, symObjAddr: 0xB97C8, symBinAddr: 0x1000BBD80, symSize: 0x2C }
  - { offsetInCU: 0xA0B68, offset: 0xA0B68, size: 0x8, addend: 0x0, symName: __ZNSt3__122__make_exception_guardB8ue170006INS_6vectorIhNS_9allocatorIhEEE16__destroy_vectorEEENS_28__exception_guard_exceptionsIT_EES7_, symObjAddr: 0xB9D8C, symBinAddr: 0x1000BC344, symSize: 0x40 }
  - { offsetInCU: 0xA0B9D, offset: 0xA0B9D, size: 0x8, addend: 0x0, symName: __ZNSt3__119__allocate_at_leastB8ue170006INS_9allocatorIhEEEENS_19__allocation_resultINS_16allocator_traitsIT_E7pointerEEERS5_m, symObjAddr: 0xBA074, symBinAddr: 0x1000BC62C, symSize: 0x40 }
  - { offsetInCU: 0xA0BE0, offset: 0xA0BE0, size: 0x8, addend: 0x0, symName: __ZNSt3__112__to_addressB8ue170006IhEEPT_S2_, symObjAddr: 0xBA330, symBinAddr: 0x1000BC8E8, symSize: 0x14 }
  - { offsetInCU: 0xA0C15, offset: 0xA0C15, size: 0x8, addend: 0x0, symName: __ZNSt3__130__uninitialized_allocator_copyB8ue170006INS_9allocatorIhEEPhS3_S3_EET2_RT_T0_T1_S4_, symObjAddr: 0xBA3E0, symBinAddr: 0x1000BC998, symSize: 0x80 }
  - { offsetInCU: 0xA0CB4, offset: 0xA0CB4, size: 0x8, addend: 0x0, symName: __ZNSt3__114__unwrap_rangeB8ue170006IPhS1_EENS_4pairIT0_S3_EET_S5_, symObjAddr: 0xBA4D0, symBinAddr: 0x1000BCA88, symSize: 0x60 }
  - { offsetInCU: 0xA0D00, offset: 0xA0D00, size: 0x8, addend: 0x0, symName: __ZNSt3__135__uninitialized_allocator_copy_implB8ue170006INS_9allocatorIhEEhhhLPv0EEEPT2_RT_PT0_S9_S5_, symObjAddr: 0xBA530, symBinAddr: 0x1000BCAE8, symSize: 0x38 }
  - { offsetInCU: 0xA0D82, offset: 0xA0D82, size: 0x8, addend: 0x0, symName: __ZNSt3__113__unwrap_iterB8ue170006IPhNS_18__unwrap_iter_implIS1_Lb1EEELi0EEEDTclsrT0_8__unwrapclsr3stdE7declvalIT_EEEES5_, symObjAddr: 0xBA568, symBinAddr: 0x1000BCB20, symSize: 0x24 }
  - { offsetInCU: 0xA0DC6, offset: 0xA0DC6, size: 0x8, addend: 0x0, symName: __ZNSt3__113__rewrap_iterB8ue170006IPhS1_NS_18__unwrap_iter_implIS1_Lb1EEEEET_S4_T0_, symObjAddr: 0xBA58C, symBinAddr: 0x1000BCB44, symSize: 0x3C }
  - { offsetInCU: 0xA0E1B, offset: 0xA0E1B, size: 0x8, addend: 0x0, symName: __ZNSt3__19make_pairB8ue170006IPhS1_EENS_4pairINS_18__unwrap_ref_decayIT_E4typeENS3_IT0_E4typeEEEOS4_OS7_, symObjAddr: 0xBA5C8, symBinAddr: 0x1000BCB80, symSize: 0x38 }
  - { offsetInCU: 0xA0F6D, offset: 0xA0F6D, size: 0x8, addend: 0x0, symName: __ZNSt3__14copyB8ue170006IPhS1_EET0_T_S3_S2_, symObjAddr: 0xBA670, symBinAddr: 0x1000BCC28, symSize: 0x40 }
  - { offsetInCU: 0xA0FC7, offset: 0xA0FC7, size: 0x8, addend: 0x0, symName: __ZNSt3__16__copyB8ue170006INS_17_ClassicAlgPolicyEPhS2_S2_EENS_4pairIT0_T2_EES4_T1_S5_, symObjAddr: 0xBA6B0, symBinAddr: 0x1000BCC68, symSize: 0x44 }
  - { offsetInCU: 0xA1033, offset: 0xA1033, size: 0x8, addend: 0x0, symName: __ZNSt3__123__dispatch_copy_or_moveB8ue170006INS_17_ClassicAlgPolicyENS_11__copy_loopIS1_EENS_14__copy_trivialEPhS5_S5_EENS_4pairIT2_T4_EES7_T3_S8_, symObjAddr: 0xBA6F4, symBinAddr: 0x1000BCCAC, symSize: 0x44 }
  - { offsetInCU: 0xA10B1, offset: 0xA10B1, size: 0x8, addend: 0x0, symName: __ZNSt3__121__unwrap_and_dispatchB8ue170006INS_10__overloadINS_11__copy_loopINS_17_ClassicAlgPolicyEEENS_14__copy_trivialEEEPhS7_S7_Li0EEENS_4pairIT0_T2_EES9_T1_SA_, symObjAddr: 0xBA738, symBinAddr: 0x1000BCCF0, symSize: 0xB4 }
  - { offsetInCU: 0xA1141, offset: 0xA1141, size: 0x8, addend: 0x0, symName: __ZNSt3__114__rewrap_rangeB8ue170006IPhS1_EET_S2_T0_, symObjAddr: 0xBA834, symBinAddr: 0x1000BCDEC, symSize: 0x2C }
  - { offsetInCU: 0xA118D, offset: 0xA118D, size: 0x8, addend: 0x0, symName: __ZNSt3__119__copy_trivial_implB8ue170006IhhEENS_4pairIPT_PT0_EES3_S3_S5_, symObjAddr: 0xBA860, symBinAddr: 0x1000BCE18, symSize: 0x78 }
  - { offsetInCU: 0xA11F6, offset: 0xA11F6, size: 0x8, addend: 0x0, symName: __ZNSt3__119__constexpr_memmoveB8ue170006IhhLi0EEEPT_S2_PT0_NS_15__element_countE, symObjAddr: 0xBA8D8, symBinAddr: 0x1000BCE90, symSize: 0x64 }
  - { offsetInCU: 0xA1265, offset: 0xA1265, size: 0x8, addend: 0x0, symName: __ZNSt3__19make_pairB8ue170006IRPhS1_EENS_4pairINS_18__unwrap_ref_decayIT_E4typeENS4_IT0_E4typeEEEOS5_OS8_, symObjAddr: 0xBA93C, symBinAddr: 0x1000BCEF4, symSize: 0x38 }
  - { offsetInCU: 0xA1307, offset: 0xA1307, size: 0x8, addend: 0x0, symName: __ZNSt3__14moveB8ue170006INS_11__wrap_iterIPN8nlohmann16json_abi_v3_11_310basic_jsonINS_3mapENS_6vectorENS_12basic_stringIcNS_11char_traitsIcEENS_9allocatorIcEEEEbxydSA_NS3_14adl_serializerENS6_IhNSA_IhEEEEvEEEENS_20back_insert_iteratorINS6_ISG_NSA_ISG_EEEEEEEET0_T_SO_SN_, symObjAddr: 0xBB63C, symBinAddr: 0x1000BDBF4, symSize: 0x60 }
  - { offsetInCU: 0xA1361, offset: 0xA1361, size: 0x8, addend: 0x0, symName: __ZNSt3__113back_inserterB8ue170006INS_6vectorIN8nlohmann16json_abi_v3_11_310basic_jsonINS_3mapES1_NS_12basic_stringIcNS_11char_traitsIcEENS_9allocatorIcEEEEbxydS9_NS3_14adl_serializerENS1_IhNS9_IhEEEEvEENS9_ISF_EEEEEENS_20back_insert_iteratorIT_EERSJ_, symObjAddr: 0xBB6FC, symBinAddr: 0x1000BDCB4, symSize: 0x2C }
  - { offsetInCU: 0xA1396, offset: 0xA1396, size: 0x8, addend: 0x0, symName: __ZNSt3__1neB8ue170006ERKNS_14__map_iteratorINS_15__tree_iteratorINS_12__value_typeINS_12basic_stringIcNS_11char_traitsIcEENS_9allocatorIcEEEEN8nlohmann16json_abi_v3_11_310basic_jsonINS_3mapENS_6vectorES8_bxydS6_NSA_14adl_serializerENSD_IhNS6_IhEEEEvEEEEPNS_11__tree_nodeISI_PvEElEEEESQ_, symObjAddr: 0xBB798, symBinAddr: 0x1000BDD50, symSize: 0x30 }
  - { offsetInCU: 0xA13D3, offset: 0xA13D3, size: 0x8, addend: 0x0, symName: __ZNSt3__16__moveB8ue170006INS_17_ClassicAlgPolicyENS_11__wrap_iterIPN8nlohmann16json_abi_v3_11_310basic_jsonINS_3mapENS_6vectorENS_12basic_stringIcNS_11char_traitsIcEENS_9allocatorIcEEEEbxydSB_NS4_14adl_serializerENS7_IhNSB_IhEEEEvEEEESJ_NS_20back_insert_iteratorINS7_ISH_NSB_ISH_EEEEEEEENS_4pairIT0_T2_EESP_T1_SQ_, symObjAddr: 0xBBB28, symBinAddr: 0x1000BE0E0, symSize: 0x5C }
  - { offsetInCU: 0xA143F, offset: 0xA143F, size: 0x8, addend: 0x0, symName: __ZNSt3__123__dispatch_copy_or_moveB8ue170006INS_17_ClassicAlgPolicyENS_11__move_loopIS1_EENS_14__move_trivialENS_11__wrap_iterIPN8nlohmann16json_abi_v3_11_310basic_jsonINS_3mapENS_6vectorENS_12basic_stringIcNS_11char_traitsIcEENS_9allocatorIcEEEEbxydSE_NS7_14adl_serializerENSA_IhNSE_IhEEEEvEEEESM_NS_20back_insert_iteratorINSA_ISK_NSE_ISK_EEEEEEEENS_4pairIT2_T4_EESS_T3_ST_, symObjAddr: 0xBBB84, symBinAddr: 0x1000BE13C, symSize: 0x5C }
  - { offsetInCU: 0xA14BD, offset: 0xA14BD, size: 0x8, addend: 0x0, symName: __ZNSt3__121__unwrap_and_dispatchB8ue170006INS_10__overloadINS_11__move_loopINS_17_ClassicAlgPolicyEEENS_14__move_trivialEEENS_11__wrap_iterIPN8nlohmann16json_abi_v3_11_310basic_jsonINS_3mapENS_6vectorENS_12basic_stringIcNS_11char_traitsIcEENS_9allocatorIcEEEEbxydSG_NS9_14adl_serializerENSC_IhNSG_IhEEEEvEEEESO_NS_20back_insert_iteratorINSC_ISM_NSG_ISM_EEEEEELi0EEENS_4pairIT0_T2_EESU_T1_SV_, symObjAddr: 0xBBBE0, symBinAddr: 0x1000BE198, symSize: 0xE8 }
  - { offsetInCU: 0xA154E, offset: 0xA154E, size: 0x8, addend: 0x0, symName: __ZNSt3__114__unwrap_rangeB8ue170006INS_11__wrap_iterIPN8nlohmann16json_abi_v3_11_310basic_jsonINS_3mapENS_6vectorENS_12basic_stringIcNS_11char_traitsIcEENS_9allocatorIcEEEEbxydSA_NS3_14adl_serializerENS6_IhNSA_IhEEEEvEEEESH_EENS_4pairIT0_SK_EET_SM_, symObjAddr: 0xBBCC8, symBinAddr: 0x1000BE280, symSize: 0x70 }
  - { offsetInCU: 0xA166E, offset: 0xA166E, size: 0x8, addend: 0x0, symName: __ZNSt3__113__unwrap_iterB8ue170006INS_20back_insert_iteratorINS_6vectorIN8nlohmann16json_abi_v3_11_310basic_jsonINS_3mapES2_NS_12basic_stringIcNS_11char_traitsIcEENS_9allocatorIcEEEEbxydSA_NS4_14adl_serializerENS2_IhNSA_IhEEEEvEENSA_ISG_EEEEEENS_18__unwrap_iter_implISJ_Lb0EEELi0EEEDTclsrT0_8__unwrapclsr3stdE7declvalIT_EEEESN_, symObjAddr: 0xBBDD0, symBinAddr: 0x1000BE388, symSize: 0x34 }
  - { offsetInCU: 0xA16B2, offset: 0xA16B2, size: 0x8, addend: 0x0, symName: __ZNSt3__19make_pairB8ue170006INS_11__wrap_iterIPN8nlohmann16json_abi_v3_11_310basic_jsonINS_3mapENS_6vectorENS_12basic_stringIcNS_11char_traitsIcEENS_9allocatorIcEEEEbxydSA_NS3_14adl_serializerENS6_IhNSA_IhEEEEvEEEENS_20back_insert_iteratorINS6_ISG_NSA_ISG_EEEEEEEENS_4pairINS_18__unwrap_ref_decayIT_E4typeENSO_IT0_E4typeEEEOSP_OSS_, symObjAddr: 0xBBE04, symBinAddr: 0x1000BE3BC, symSize: 0x38 }
  - { offsetInCU: 0xA1701, offset: 0xA1701, size: 0x8, addend: 0x0, symName: __ZNSt3__114__rewrap_rangeB8ue170006INS_11__wrap_iterIPN8nlohmann16json_abi_v3_11_310basic_jsonINS_3mapENS_6vectorENS_12basic_stringIcNS_11char_traitsIcEENS_9allocatorIcEEEEbxydSA_NS3_14adl_serializerENS6_IhNSA_IhEEEEvEEEESH_EET_SJ_T0_, symObjAddr: 0xBBE3C, symBinAddr: 0x1000BE3F4, symSize: 0x3C }
  - { offsetInCU: 0xA174D, offset: 0xA174D, size: 0x8, addend: 0x0, symName: __ZNSt3__113__rewrap_iterB8ue170006INS_20back_insert_iteratorINS_6vectorIN8nlohmann16json_abi_v3_11_310basic_jsonINS_3mapES2_NS_12basic_stringIcNS_11char_traitsIcEENS_9allocatorIcEEEEbxydSA_NS4_14adl_serializerENS2_IhNSA_IhEEEEvEENSA_ISG_EEEEEESJ_NS_18__unwrap_iter_implISJ_Lb0EEEEET_SM_T0_, symObjAddr: 0xBBE78, symBinAddr: 0x1000BE430, symSize: 0x54 }
  - { offsetInCU: 0xA17A2, offset: 0xA17A2, size: 0x8, addend: 0x0, symName: __ZNSt3__113__unwrap_iterB8ue170006INS_11__wrap_iterIPN8nlohmann16json_abi_v3_11_310basic_jsonINS_3mapENS_6vectorENS_12basic_stringIcNS_11char_traitsIcEENS_9allocatorIcEEEEbxydSA_NS3_14adl_serializerENS6_IhNSA_IhEEEEvEEEENS_18__unwrap_iter_implISI_Lb1EEELi0EEEDTclsrT0_8__unwrapclsr3stdE7declvalIT_EEEESM_, symObjAddr: 0xBBECC, symBinAddr: 0x1000BE484, symSize: 0x2C }
  - { offsetInCU: 0xA1839, offset: 0xA1839, size: 0x8, addend: 0x0, symName: __ZNSt3__112__to_addressB8ue170006INS_11__wrap_iterIPN8nlohmann16json_abi_v3_11_310basic_jsonINS_3mapENS_6vectorENS_12basic_stringIcNS_11char_traitsIcEENS_9allocatorIcEEEEbxydSA_NS3_14adl_serializerENS6_IhNSA_IhEEEEvEEEEvEEu7__decayIDTclsr19__to_address_helperIT_EE6__callclsr3stdE7declvalIRKSJ_EEEEESL_, symObjAddr: 0xBBF20, symBinAddr: 0x1000BE4D8, symSize: 0x24 }
  - { offsetInCU: 0xA1939, offset: 0xA1939, size: 0x8, addend: 0x0, symName: __ZNSt3__19make_pairB8ue170006IPN8nlohmann16json_abi_v3_11_310basic_jsonINS_3mapENS_6vectorENS_12basic_stringIcNS_11char_traitsIcEENS_9allocatorIcEEEEbxydS9_NS2_14adl_serializerENS5_IhNS9_IhEEEEvEENS_20back_insert_iteratorINS5_ISF_NS9_ISF_EEEEEEEENS_4pairINS_18__unwrap_ref_decayIT_E4typeENSM_IT0_E4typeEEEOSN_OSQ_, symObjAddr: 0xBC040, symBinAddr: 0x1000BE5F8, symSize: 0x38 }
  - { offsetInCU: 0xA1AA4, offset: 0xA1AA4, size: 0x8, addend: 0x0, symName: __ZNSt3__113__rewrap_iterB8ue170006INS_11__wrap_iterIPN8nlohmann16json_abi_v3_11_310basic_jsonINS_3mapENS_6vectorENS_12basic_stringIcNS_11char_traitsIcEENS_9allocatorIcEEEEbxydSA_NS3_14adl_serializerENS6_IhNSA_IhEEEEvEEEESH_NS_18__unwrap_iter_implISI_Lb1EEEEET_SL_T0_, symObjAddr: 0xBC178, symBinAddr: 0x1000BE730, symSize: 0x4C }
  - { offsetInCU: 0xA1AF9, offset: 0xA1AF9, size: 0x8, addend: 0x0, symName: __ZNSt3__1neB8ue170006ERKNS_15__tree_iteratorINS_12__value_typeINS_12basic_stringIcNS_11char_traitsIcEENS_9allocatorIcEEEEN8nlohmann16json_abi_v3_11_310basic_jsonINS_3mapENS_6vectorES7_bxydS5_NS9_14adl_serializerENSC_IhNS5_IhEEEEvEEEEPNS_11__tree_nodeISH_PvEElEESO_, symObjAddr: 0xBC37C, symBinAddr: 0x1000BE934, symSize: 0x34 }
  - { offsetInCU: 0xA1B36, offset: 0xA1B36, size: 0x8, addend: 0x0, symName: __ZNSt3__1eqB8ue170006ERKNS_15__tree_iteratorINS_12__value_typeINS_12basic_stringIcNS_11char_traitsIcEENS_9allocatorIcEEEEN8nlohmann16json_abi_v3_11_310basic_jsonINS_3mapENS_6vectorES7_bxydS5_NS9_14adl_serializerENSC_IhNS5_IhEEEEvEEEEPNS_11__tree_nodeISH_PvEElEESO_, symObjAddr: 0xBC3B0, symBinAddr: 0x1000BE968, symSize: 0x30 }
  - { offsetInCU: 0xA1BA6, offset: 0xA1BA6, size: 0x8, addend: 0x0, symName: __ZNSt3__1eqB8ue170006ERKNS_14__map_iteratorINS_15__tree_iteratorINS_12__value_typeINS_12basic_stringIcNS_11char_traitsIcEENS_9allocatorIcEEEEN8nlohmann16json_abi_v3_11_310basic_jsonINS_3mapENS_6vectorES8_bxydS6_NSA_14adl_serializerENSD_IhNS6_IhEEEEvEEEEPNS_11__tree_nodeISI_PvEElEEEESQ_, symObjAddr: 0xBD1C4, symBinAddr: 0x1000BF77C, symSize: 0x30 }
  - { offsetInCU: 0xA1BE3, offset: 0xA1BE3, size: 0x8, addend: 0x0, symName: __ZNSt3__1eqB8ue170006IPN8nlohmann16json_abi_v3_11_310basic_jsonINS_3mapENS_6vectorENS_12basic_stringIcNS_11char_traitsIcEENS_9allocatorIcEEEEbxydS9_NS2_14adl_serializerENS5_IhNS9_IhEEEEvEEEEbRKNS_11__wrap_iterIT_EESL_, symObjAddr: 0xBD1F4, symBinAddr: 0x1000BF7AC, symSize: 0x48 }
  - { offsetInCU: 0xA1C26, offset: 0xA1C26, size: 0x8, addend: 0x0, symName: __ZNSt3__1neB8ue170006IPN8nlohmann16json_abi_v3_11_310basic_jsonINS_3mapENS_6vectorENS_12basic_stringIcNS_11char_traitsIcEENS_9allocatorIcEEEEbxydS9_NS2_14adl_serializerENS5_IhNS9_IhEEEEvEEEEbRKNS_11__wrap_iterIT_EESL_, symObjAddr: 0xBD4AC, symBinAddr: 0x1000BFA64, symSize: 0x34 }
  - { offsetInCU: 0xA1C9C, offset: 0xA1C9C, size: 0x8, addend: 0x0, symName: __ZNSt3__1miB8ue170006IPKN8nlohmann16json_abi_v3_11_310basic_jsonINS_3mapENS_6vectorENS_12basic_stringIcNS_11char_traitsIcEENS_9allocatorIcEEEEbxydS9_NS2_14adl_serializerENS5_IhNS9_IhEEEEvEESH_EEDTmicldtfp_4baseEcldtfp0_4baseEERKNS_11__wrap_iterIT_EERKNSJ_IT0_EE, symObjAddr: 0xBDB10, symBinAddr: 0x1000C00C8, symSize: 0x48 }
  - { offsetInCU: 0xA1CE8, offset: 0xA1CE8, size: 0x8, addend: 0x0, symName: __ZNSt3__14moveB8ue170006IPN8nlohmann16json_abi_v3_11_310basic_jsonINS_3mapENS_6vectorENS_12basic_stringIcNS_11char_traitsIcEENS_9allocatorIcEEEEbxydS9_NS2_14adl_serializerENS5_IhNS9_IhEEEEvEESG_EET0_T_SI_SH_, symObjAddr: 0xBDB84, symBinAddr: 0x1000C013C, symSize: 0x40 }
  - { offsetInCU: 0xA1D42, offset: 0xA1D42, size: 0x8, addend: 0x0, symName: __ZNSt3__16__moveB8ue170006INS_17_ClassicAlgPolicyEPN8nlohmann16json_abi_v3_11_310basic_jsonINS_3mapENS_6vectorENS_12basic_stringIcNS_11char_traitsIcEENS_9allocatorIcEEEEbxydSA_NS3_14adl_serializerENS6_IhNSA_IhEEEEvEESH_SH_EENS_4pairIT0_T2_EESJ_T1_SK_, symObjAddr: 0xBDC90, symBinAddr: 0x1000C0248, symSize: 0x44 }
  - { offsetInCU: 0xA1DAE, offset: 0xA1DAE, size: 0x8, addend: 0x0, symName: __ZNSt3__123__dispatch_copy_or_moveB8ue170006INS_17_ClassicAlgPolicyENS_11__move_loopIS1_EENS_14__move_trivialEPN8nlohmann16json_abi_v3_11_310basic_jsonINS_3mapENS_6vectorENS_12basic_stringIcNS_11char_traitsIcEENS_9allocatorIcEEEEbxydSD_NS6_14adl_serializerENS9_IhNSD_IhEEEEvEESK_SK_EENS_4pairIT2_T4_EESM_T3_SN_, symObjAddr: 0xBDCD4, symBinAddr: 0x1000C028C, symSize: 0x44 }
  - { offsetInCU: 0xA1E2C, offset: 0xA1E2C, size: 0x8, addend: 0x0, symName: __ZNSt3__121__unwrap_and_dispatchB8ue170006INS_10__overloadINS_11__move_loopINS_17_ClassicAlgPolicyEEENS_14__move_trivialEEEPN8nlohmann16json_abi_v3_11_310basic_jsonINS_3mapENS_6vectorENS_12basic_stringIcNS_11char_traitsIcEENS_9allocatorIcEEEEbxydSF_NS8_14adl_serializerENSB_IhNSF_IhEEEEvEESM_SM_Li0EEENS_4pairIT0_T2_EESO_T1_SP_, symObjAddr: 0xBDD18, symBinAddr: 0x1000C02D0, symSize: 0xB4 }
  - { offsetInCU: 0xA1EBC, offset: 0xA1EBC, size: 0x8, addend: 0x0, symName: __ZNSt3__114__rewrap_rangeB8ue170006IPN8nlohmann16json_abi_v3_11_310basic_jsonINS_3mapENS_6vectorENS_12basic_stringIcNS_11char_traitsIcEENS_9allocatorIcEEEEbxydS9_NS2_14adl_serializerENS5_IhNS9_IhEEEEvEESG_EET_SH_T0_, symObjAddr: 0xBDE74, symBinAddr: 0x1000C042C, symSize: 0x2C }
  - { offsetInCU: 0xA1F09, offset: 0xA1F09, size: 0x8, addend: 0x0, symName: __ZNSt3__19__advanceB8ue170006INS_14__map_iteratorINS_15__tree_iteratorINS_12__value_typeINS_12basic_stringIcNS_11char_traitsIcEENS_9allocatorIcEEEEN8nlohmann16json_abi_v3_11_310basic_jsonINS_3mapENS_6vectorES9_bxydS7_NSB_14adl_serializerENSE_IhNS7_IhEEEEvEEEEPNS_11__tree_nodeISJ_PvEElEEEEEEvRT_NS_15iterator_traitsISQ_E15difference_typeENS_26bidirectional_iterator_tagE, symObjAddr: 0xBE15C, symBinAddr: 0x1000C0714, symSize: 0xA4 }
  - { offsetInCU: 0xA1F53, offset: 0xA1F53, size: 0x8, addend: 0x0, symName: __ZNSt3__19__advanceB8ue170006INS_11__wrap_iterIPN8nlohmann16json_abi_v3_11_310basic_jsonINS_3mapENS_6vectorENS_12basic_stringIcNS_11char_traitsIcEENS_9allocatorIcEEEEbxydSA_NS3_14adl_serializerENS6_IhNSA_IhEEEEvEEEEEEvRT_NS_15iterator_traitsISJ_E15difference_typeENS_26random_access_iterator_tagE, symObjAddr: 0xBE264, symBinAddr: 0x1000C081C, symSize: 0x2C }
  - { offsetInCU: 0xA1FD3, offset: 0xA1FD3, size: 0x8, addend: 0x0, symName: __ZNSt3__116forward_as_tupleB8ue170006IJRKNS_12basic_stringIcNS_11char_traitsIcEENS_9allocatorIcEEEEEEENS_5tupleIJDpOT_EEESC_, symObjAddr: 0xBE5C0, symBinAddr: 0x1000C0B78, symSize: 0x2C }
  - { offsetInCU: 0xA200C, offset: 0xA200C, size: 0x8, addend: 0x0, symName: __ZNSt3__116forward_as_tupleB8ue170006IJEEENS_5tupleIJDpOT_EEES4_, symObjAddr: 0xBE5EC, symBinAddr: 0x1000C0BA4, symSize: 0x4 }
  - { offsetInCU: 0xA2030, offset: 0xA2030, size: 0x8, addend: 0x0, symName: __ZNSt3__13getB8ue170006ILm0EJRKNS_12basic_stringIcNS_11char_traitsIcEENS_9allocatorIcEEEEEEERNS_13tuple_elementIXT_ENS_5tupleIJDpT0_EEEE4typeERSD_, symObjAddr: 0xBE864, symBinAddr: 0x1000C0E1C, symSize: 0x24 }
  - { offsetInCU: 0xA2690, offset: 0xA2690, size: 0x8, addend: 0x0, symName: __ZNSt3__1neB8ue170006INS_3mapINS_12basic_stringIcNS_11char_traitsIcEENS_9allocatorIcEEEEN8nlohmann16json_abi_v3_11_310basic_jsonIS1_NS_6vectorES7_bxydS5_NS9_14adl_serializerENSB_IhNS5_IhEEEEvEENS_4lessIS7_EENS5_INS_4pairIKS7_SF_EEEEEEZNSF_6createISM_JEEEPT_DpOT0_EUlPSM_E_EEbRKNS_10unique_ptrISO_T0_EEDn, symObjAddr: 0xC27B8, symBinAddr: 0x1000C4D70, symSize: 0x2C }
  - { offsetInCU: 0xA2A1C, offset: 0xA2A1C, size: 0x8, addend: 0x0, symName: __ZNSt3__1neB8ue170006INS_6vectorIN8nlohmann16json_abi_v3_11_310basic_jsonINS_3mapES1_NS_12basic_stringIcNS_11char_traitsIcEENS_9allocatorIcEEEEbxydS9_NS3_14adl_serializerENS1_IhNS9_IhEEEEvEENS9_ISF_EEEEZNSF_6createISH_JEEEPT_DpOT0_EUlPSH_E_EEbRKNS_10unique_ptrISJ_T0_EEDn, symObjAddr: 0xC2DC0, symBinAddr: 0x1000C5378, symSize: 0x2C }
  - { offsetInCU: 0xA2DA8, offset: 0xA2DA8, size: 0x8, addend: 0x0, symName: __ZNSt3__1neB8ue170006INS_12basic_stringIcNS_11char_traitsIcEENS_9allocatorIcEEEEZN8nlohmann16json_abi_v3_11_310basic_jsonINS_3mapENS_6vectorES6_bxydS4_NS8_14adl_serializerENSB_IhNS4_IhEEEEvE6createIS6_JRA1_KcEEEPT_DpOT0_EUlPS6_E_EEbRKNS_10unique_ptrISK_T0_EEDn, symObjAddr: 0xC31A8, symBinAddr: 0x1000C5760, symSize: 0x2C }
  - { offsetInCU: 0xA3134, offset: 0xA3134, size: 0x8, addend: 0x0, symName: __ZNSt3__1neB8ue170006IN8nlohmann16json_abi_v3_11_327byte_container_with_subtypeINS_6vectorIhNS_9allocatorIhEEEEEEZNS2_10basic_jsonINS_3mapES4_NS_12basic_stringIcNS_11char_traitsIcEENS5_IcEEEEbxydS5_NS2_14adl_serializerES7_vE6createIS8_JEEEPT_DpOT0_EUlPS8_E_EEbRKNS_10unique_ptrISJ_T0_EEDn, symObjAddr: 0xC3590, symBinAddr: 0x1000C5B48, symSize: 0x2C }
  - { offsetInCU: 0xA31A4, offset: 0xA31A4, size: 0x8, addend: 0x0, symName: __ZNSt3__14swapB8ue170006IN8nlohmann16json_abi_v3_11_36detail7value_tEEENS_9enable_ifIXaasr21is_move_constructibleIT_EE5valuesr18is_move_assignableIS6_EE5valueEvE4typeERS6_S9_, symObjAddr: 0xC718C, symBinAddr: 0x1000C9744, symSize: 0x3C }
  - { offsetInCU: 0xA31F6, offset: 0xA31F6, size: 0x8, addend: 0x0, symName: __ZNSt3__14swapB8ue170006IN8nlohmann16json_abi_v3_11_310basic_jsonINS_3mapENS_6vectorENS_12basic_stringIcNS_11char_traitsIcEENS_9allocatorIcEEEEbxydS9_NS2_14adl_serializerENS5_IhNS9_IhEEEEvE10json_valueEEENS_9enable_ifIXaasr21is_move_constructibleIT_EE5valuesr18is_move_assignableISI_EE5valueEvE4typeERSI_SL_, symObjAddr: 0xC71C8, symBinAddr: 0x1000C9780, symSize: 0x3C }
  - { offsetInCU: 0xA331C, offset: 0xA331C, size: 0x8, addend: 0x0, symName: __ZNSt3__111make_sharedB8ue170006IN8nlohmann16json_abi_v3_11_36detail21output_string_adapterIcNS_12basic_stringIcNS_11char_traitsIcEENS_9allocatorIcEEEEEEJRSA_EvEENS_10shared_ptrIT_EEDpOT0_, symObjAddr: 0xC88EC, symBinAddr: 0x1000CAEA4, symSize: 0x40 }
  - { offsetInCU: 0xA3549, offset: 0xA3549, size: 0x8, addend: 0x0, symName: __ZNSt3__115allocate_sharedB8ue170006IN8nlohmann16json_abi_v3_11_36detail21output_string_adapterIcNS_12basic_stringIcNS_11char_traitsIcEENS_9allocatorIcEEEEEENS8_ISB_EEJRSA_EvEENS_10shared_ptrIT_EERKT0_DpOT1_, symObjAddr: 0xC898C, symBinAddr: 0x1000CAF44, symSize: 0x98 }
  - { offsetInCU: 0xA38F6, offset: 0xA38F6, size: 0x8, addend: 0x0, symName: __ZNSt3__1eqB8ue170006ERKNS_20__map_const_iteratorINS_21__tree_const_iteratorINS_12__value_typeINS_12basic_stringIcNS_11char_traitsIcEENS_9allocatorIcEEEEN8nlohmann16json_abi_v3_11_310basic_jsonINS_3mapENS_6vectorES8_bxydS6_NSA_14adl_serializerENSD_IhNS6_IhEEEEvEEEEPNS_11__tree_nodeISI_PvEElEEEESQ_, symObjAddr: 0xCA4C8, symBinAddr: 0x1000CCA80, symSize: 0x30 }
  - { offsetInCU: 0xA3933, offset: 0xA3933, size: 0x8, addend: 0x0, symName: __ZNSt3__14nextB8ue170006INS_20__map_const_iteratorINS_21__tree_const_iteratorINS_12__value_typeINS_12basic_stringIcNS_11char_traitsIcEENS_9allocatorIcEEEEN8nlohmann16json_abi_v3_11_310basic_jsonINS_3mapENS_6vectorES9_bxydS7_NSB_14adl_serializerENSE_IhNS7_IhEEEEvEEEEPNS_11__tree_nodeISJ_PvEElEEEEEENS_9enable_ifIXsr29__has_input_iterator_categoryIT_EE5valueESR_E4typeESR_NS_15iterator_traitsISR_E15difference_typeE, symObjAddr: 0xCA4F8, symBinAddr: 0x1000CCAB0, symSize: 0x3C }
  - { offsetInCU: 0xA3976, offset: 0xA3976, size: 0x8, addend: 0x0, symName: __ZNSt3__1neB8ue170006IPKN8nlohmann16json_abi_v3_11_310basic_jsonINS_3mapENS_6vectorENS_12basic_stringIcNS_11char_traitsIcEENS_9allocatorIcEEEEbxydS9_NS2_14adl_serializerENS5_IhNS9_IhEEEEvEEEEbRKNS_11__wrap_iterIT_EESM_, symObjAddr: 0xCA534, symBinAddr: 0x1000CCAEC, symSize: 0x34 }
  - { offsetInCU: 0xA39B9, offset: 0xA39B9, size: 0x8, addend: 0x0, symName: __ZNSt3__1neB8ue170006IPKhEEbRKNS_11__wrap_iterIT_EES7_, symObjAddr: 0xCA65C, symBinAddr: 0x1000CCC14, symSize: 0x34 }
  - { offsetInCU: 0xA3A30, offset: 0xA3A30, size: 0x8, addend: 0x0, symName: __ZNSt3__19__advanceB8ue170006INS_20__map_const_iteratorINS_21__tree_const_iteratorINS_12__value_typeINS_12basic_stringIcNS_11char_traitsIcEENS_9allocatorIcEEEEN8nlohmann16json_abi_v3_11_310basic_jsonINS_3mapENS_6vectorES9_bxydS7_NSB_14adl_serializerENSE_IhNS7_IhEEEEvEEEEPNS_11__tree_nodeISJ_PvEElEEEEEEvRT_NS_15iterator_traitsISQ_E15difference_typeENS_26bidirectional_iterator_tagE, symObjAddr: 0xCB840, symBinAddr: 0x1000CDDF8, symSize: 0xA4 }
  - { offsetInCU: 0xA3A79, offset: 0xA3A79, size: 0x8, addend: 0x0, symName: __ZNSt3__1eqB8ue170006IPKN8nlohmann16json_abi_v3_11_310basic_jsonINS_3mapENS_6vectorENS_12basic_stringIcNS_11char_traitsIcEENS_9allocatorIcEEEEbxydS9_NS2_14adl_serializerENS5_IhNS9_IhEEEEvEEEEbRKNS_11__wrap_iterIT_EESM_, symObjAddr: 0xCB910, symBinAddr: 0x1000CDEC8, symSize: 0x48 }
  - { offsetInCU: 0xA3ABC, offset: 0xA3ABC, size: 0x8, addend: 0x0, symName: __ZNSt3__1eqB8ue170006IPKhEEbRKNS_11__wrap_iterIT_EES7_, symObjAddr: 0xCBAA0, symBinAddr: 0x1000CE058, symSize: 0x48 }
  - { offsetInCU: 0xA3E68, offset: 0xA3E68, size: 0x8, addend: 0x0, symName: '__ZNSt3__116forward_as_tupleB8ue170006IJZ4mainE3$_1EEENS_5tupleIJDpOT_EEES5_', symObjAddr: 0xCE290, symBinAddr: 0x1000D0848, symSize: 0x2C }
  - { offsetInCU: 0xA3EA2, offset: 0xA3EA2, size: 0x8, addend: 0x0, symName: '__ZNSt3__116forward_as_tupleB8ue170006IJNS_9allocatorIZ4mainE3$_1EEEEENS_5tupleIJDpOT_EEES7_', symObjAddr: 0xCE2BC, symBinAddr: 0x1000D0874, symSize: 0x2C }
  - { offsetInCU: 0xA3F06, offset: 0xA3F06, size: 0x8, addend: 0x0, symName: '__ZNSt3__13getB8ue170006ILm0EJOZ4mainE3$_1EEERNS_13tuple_elementIXT_ENS_5tupleIJDpT0_EEEE4typeERS7_', symObjAddr: 0xCE5C8, symBinAddr: 0x1000D0B80, symSize: 0x24 }
  - { offsetInCU: 0xA3F49, offset: 0xA3F49, size: 0x8, addend: 0x0, symName: '__ZNSt3__13getB8ue170006ILm0EJONS_9allocatorIZ4mainE3$_1EEEEERNS_13tuple_elementIXT_ENS_5tupleIJDpT0_EEEE4typeERS9_', symObjAddr: 0xCE604, symBinAddr: 0x1000D0BBC, symSize: 0x24 }
  - { offsetInCU: 0xA448A, offset: 0xA448A, size: 0x8, addend: 0x0, symName: '__ZNSt3__116forward_as_tupleB8ue170006IJRKZ4mainE3$_1EEENS_5tupleIJDpOT_EEES7_', symObjAddr: 0xCEB98, symBinAddr: 0x1000D1150, symSize: 0x2C }
  - { offsetInCU: 0xA44D9, offset: 0xA44D9, size: 0x8, addend: 0x0, symName: '__ZNSt3__13getB8ue170006ILm0EJRKZ4mainE3$_1EEERNS_13tuple_elementIXT_ENS_5tupleIJDpT0_EEEE4typeERS8_', symObjAddr: 0xCED7C, symBinAddr: 0x1000D1334, symSize: 0x24 }
  - { offsetInCU: 0xA451C, offset: 0xA451C, size: 0x8, addend: 0x0, symName: '__ZNSt3__116forward_as_tupleB8ue170006IJRKNS_9allocatorIZ4mainE3$_1EEEEENS_5tupleIJDpOT_EEES9_', symObjAddr: 0xCF0D8, symBinAddr: 0x1000D1690, symSize: 0x2C }
  - { offsetInCU: 0xA456B, offset: 0xA456B, size: 0x8, addend: 0x0, symName: '__ZNSt3__13getB8ue170006ILm0EJRKNS_9allocatorIZ4mainE3$_1EEEEERNS_13tuple_elementIXT_ENS_5tupleIJDpT0_EEEE4typeERSA_', symObjAddr: 0xCF2BC, symBinAddr: 0x1000D1874, symSize: 0x24 }
  - { offsetInCU: 0xA45AE, offset: 0xA45AE, size: 0x8, addend: 0x0, symName: '__ZNSt3__18__invokeB8ue170006IRZ4mainE3$_1JRKN7httplib7RequestERNS3_8ResponseEEEEDTclclsr3stdE7declvalIT_EEspclsr3stdE7declvalIT0_EEEEOS9_DpOSA_', symObjAddr: 0xCF398, symBinAddr: 0x1000D1950, symSize: 0x34 }
  - { offsetInCU: 0xA6E2F, offset: 0xA6E2F, size: 0x8, addend: 0x0, symName: __ZSt28__throw_bad_array_new_lengthB8ue170006v, symObjAddr: 0x1E1C, symBinAddr: 0x1000043D4, symSize: 0x34 }
  - { offsetInCU: 0xA6E5E, offset: 0xA6E5E, size: 0x8, addend: 0x0, symName: __ZN7httplib6detail13random_stringEm, symObjAddr: 0x1EC04, symBinAddr: 0x1000211BC, symSize: 0x35C }
  - { offsetInCU: 0xA6E8A, offset: 0xA6E8A, size: 0x8, addend: 0x0, symName: __ZZN7httplib6detail13random_stringEmE4data, symObjAddr: 0xD9419, symBinAddr: 0x1000DA1F9, symSize: 0x0 }
  - { offsetInCU: 0xA6EA1, offset: 0xA6EA1, size: 0x8, addend: 0x0, symName: __ZZN7httplib6detail13random_stringEmE8seed_gen, symObjAddr: 0xDDE88, symBinAddr: 0x1000F0000, symSize: 0x0 }
  - { offsetInCU: 0xA6EB8, offset: 0xA6EB8, size: 0x8, addend: 0x0, symName: __ZZN7httplib6detail13random_stringEmE13seed_sequence, symObjAddr: 0xDDE98, symBinAddr: 0x1000F0010, symSize: 0x0 }
  - { offsetInCU: 0xA6ECF, offset: 0xA6ECF, size: 0x8, addend: 0x0, symName: __ZZN7httplib6detail13random_stringEmE6engine, symObjAddr: 0xDDEB8, symBinAddr: 0x1000F0030, symSize: 0x0 }
  - { offsetInCU: 0xA6F11, offset: 0xA6F11, size: 0x8, addend: 0x0, symName: __ZN7httplib6detail13from_i_to_hexEm, symObjAddr: 0x2D478, symBinAddr: 0x10002FA30, symSize: 0xF4 }
  - { offsetInCU: 0xA6F3D, offset: 0xA6F3D, size: 0x8, addend: 0x0, symName: __ZZN7httplib6detail13from_i_to_hexEmE7charset, symObjAddr: 0xD71E8, symBinAddr: 0x1000EAFF8, symSize: 0x0 }
  - { offsetInCU: 0xA6F67, offset: 0xA6F67, size: 0x8, addend: 0x0, symName: __ZN7httplib6detail21write_content_chunkedIZNS_6Server27write_content_with_providerERNS_6StreamERKNS_7RequestERNS_8ResponseERKNSt3__112basic_stringIcNSA_11char_traitsIcEENSA_9allocatorIcEEEESI_EUlvE_NS0_10compressorEEEbS4_RKNSA_8functionIFbmmRNS_8DataSinkEEEERKT_RT0_RNS_5ErrorE, symObjAddr: 0x2B160, symBinAddr: 0x10002D718, symSize: 0x2E8 }
  - { offsetInCU: 0xA7271, offset: 0xA7271, size: 0x8, addend: 0x0, symName: __ZN7httplib6detail14file_extensionERKNSt3__112basic_stringIcNS1_11char_traitsIcEENS1_9allocatorIcEEEE, symObjAddr: 0x4C150, symBinAddr: 0x10004E708, symSize: 0x16C }
  - { offsetInCU: 0xA729D, offset: 0xA729D, size: 0x8, addend: 0x0, symName: __ZZN7httplib6detail14file_extensionERKNSt3__112basic_stringIcNS1_11char_traitsIcEENS1_9allocatorIcEEEEE2re, symObjAddr: 0xDE8E8, symBinAddr: 0x1000F0A60, symSize: 0x0 }
  - { offsetInCU: 0xA7509, offset: 0xA7509, size: 0x8, addend: 0x0, symName: __ZN7httplib6detail13write_contentIZNS_6Server27write_content_with_providerERNS_6StreamERKNS_7RequestERNS_8ResponseERKNSt3__112basic_stringIcNSA_11char_traitsIcEENSA_9allocatorIcEEEESI_EUlvE_EEbS4_RKNSA_8functionIFbmmRNS_8DataSinkEEEEmmT_RNS_5ErrorE, symObjAddr: 0x25EEC, symBinAddr: 0x1000284A4, symSize: 0x274 }
  - { offsetInCU: 0xA76A6, offset: 0xA76A6, size: 0x8, addend: 0x0, symName: __ZN7httplib6detail28write_content_without_lengthIZNS_6Server27write_content_with_providerERNS_6StreamERKNS_7RequestERNS_8ResponseERKNSt3__112basic_stringIcNSA_11char_traitsIcEENSA_9allocatorIcEEEESI_EUlvE_EEbS4_RKNSA_8functionIFbmmRNS_8DataSinkEEEERKT_, symObjAddr: 0x25CBC, symBinAddr: 0x100028274, symSize: 0x230 }
  - { offsetInCU: 0xA77DD, offset: 0xA77DD, size: 0x8, addend: 0x0, symName: __ZN7httplib6detail16parse_query_textEPKcmRNSt3__18multimapINS3_12basic_stringIcNS3_11char_traitsIcEENS3_9allocatorIcEEEESA_NS3_4lessISA_EENS8_INS3_4pairIKSA_SA_EEEEEE, symObjAddr: 0x41860, symBinAddr: 0x100043E18, symSize: 0x10C }
  - { offsetInCU: 0xA7871, offset: 0xA7871, size: 0x8, addend: 0x0, symName: __ZN7httplib6detail18parse_range_headerERKNSt3__112basic_stringIcNS1_11char_traitsIcEENS1_9allocatorIcEEEERNS1_6vectorINS1_4pairIllEENS5_ISC_EEEE, symObjAddr: 0x13F00, symBinAddr: 0x1000164B8, symSize: 0x1E0 }
  - { offsetInCU: 0xA7A33, offset: 0xA7A33, size: 0x8, addend: 0x0, symName: __ZN7httplib6detail24parse_disposition_paramsERKNSt3__112basic_stringIcNS1_11char_traitsIcEENS1_9allocatorIcEEEERNS1_8multimapIS7_S7_NS1_4lessIS7_EENS5_INS1_4pairIS8_S7_EEEEEE, symObjAddr: 0x797EC, symBinAddr: 0x10007BDA4, symSize: 0x114 }
  - { offsetInCU: 0xA7AB8, offset: 0xA7AB8, size: 0x8, addend: 0x0, symName: __ZN7httplib6detail24prepare_content_receiverINS_7RequestEZNS0_12read_contentIS2_EEbRNS_6StreamERT_mRiNSt3__18functionIFbyyEEENSA_IFbPKcmyyEEEbEUlRKSG_E_EEbS7_S8_SG_bT0_, symObjAddr: 0x7FAF8, symBinAddr: 0x1000820B0, symSize: 0x334 }
  - { offsetInCU: 0xA801B, offset: 0xA801B, size: 0x8, addend: 0x0, symName: __ZN7httplib6detail13write_headersERNS_6StreamERKNSt3__18multimapINS3_12basic_stringIcNS3_11char_traitsIcEENS3_9allocatorIcEEEESA_NS0_2ciENS8_INS3_4pairIKSA_SA_EEEEEE, symObjAddr: 0xC70, symBinAddr: 0x100003228, symSize: 0x148 }
  - { offsetInCU: 0xA80EC, offset: 0xA80EC, size: 0x8, addend: 0x0, symName: __ZN7httplib6detail21process_server_socketIZNS_6Server24process_and_close_socketEiEUlRNS_6StreamEbRbE_EEbRKNSt3__16atomicIiEEimlllllT_, symObjAddr: 0x10064, symBinAddr: 0x10001261C, symSize: 0x8C }
  - { offsetInCU: 0xA8210, offset: 0xA8210, size: 0x8, addend: 0x0, symName: __ZN7httplib6detail15shutdown_socketEi, symObjAddr: 0x100F0, symBinAddr: 0x1000126A8, symSize: 0x28 }
  - { offsetInCU: 0xA823E, offset: 0xA823E, size: 0x8, addend: 0x0, symName: __ZN7httplib6detail12close_socketEi, symObjAddr: 0x10118, symBinAddr: 0x1000126D0, symSize: 0x24 }
  - { offsetInCU: 0xA826C, offset: 0xA826C, size: 0x8, addend: 0x0, symName: __ZN7httplib6detail26process_server_socket_coreIZNS0_21process_server_socketIZNS_6Server24process_and_close_socketEiEUlRNS_6StreamEbRbE_EEbRKNSt3__16atomicIiEEimlllllT_EUlbS6_E_EEbSC_imlSD_, symObjAddr: 0x1013C, symBinAddr: 0x1000126F4, symSize: 0x148 }
  - { offsetInCU: 0xA832F, offset: 0xA832F, size: 0x8, addend: 0x0, symName: __ZN7httplib6detail10keep_aliveEil, symObjAddr: 0x102AC, symBinAddr: 0x100012864, symSize: 0x138 }
  - { offsetInCU: 0xA83E3, offset: 0xA83E3, size: 0x8, addend: 0x0, symName: __ZN7httplib6detail11select_readEill, symObjAddr: 0x1054C, symBinAddr: 0x100012B04, symSize: 0x154 }
  - { offsetInCU: 0xA84E6, offset: 0xA84E6, size: 0x8, addend: 0x0, symName: __ZN7httplib6detail12handle_EINTRIZNS0_11select_readEillEUlvE_EElT_, symObjAddr: 0x10838, symBinAddr: 0x100012DF0, symSize: 0x74 }
  - { offsetInCU: 0xA852E, offset: 0xA852E, size: 0x8, addend: 0x0, symName: __ZN7httplib6detail12select_writeEill, symObjAddr: 0x11A38, symBinAddr: 0x100013FF0, symSize: 0x154 }
  - { offsetInCU: 0xA8631, offset: 0xA8631, size: 0x8, addend: 0x0, symName: __ZN7httplib6detail15is_socket_aliveEi, symObjAddr: 0x11B8C, symBinAddr: 0x100014144, symSize: 0xD0 }
  - { offsetInCU: 0xA867F, offset: 0xA867F, size: 0x8, addend: 0x0, symName: __ZN7httplib6detail12handle_EINTRIZNS0_12select_writeEillEUlvE_EElT_, symObjAddr: 0x11C5C, symBinAddr: 0x100014214, symSize: 0x74 }
  - { offsetInCU: 0xA86C7, offset: 0xA86C7, size: 0x8, addend: 0x0, symName: __ZN7httplib6detail11read_socketEiPvmi, symObjAddr: 0x11D10, symBinAddr: 0x1000142C8, symSize: 0x50 }
  - { offsetInCU: 0xA8772, offset: 0xA8772, size: 0x8, addend: 0x0, symName: __ZN7httplib6detail12handle_EINTRIZNS0_11read_socketEiPvmiEUlvE_EElT_, symObjAddr: 0x11D60, symBinAddr: 0x100014318, symSize: 0x6C }
  - { offsetInCU: 0xA87BA, offset: 0xA87BA, size: 0x8, addend: 0x0, symName: __ZN7httplib6detail11send_socketEiPKvmi, symObjAddr: 0x11E38, symBinAddr: 0x1000143F0, symSize: 0x50 }
  - { offsetInCU: 0xA8865, offset: 0xA8865, size: 0x8, addend: 0x0, symName: __ZN7httplib6detail12handle_EINTRIZNS0_11send_socketEiPKvmiEUlvE_EElT_, symObjAddr: 0x11E88, symBinAddr: 0x100014440, symSize: 0x6C }
  - { offsetInCU: 0xA88AE, offset: 0xA88AE, size: 0x8, addend: 0x0, symName: __ZN7httplib6detail22get_remote_ip_and_portEiRNSt3__112basic_stringIcNS1_11char_traitsIcEENS1_9allocatorIcEEEERi, symObjAddr: 0x11F38, symBinAddr: 0x1000144F0, symSize: 0xB0 }
  - { offsetInCU: 0xA8916, offset: 0xA8916, size: 0x8, addend: 0x0, symName: __ZN7httplib6detail15get_ip_and_portERK16sockaddr_storagejRNSt3__112basic_stringIcNS4_11char_traitsIcEENS4_9allocatorIcEEEERi, symObjAddr: 0x11FE8, symBinAddr: 0x1000145A0, symSize: 0x1BC }
  - { offsetInCU: 0xA8985, offset: 0xA8985, size: 0x8, addend: 0x0, symName: __ZN7httplib6detail21get_local_ip_and_portEiRNSt3__112basic_stringIcNS1_11char_traitsIcEENS1_9allocatorIcEEEERi, symObjAddr: 0x1221C, symBinAddr: 0x1000147D4, symSize: 0x98 }
  - { offsetInCU: 0xA8AD6, offset: 0xA8AD6, size: 0x8, addend: 0x0, symName: __ZN7httplib6detail12read_headersERNS_6StreamERNSt3__18multimapINS3_12basic_stringIcNS3_11char_traitsIcEENS3_9allocatorIcEEEESA_NS0_2ciENS8_INS3_4pairIKSA_SA_EEEEEE, symObjAddr: 0x13420, symBinAddr: 0x1000159D8, symSize: 0x204 }
  - { offsetInCU: 0xA8B9F, offset: 0xA8B9F, size: 0x8, addend: 0x0, symName: __ZN7httplib6detail11range_errorERNS_7RequestERNS_8ResponseE, symObjAddr: 0x15728, symBinAddr: 0x100017CE0, symSize: 0x34C }
  - { offsetInCU: 0xA8CAF, offset: 0xA8CAF, size: 0x8, addend: 0x0, symName: __ZN7httplib6detail12parse_headerIZNS0_12read_headersERNS_6StreamERNSt3__18multimapINS4_12basic_stringIcNS4_11char_traitsIcEENS4_9allocatorIcEEEESB_NS0_2ciENS9_INS4_4pairIKSB_SB_EEEEEEEUlRSE_SJ_E_EEbPKcSM_T_, symObjAddr: 0x19E58, symBinAddr: 0x10001C410, symSize: 0x3D0 }
  - { offsetInCU: 0xA8D5D, offset: 0xA8D5D, size: 0x8, addend: 0x0, symName: __ZN7httplib6detail15is_space_or_tabEc, symObjAddr: 0x1A228, symBinAddr: 0x10001C7E0, symSize: 0x48 }
  - { offsetInCU: 0xA8D8B, offset: 0xA8D8B, size: 0x8, addend: 0x0, symName: __ZN7httplib6detail19compare_case_ignoreERKNSt3__112basic_stringIcNS1_11char_traitsIcEENS1_9allocatorIcEEEES9_, symObjAddr: 0x1A2AC, symBinAddr: 0x10001C864, symSize: 0x114 }
  - { offsetInCU: 0xA8DE7, offset: 0xA8DE7, size: 0x8, addend: 0x0, symName: __ZN7httplib6detail10decode_urlERKNSt3__112basic_stringIcNS1_11char_traitsIcEENS1_9allocatorIcEEEEb, symObjAddr: 0x1A3C0, symBinAddr: 0x10001C978, symSize: 0x2E0 }
  - { offsetInCU: 0xA8EAA, offset: 0xA8EAA, size: 0x8, addend: 0x0, symName: __ZN7httplib6detail13from_hex_to_iERKNSt3__112basic_stringIcNS1_11char_traitsIcEENS1_9allocatorIcEEEEmmRi, symObjAddr: 0x1ADE4, symBinAddr: 0x10001D39C, symSize: 0x14C }
  - { offsetInCU: 0xA8F24, offset: 0xA8F24, size: 0x8, addend: 0x0, symName: __ZN7httplib6detail7to_utf8EiPc, symObjAddr: 0x1AF30, symBinAddr: 0x10001D4E8, symSize: 0x234 }
  - { offsetInCU: 0xA8F61, offset: 0xA8F61, size: 0x8, addend: 0x0, symName: __ZN7httplib6detail6is_hexEcRi, symObjAddr: 0x1B164, symBinAddr: 0x10001D71C, symSize: 0x140 }
  - { offsetInCU: 0xA9104, offset: 0xA9104, size: 0x8, addend: 0x0, symName: __ZN7httplib6detail10write_dataERNS_6StreamEPKcm, symObjAddr: 0x1D168, symBinAddr: 0x10001F720, symSize: 0xC8 }
  - { offsetInCU: 0xA9180, offset: 0xA9180, size: 0x8, addend: 0x0, symName: __ZN7httplib6detail28make_multipart_data_boundaryEv, symObjAddr: 0x1D71C, symBinAddr: 0x10001FCD4, symSize: 0x70 }
  - { offsetInCU: 0xA919E, offset: 0xA919E, size: 0x8, addend: 0x0, symName: __ZN7httplib6detail13encoding_typeERKNS_7RequestERKNS_8ResponseE, symObjAddr: 0x1D7C0, symBinAddr: 0x10001FD78, symSize: 0x144 }
  - { offsetInCU: 0xA91FC, offset: 0xA91FC, size: 0x8, addend: 0x0, symName: __ZN7httplib6detail27get_range_offset_and_lengthENSt3__14pairIllEEm, symObjAddr: 0x1D904, symBinAddr: 0x10001FEBC, symSize: 0x194 }
  - { offsetInCU: 0xA9239, offset: 0xA9239, size: 0x8, addend: 0x0, symName: __ZN7httplib6detail31make_content_range_header_fieldERKNSt3__14pairImmEEm, symObjAddr: 0x1DABC, symBinAddr: 0x100020074, symSize: 0x1A8 }
  - { offsetInCU: 0xA92A7, offset: 0xA92A7, size: 0x8, addend: 0x0, symName: __ZN7httplib6detail32get_multipart_ranges_data_lengthERKNS_7RequestERKNSt3__112basic_stringIcNS4_11char_traitsIcEENS4_9allocatorIcEEEESC_m, symObjAddr: 0x1DC64, symBinAddr: 0x10002021C, symSize: 0x68 }
  - { offsetInCU: 0xA9398, offset: 0xA9398, size: 0x8, addend: 0x0, symName: __ZN7httplib6detail26make_multipart_ranges_dataERKNS_7RequestERNS_8ResponseERKNSt3__112basic_stringIcNS6_11char_traitsIcEENS6_9allocatorIcEEEESE_mRSC_, symObjAddr: 0x1DD34, symBinAddr: 0x1000202EC, symSize: 0x78 }
  - { offsetInCU: 0xA94AC, offset: 0xA94AC, size: 0x8, addend: 0x0, symName: __ZN7httplib6detail25can_compress_content_typeERKNSt3__112basic_stringIcNS1_11char_traitsIcEENS1_9allocatorIcEEEE, symObjAddr: 0x21AA0, symBinAddr: 0x100024058, symSize: 0x15C }
  - { offsetInCU: 0xA94F8, offset: 0xA94F8, size: 0x8, addend: 0x0, symName: __ZN7httplib6detail3udlli2_tEPKcm, symObjAddr: 0x21D04, symBinAddr: 0x1000242BC, symSize: 0x30 }
  - { offsetInCU: 0xA9536, offset: 0xA9536, size: 0x8, addend: 0x0, symName: __ZN7httplib6detail7str2tagERKNSt3__112basic_stringIcNS1_11char_traitsIcEENS1_9allocatorIcEEEE, symObjAddr: 0x21C50, symBinAddr: 0x100024208, symSize: 0x40 }
  - { offsetInCU: 0xA9564, offset: 0xA9564, size: 0x8, addend: 0x0, symName: __ZN7httplib6detail12str2tag_coreEPKcmj, symObjAddr: 0x21D34, symBinAddr: 0x1000242EC, symSize: 0x98 }
  - { offsetInCU: 0xA95B0, offset: 0xA95B0, size: 0x8, addend: 0x0, symName: __ZN7httplib6detail16get_header_valueERKNSt3__18multimapINS1_12basic_stringIcNS1_11char_traitsIcEENS1_9allocatorIcEEEES8_NS0_2ciENS6_INS1_4pairIKS8_S8_EEEEEERSB_mPKc, symObjAddr: 0x222F4, symBinAddr: 0x1000248AC, symSize: 0x9C }
  - { offsetInCU: 0xA962B, offset: 0xA962B, size: 0x8, addend: 0x0, symName: __ZN7httplib6detail29process_multipart_ranges_dataIZNS0_32get_multipart_ranges_data_lengthERKNS_7RequestERKNSt3__112basic_stringIcNS5_11char_traitsIcEENS5_9allocatorIcEEEESD_mEUlSD_E_ZNS0_32get_multipart_ranges_data_lengthES4_SD_SD_mEUlSD_E0_ZNS0_32get_multipart_ranges_data_lengthES4_SD_SD_mEUlmmE_EEbS4_SD_SD_mT_T0_T1_, symObjAddr: 0x22B4C, symBinAddr: 0x100025104, symSize: 0x424 }
  - { offsetInCU: 0xA9700, offset: 0xA9700, size: 0x8, addend: 0x0, symName: __ZN7httplib6detail29process_multipart_ranges_dataIZNS0_26make_multipart_ranges_dataERKNS_7RequestERNS_8ResponseERKNSt3__112basic_stringIcNS7_11char_traitsIcEENS7_9allocatorIcEEEESF_mRSD_EUlSF_E_ZNS0_26make_multipart_ranges_dataES4_S6_SF_SF_mSG_EUlSF_E0_ZNS0_26make_multipart_ranges_dataES4_S6_SF_SF_mSG_EUlmmE_EEbS4_SF_SF_mT_T0_T1_, symObjAddr: 0x2305C, symBinAddr: 0x100025614, symSize: 0x428 }
  - { offsetInCU: 0xA97D6, offset: 0xA97D6, size: 0x8, addend: 0x0, symName: __ZN7httplib6detail13write_contentIZNS_6Server27write_content_with_providerERNS_6StreamERKNS_7RequestERNS_8ResponseERKNSt3__112basic_stringIcNSA_11char_traitsIcEENSA_9allocatorIcEEEESI_EUlvE_EEbS4_RKNSA_8functionIFbmmRNS_8DataSinkEEEEmmRKT_, symObjAddr: 0x25A78, symBinAddr: 0x100028030, symSize: 0x5C }
  - { offsetInCU: 0xA9859, offset: 0xA9859, size: 0x8, addend: 0x0, symName: __ZN7httplib6detail27write_multipart_ranges_dataIZNS_6Server27write_content_with_providerERNS_6StreamERKNS_7RequestERNS_8ResponseERKNSt3__112basic_stringIcNSA_11char_traitsIcEENSA_9allocatorIcEEEESI_EUlvE_EEbS4_S7_S9_SI_SI_mRKT_, symObjAddr: 0x25AD4, symBinAddr: 0x10002808C, symSize: 0x80 }
  - { offsetInCU: 0xA9989, offset: 0xA9989, size: 0x8, addend: 0x0, symName: __ZN7httplib6detail11make_uniqueINS0_12nocompressorEJEEENSt3__19enable_ifIXntsr3std8is_arrayIT_EE5valueENS3_10unique_ptrIS5_NS3_14default_deleteIS5_EEEEE4typeEDpOT0_, symObjAddr: 0x25B54, symBinAddr: 0x10002810C, symSize: 0x40 }
  - { offsetInCU: 0xA99B6, offset: 0xA99B6, size: 0x8, addend: 0x0, symName: __ZN7httplib6detail21write_content_chunkedIZNS_6Server27write_content_with_providerERNS_6StreamERKNS_7RequestERNS_8ResponseERKNSt3__112basic_stringIcNSA_11char_traitsIcEENSA_9allocatorIcEEEESI_EUlvE_NS0_10compressorEEEbS4_RKNSA_8functionIFbmmRNS_8DataSinkEEEERKT_RT0_, symObjAddr: 0x25C4C, symBinAddr: 0x100028204, symSize: 0x48 }
  - { offsetInCU: 0xA9A33, offset: 0xA9A33, size: 0x8, addend: 0x0, symName: __ZN7httplib6detail29process_multipart_ranges_dataIZNS0_27write_multipart_ranges_dataIZNS_6Server27write_content_with_providerERNS_6StreamERKNS_7RequestERNS_8ResponseERKNSt3__112basic_stringIcNSB_11char_traitsIcEENSB_9allocatorIcEEEESJ_EUlvE_EEbS5_S8_SA_SJ_SJ_mRKT_EUlSJ_E_ZNS2_ISK_EEbS5_S8_SA_SJ_SJ_mSN_EUlSJ_E0_ZNS2_ISK_EEbS5_S8_SA_SJ_SJ_mSN_EUlmmE_EEbS8_SJ_SJ_mSL_T0_T1_, symObjAddr: 0x2A714, symBinAddr: 0x10002CCCC, symSize: 0x428 }
  - { offsetInCU: 0xA9B0A, offset: 0xA9B0A, size: 0x8, addend: 0x0, symName: __ZN7httplib6detail5splitEPKcS2_cNSt3__18functionIFvS2_S2_EEE, symObjAddr: 0x3B7D4, symBinAddr: 0x10003DD8C, symSize: 0xD4 }
  - { offsetInCU: 0xA9B64, offset: 0xA9B64, size: 0x8, addend: 0x0, symName: __ZN7httplib6detail6divideERKNSt3__112basic_stringIcNS1_11char_traitsIcEENS1_9allocatorIcEEEEcNS1_8functionIFvPKcmSC_mEEE, symObjAddr: 0x3BA40, symBinAddr: 0x10003DFF8, symSize: 0xCC }
  - { offsetInCU: 0xA9BAF, offset: 0xA9BAF, size: 0x8, addend: 0x0, symName: __ZN7httplib6detail5splitEPKcS2_cmNSt3__18functionIFvS2_S2_EEE, symObjAddr: 0x3BB6C, symBinAddr: 0x10003E124, symSize: 0x1CC }
  - { offsetInCU: 0xA9C84, offset: 0xA9C84, size: 0x8, addend: 0x0, symName: __ZN7httplib6detail4trimEPKcS2_mm, symObjAddr: 0x3BD6C, symBinAddr: 0x10003E324, symSize: 0xFC }
  - { offsetInCU: 0xA9CE0, offset: 0xA9CE0, size: 0x8, addend: 0x0, symName: __ZN7httplib6detail6divideEPKcmcNSt3__18functionIFvS2_mS2_mEEE, symObjAddr: 0x3FA4C, symBinAddr: 0x100042004, symSize: 0xCC }
  - { offsetInCU: 0xA9D98, offset: 0xA9D98, size: 0x8, addend: 0x0, symName: __ZN7httplib6detail8has_crlfERKNSt3__112basic_stringIcNS1_11char_traitsIcEENS1_9allocatorIcEEEE, symObjAddr: 0x45C14, symBinAddr: 0x1000481CC, symSize: 0xB4 }
  - { offsetInCU: 0xA9DD6, offset: 0xA9DD6, size: 0x8, addend: 0x0, symName: __ZN7httplib6detail10has_headerERKNSt3__18multimapINS1_12basic_stringIcNS1_11char_traitsIcEENS1_9allocatorIcEEEES8_NS0_2ciENS6_INS1_4pairIKS8_S8_EEEEEERSB_, symObjAddr: 0x45CC8, symBinAddr: 0x100048280, symSize: 0x58 }
  - { offsetInCU: 0xA9E13, offset: 0xA9E13, size: 0x8, addend: 0x0, symName: __ZN7httplib6detail14expect_contentERKNS_7RequestE, symObjAddr: 0x4968C, symBinAddr: 0x10004BC44, symSize: 0xC4 }
  - { offsetInCU: 0xA9E41, offset: 0xA9E41, size: 0x8, addend: 0x0, symName: __ZN7httplib6detail13is_valid_pathERKNSt3__112basic_stringIcNS1_11char_traitsIcEENS1_9allocatorIcEEEE, symObjAddr: 0x49EA8, symBinAddr: 0x10004C460, symSize: 0x30C }
  - { offsetInCU: 0xA9EBE, offset: 0xA9EBE, size: 0x8, addend: 0x0, symName: __ZN7httplib6detail7is_fileERKNSt3__112basic_stringIcNS1_11char_traitsIcEENS1_9allocatorIcEEEE, symObjAddr: 0x4A330, symBinAddr: 0x10004C8E8, symSize: 0x64 }
  - { offsetInCU: 0xA9EFC, offset: 0xA9EFC, size: 0x8, addend: 0x0, symName: __ZN7httplib6detail17find_content_typeERKNSt3__112basic_stringIcNS1_11char_traitsIcEENS1_9allocatorIcEEEERKNS1_3mapIS7_S7_NS1_4lessIS7_EENS5_INS1_4pairIS8_S7_EEEEEES9_, symObjAddr: 0x4A500, symBinAddr: 0x10004CAB8, symSize: 0xACC }
  - { offsetInCU: 0xA9F71, offset: 0xA9F71, size: 0x8, addend: 0x0, symName: __ZN7httplib6detail24parse_multipart_boundaryERKNSt3__112basic_stringIcNS1_11char_traitsIcEENS1_9allocatorIcEEEERS7_, symObjAddr: 0x7599C, symBinAddr: 0x100077F54, symSize: 0x130 }
  - { offsetInCU: 0xA9FEE, offset: 0xA9FEE, size: 0x8, addend: 0x0, symName: __ZN7httplib6detail12read_contentINS_7RequestEEEbRNS_6StreamERT_mRiNSt3__18functionIFbyyEEENS9_IFbPKcmyyEEEb, symObjAddr: 0x75D98, symBinAddr: 0x100078350, symSize: 0x120 }
  - { offsetInCU: 0xAA0E7, offset: 0xAA0E7, size: 0x8, addend: 0x0, symName: __ZN7httplib6detail23trim_double_quotes_copyERKNSt3__112basic_stringIcNS1_11char_traitsIcEENS1_9allocatorIcEEEE, symObjAddr: 0x7616C, symBinAddr: 0x100078724, symSize: 0xB0 }
  - { offsetInCU: 0xAA115, offset: 0xAA115, size: 0x8, addend: 0x0, symName: __ZN7httplib6detail12parse_headerIZNS0_23MultipartFormDataParser5parseEPKcmRKNSt3__18functionIFbS4_mEEERKNS6_IFbRKNS_17MultipartFormDataEEEEEUlRKNS5_12basic_stringIcNS5_11char_traitsIcEENS5_9allocatorIcEEEESP_E_EEbS4_S4_T_, symObjAddr: 0x7921C, symBinAddr: 0x10007B7D4, symSize: 0x3CC }
  - { offsetInCU: 0xAA1C3, offset: 0xAA1C3, size: 0x8, addend: 0x0, symName: __ZN7httplib6detail9trim_copyERKNSt3__112basic_stringIcNS1_11char_traitsIcEENS1_9allocatorIcEEEE, symObjAddr: 0x79700, symBinAddr: 0x10007BCB8, symSize: 0x90 }
  - { offsetInCU: 0xAA201, offset: 0xAA201, size: 0x8, addend: 0x0, symName: __ZN7httplib6detail28is_chunked_transfer_encodingERKNSt3__18multimapINS1_12basic_stringIcNS1_11char_traitsIcEENS1_9allocatorIcEEEES8_NS0_2ciENS6_INS1_4pairIKS8_S8_EEEEEE, symObjAddr: 0x839D4, symBinAddr: 0x100085F8C, symSize: 0x108 }
  - { offsetInCU: 0xAA22F, offset: 0xAA22F, size: 0x8, addend: 0x0, symName: __ZN7httplib6detail20read_content_chunkedINS_7RequestEEEbRNS_6StreamERT_NSt3__18functionIFbPKcmyyEEE, symObjAddr: 0x83ADC, symBinAddr: 0x100086094, symSize: 0x498 }
  - { offsetInCU: 0xAA34A, offset: 0xAA34A, size: 0x8, addend: 0x0, symName: __ZN7httplib6detail27read_content_without_lengthERNS_6StreamENSt3__18functionIFbPKcmyyEEE, symObjAddr: 0x83F74, symBinAddr: 0x10008652C, symSize: 0x11C }
  - { offsetInCU: 0xAA3C7, offset: 0xAA3C7, size: 0x8, addend: 0x0, symName: __ZN7httplib6detail20get_header_value_u64ERKNSt3__18multimapINS1_12basic_stringIcNS1_11char_traitsIcEENS1_9allocatorIcEEEES8_NS0_2ciENS6_INS1_4pairIKS8_S8_EEEEEERSB_my, symObjAddr: 0x84090, symBinAddr: 0x100086648, symSize: 0xA8 }
  - { offsetInCU: 0xAA443, offset: 0xAA443, size: 0x8, addend: 0x0, symName: __ZN7httplib6detail24skip_content_with_lengthERNS_6StreamEy, symObjAddr: 0x84138, symBinAddr: 0x1000866F0, symSize: 0x10C }
  - { offsetInCU: 0xAA4CB, offset: 0xAA4CB, size: 0x8, addend: 0x0, symName: __ZN7httplib6detail24read_content_with_lengthERNS_6StreamEyNSt3__18functionIFbyyEEENS4_IFbPKcmyyEEE, symObjAddr: 0x84244, symBinAddr: 0x1000867FC, symSize: 0x1C4 }
  - { offsetInCU: 0xAA57C, offset: 0xAA57C, size: 0x8, addend: 0x0, symName: __ZN7httplib6detail12parse_headerIZNS0_20read_content_chunkedINS_7RequestEEEbRNS_6StreamERT_NSt3__18functionIFbPKcmyyEEEEUlRKNS8_12basic_stringIcNS8_11char_traitsIcEENS8_9allocatorIcEEEESL_E_EEbSB_SB_S6_, symObjAddr: 0x8443C, symBinAddr: 0x1000869F4, symSize: 0x3D0 }
  - { offsetInCU: 0xAA62B, offset: 0xAA62B, size: 0x8, addend: 0x0, symName: __ZN7httplib6detail16parse_query_textERKNSt3__112basic_stringIcNS1_11char_traitsIcEENS1_9allocatorIcEEEERNS1_8multimapIS7_S7_NS1_4lessIS7_EENS5_INS1_4pairIS8_S7_EEEEEE, symObjAddr: 0x89460, symBinAddr: 0x10008BA18, symSize: 0x44 }
  - { offsetInCU: 0xAA664, offset: 0xAA664, size: 0x8, addend: 0x0, symName: __ZN7httplib6detail11make_uniqueINS0_17PathParamsMatcherEJRKNSt3__112basic_stringIcNS3_11char_traitsIcEENS3_9allocatorIcEEEEEEENS3_9enable_ifIXntsr3std8is_arrayIT_EE5valueENS3_10unique_ptrISD_NS3_14default_deleteISD_EEEEE4typeEDpOT0_, symObjAddr: 0x91A64, symBinAddr: 0x10009401C, symSize: 0x6C }
  - { offsetInCU: 0xAA6A6, offset: 0xAA6A6, size: 0x8, addend: 0x0, symName: __ZN7httplib6detail11make_uniqueINS0_12RegexMatcherEJRKNSt3__112basic_stringIcNS3_11char_traitsIcEENS3_9allocatorIcEEEEEEENS3_9enable_ifIXntsr3std8is_arrayIT_EE5valueENS3_10unique_ptrISD_NS3_14default_deleteISD_EEEEE4typeEDpOT0_, symObjAddr: 0x91B30, symBinAddr: 0x1000940E8, symSize: 0x6C }
  - { offsetInCU: 0xAA6E8, offset: 0xAA6E8, size: 0x8, addend: 0x0, symName: __ZN7httplib6detail13create_socketIZNKS_6Server20create_server_socketERKNSt3__112basic_stringIcNS3_11char_traitsIcEENS3_9allocatorIcEEEEiiNS3_8functionIFviEEEEUliR8addrinfoE_EEiSB_SB_iiibSE_T_, symObjAddr: 0x9F64C, symBinAddr: 0x1000A1C04, symSize: 0x4CC }
  - { offsetInCU: 0xABFEF, offset: 0xABFEF, size: 0x8, addend: 0x0, symName: __ZN7httplib22default_socket_optionsEi, symObjAddr: 0xBD4, symBinAddr: 0x10000318C, symSize: 0x3C }
  - { offsetInCU: 0xAC029, offset: 0xAC029, size: 0x8, addend: 0x0, symName: __ZN7httplib14status_messageEi, symObjAddr: 0x14418, symBinAddr: 0x1000169D0, symSize: 0x43C }
  - { offsetInCU: 0xACB27, offset: 0xACB27, size: 0x8, addend: 0x0, symName: __ZZN7httplib6detail21write_content_chunkedIZNS_6Server27write_content_with_providerERNS_6StreamERKNS_7RequestERNS_8ResponseERKNSt3__112basic_stringIcNSA_11char_traitsIcEENSA_9allocatorIcEEEESI_EUlvE_NS0_10compressorEEEbS4_RKNSA_8functionIFbmmRNS_8DataSinkEEEERKT_RT0_RNS_5ErrorEENKUlPKNSA_8multimapISG_SG_NS0_2ciENSE_INSA_4pairISH_SG_EEEEEEE_clES16_, symObjAddr: 0x32C10, symBinAddr: 0x1000351C8, symSize: 0x674 }
  - { offsetInCU: 0xACB50, offset: 0xACB50, size: 0x8, addend: 0x0, symName: __ZZZN7httplib6detail21write_content_chunkedIZNS_6Server27write_content_with_providerERNS_6StreamERKNS_7RequestERNS_8ResponseERKNSt3__112basic_stringIcNSA_11char_traitsIcEENSA_9allocatorIcEEEESI_EUlvE_NS0_10compressorEEEbS4_RKNSA_8functionIFbmmRNS_8DataSinkEEEERKT_RT0_RNS_5ErrorEENKUlPKNSA_8multimapISG_SG_NS0_2ciENSE_INSA_4pairISH_SG_EEEEEEE_clES16_E11done_marker, symObjAddr: 0xDE888, symBinAddr: 0x1000F0A00, symSize: 0x0 }
  - { offsetInCU: 0xACB67, offset: 0xACB67, size: 0x8, addend: 0x0, symName: __ZZZN7httplib6detail21write_content_chunkedIZNS_6Server27write_content_with_providerERNS_6StreamERKNS_7RequestERNS_8ResponseERKNSt3__112basic_stringIcNSA_11char_traitsIcEENSA_9allocatorIcEEEESI_EUlvE_NS0_10compressorEEEbS4_RKNSA_8functionIFbmmRNS_8DataSinkEEEERKT_RT0_RNS_5ErrorEENKUlPKNSA_8multimapISG_SG_NS0_2ciENSE_INSA_4pairISH_SG_EEEEEEE_clES16_E4crlf, symObjAddr: 0xDE8A8, symBinAddr: 0x1000F0A20, symSize: 0x0 }
  - { offsetInCU: 0xAF2CF, offset: 0xAF2CF, size: 0x8, addend: 0x0, symName: __ZNK7httplib6Server18parse_request_lineEPKcRNS_7RequestE, symObjAddr: 0x136F0, symBinAddr: 0x100015CA8, symSize: 0x5E4 }
  - { offsetInCU: 0xAF2F6, offset: 0xAF2F6, size: 0x8, addend: 0x0, symName: __ZZNK7httplib6Server18parse_request_lineEPKcRNS_7RequestEE7methods, symObjAddr: 0xDE8C8, symBinAddr: 0x1000F0A40, symSize: 0x0 }
  - { offsetInCU: 0xB0307, offset: 0xB0307, size: 0x8, addend: 0x0, symName: __ZN7httplib6detail23MultipartFormDataParser5parseEPKcmRKNSt3__18functionIFbS3_mEEERKNS5_IFbRKNS_17MultipartFormDataEEEE, symObjAddr: 0x78078, symBinAddr: 0x10007A630, symSize: 0xD40 }
  - { offsetInCU: 0xB032C, offset: 0xB032C, size: 0x8, addend: 0x0, symName: __ZZN7httplib6detail23MultipartFormDataParser5parseEPKcmRKNSt3__18functionIFbS3_mEEERKNS5_IFbRKNS_17MultipartFormDataEEEEE19header_content_type, symObjAddr: 0xDE930, symBinAddr: 0x1000F0AA8, symSize: 0x0 }
  - { offsetInCU: 0xB0343, offset: 0xB0343, size: 0x8, addend: 0x0, symName: __ZZN7httplib6detail23MultipartFormDataParser5parseEPKcmRKNSt3__18functionIFbS3_mEEERKNS5_IFbRKNS_17MultipartFormDataEEEEE22re_content_disposition, symObjAddr: 0xDE950, symBinAddr: 0x1000F0AC8, symSize: 0x0 }
  - { offsetInCU: 0xB035A, offset: 0xB035A, size: 0x8, addend: 0x0, symName: __ZZN7httplib6detail23MultipartFormDataParser5parseEPKcmRKNSt3__18functionIFbS3_mEEERKNS5_IFbRKNS_17MultipartFormDataEEEEE19re_rfc5987_encoding, symObjAddr: 0xDE998, symBinAddr: 0x1000F0B10, symSize: 0x0 }
  - { offsetInCU: 0xB04C2, offset: 0xB04C2, size: 0x8, addend: 0x0, symName: __ZN8nlohmann16json_abi_v3_11_36detail12static_constINS1_10to_json_fnEE5valueE, symObjAddr: 0xDD362, symBinAddr: 0x1000DE142, symSize: 0x0 }
  - { offsetInCU: 0xB0615, offset: 0xB0615, size: 0x8, addend: 0x0, symName: __ZN8nlohmann16json_abi_v3_11_36detail12static_constINS1_12from_json_fnEE5valueE, symObjAddr: 0xDD3C7, symBinAddr: 0x1000DE1A7, symSize: 0x0 }
  - { offsetInCU: 0xB1726, offset: 0xB1726, size: 0x8, addend: 0x0, symName: __ZN8nlohmann16json_abi_v3_11_36detail9dtoa_impl36get_cached_power_for_binary_exponentEi, symObjAddr: 0xCCBAC, symBinAddr: 0x1000CF164, symSize: 0x22C }
  - { offsetInCU: 0xB1752, offset: 0xB1752, size: 0x8, addend: 0x0, symName: __ZZN8nlohmann16json_abi_v3_11_36detail9dtoa_impl36get_cached_power_for_binary_exponentEiE13kCachedPowers, symObjAddr: 0xDD918, symBinAddr: 0x1000DE6F8, symSize: 0x0 }
  - { offsetInCU: 0xB182C, offset: 0xB182C, size: 0x8, addend: 0x0, symName: __ZN8nlohmann16json_abi_v3_11_36detail9dtoa_impl6grisu2IdEEvPcRiS5_T_, symObjAddr: 0xCC120, symBinAddr: 0x1000CE6D8, symSize: 0xEC }
  - { offsetInCU: 0xB189D, offset: 0xB189D, size: 0x8, addend: 0x0, symName: __ZN8nlohmann16json_abi_v3_11_36detail9dtoa_impl13format_bufferEPciiii, symObjAddr: 0xCC20C, symBinAddr: 0x1000CE7C4, symSize: 0x36C }
  - { offsetInCU: 0xB1927, offset: 0xB1927, size: 0x8, addend: 0x0, symName: __ZN8nlohmann16json_abi_v3_11_36detail9dtoa_impl18compute_boundariesIdEENS2_10boundariesET_, symObjAddr: 0xCC578, symBinAddr: 0x1000CEB30, symSize: 0x24C }
  - { offsetInCU: 0xB1A44, offset: 0xB1A44, size: 0x8, addend: 0x0, symName: __ZN8nlohmann16json_abi_v3_11_36detail9dtoa_impl6grisu2EPcRiS4_NS2_5diyfpES5_S5_, symObjAddr: 0xCC7C4, symBinAddr: 0x1000CED7C, symSize: 0x1C0 }
  - { offsetInCU: 0xB1B33, offset: 0xB1B33, size: 0x8, addend: 0x0, symName: __ZN8nlohmann16json_abi_v3_11_36detail9dtoa_impl16reinterpret_bitsIydEET_T0_, symObjAddr: 0xCC984, symBinAddr: 0x1000CEF3C, symSize: 0x1C }
  - { offsetInCU: 0xB1C36, offset: 0xB1C36, size: 0x8, addend: 0x0, symName: __ZN8nlohmann16json_abi_v3_11_36detail9dtoa_impl16grisu2_digit_genEPcRiS4_NS2_5diyfpES5_S5_, symObjAddr: 0xCCF18, symBinAddr: 0x1000CF4D0, symSize: 0x4A4 }
  - { offsetInCU: 0xB1DE7, offset: 0xB1DE7, size: 0x8, addend: 0x0, symName: __ZN8nlohmann16json_abi_v3_11_36detail9dtoa_impl18find_largest_pow10EjRj, symObjAddr: 0xCD4D8, symBinAddr: 0x1000CFA90, symSize: 0x1F8 }
  - { offsetInCU: 0xB1E25, offset: 0xB1E25, size: 0x8, addend: 0x0, symName: __ZN8nlohmann16json_abi_v3_11_36detail9dtoa_impl12grisu2_roundEPciyyyy, symObjAddr: 0xCD6D0, symBinAddr: 0x1000CFC88, symSize: 0x24C }
  - { offsetInCU: 0xB1E9A, offset: 0xB1E9A, size: 0x8, addend: 0x0, symName: __ZN8nlohmann16json_abi_v3_11_36detail9dtoa_impl15append_exponentEPci, symObjAddr: 0xCD938, symBinAddr: 0x1000CFEF0, symSize: 0x220 }
  - { offsetInCU: 0xB268A, offset: 0xB268A, size: 0x8, addend: 0x0, symName: __ZN8nlohmann16json_abi_v3_11_36detail13input_adapterINSt3__112basic_stringIcNS3_11char_traitsIcEENS3_9allocatorIcEEEEEENS1_36container_input_adapter_factory_impl31container_input_adapter_factoryIT_vE12adapter_typeERKSC_, symObjAddr: 0xA6864, symBinAddr: 0x1000A8E1C, symSize: 0x34 }
  - { offsetInCU: 0xB2744, offset: 0xB2744, size: 0x8, addend: 0x0, symName: __ZN8nlohmann16json_abi_v3_11_36detail13input_adapterINSt3__111__wrap_iterIPKcEEEENS1_30iterator_input_adapter_factoryIT_vE12adapter_typeES9_S9_, symObjAddr: 0xA9D44, symBinAddr: 0x1000AC2FC, symSize: 0x4C }
  - { offsetInCU: 0xB31E2, offset: 0xB31E2, size: 0x8, addend: 0x0, symName: __ZN8nlohmann16json_abi_v3_11_36detail6concatINSt3__112basic_stringIcNS3_11char_traitsIcEENS3_9allocatorIcEEEEJRA26_KcS9_cEEET_DpOT0_, symObjAddr: 0xB046C, symBinAddr: 0x1000B2A24, symSize: 0xD8 }
  - { offsetInCU: 0xB325D, offset: 0xB325D, size: 0x8, addend: 0x0, symName: __ZN8nlohmann16json_abi_v3_11_36detail6concatINSt3__112basic_stringIcNS3_11char_traitsIcEENS3_9allocatorIcEEEEJRA24_KcS9_EEET_DpOT0_, symObjAddr: 0xB0F68, symBinAddr: 0x1000B3520, symSize: 0xCC }
  - { offsetInCU: 0xB32C4, offset: 0xB32C4, size: 0x8, addend: 0x0, symName: __ZN8nlohmann16json_abi_v3_11_36detail6concatINSt3__112basic_stringIcNS3_11char_traitsIcEENS3_9allocatorIcEEEEJS9_S9_RKS9_EEET_DpOT0_, symObjAddr: 0xB3FAC, symBinAddr: 0x1000B6564, symSize: 0xD8 }
  - { offsetInCU: 0xB333F, offset: 0xB333F, size: 0x8, addend: 0x0, symName: __ZN8nlohmann16json_abi_v3_11_36detail13concat_lengthINSt3__112basic_stringIcNS3_11char_traitsIcEENS3_9allocatorIcEEEEJS9_S9_EEEmRKT_DpRKT0_, symObjAddr: 0xB419C, symBinAddr: 0x1000B6754, symSize: 0x48 }
  - { offsetInCU: 0xB33A5, offset: 0xB33A5, size: 0x8, addend: 0x0, symName: __ZN8nlohmann16json_abi_v3_11_36detail11concat_intoINSt3__112basic_stringIcNS3_11char_traitsIcEENS3_9allocatorIcEEEES9_JS9_RKS9_ELi0EEEvRT_OT0_DpOT1_, symObjAddr: 0xB41E4, symBinAddr: 0x1000B679C, symSize: 0x44 }
  - { offsetInCU: 0xB3424, offset: 0xB3424, size: 0x8, addend: 0x0, symName: __ZN8nlohmann16json_abi_v3_11_36detail13concat_lengthINSt3__112basic_stringIcNS3_11char_traitsIcEENS3_9allocatorIcEEEEJS9_EEEmRKT_DpRKT0_, symObjAddr: 0xB4228, symBinAddr: 0x1000B67E0, symSize: 0x40 }
  - { offsetInCU: 0xB3475, offset: 0xB3475, size: 0x8, addend: 0x0, symName: __ZN8nlohmann16json_abi_v3_11_36detail13concat_lengthINSt3__112basic_stringIcNS3_11char_traitsIcEENS3_9allocatorIcEEEEJEEEmRKT_DpRKT0_, symObjAddr: 0xB4268, symBinAddr: 0x1000B6820, symSize: 0x38 }
  - { offsetInCU: 0xB34B2, offset: 0xB34B2, size: 0x8, addend: 0x0, symName: __ZN8nlohmann16json_abi_v3_11_36detail13concat_lengthEv, symObjAddr: 0xB42A0, symBinAddr: 0x1000B6858, symSize: 0x8 }
  - { offsetInCU: 0xB34D1, offset: 0xB34D1, size: 0x8, addend: 0x0, symName: __ZN8nlohmann16json_abi_v3_11_36detail11concat_intoINSt3__112basic_stringIcNS3_11char_traitsIcEENS3_9allocatorIcEEEES9_JRKS9_ELi0EEEvRT_OT0_DpOT1_, symObjAddr: 0xB42A8, symBinAddr: 0x1000B6860, symSize: 0x3C }
  - { offsetInCU: 0xB353D, offset: 0xB353D, size: 0x8, addend: 0x0, symName: __ZN8nlohmann16json_abi_v3_11_36detail11concat_intoINSt3__112basic_stringIcNS3_11char_traitsIcEENS3_9allocatorIcEEEERKS9_JELi0EEEvRT_OT0_DpOT1_, symObjAddr: 0xB42E4, symBinAddr: 0x1000B689C, symSize: 0x34 }
  - { offsetInCU: 0xB3594, offset: 0xB3594, size: 0x8, addend: 0x0, symName: __ZN8nlohmann16json_abi_v3_11_36detail11concat_intoINSt3__112basic_stringIcNS3_11char_traitsIcEENS3_9allocatorIcEEEEEEvRT_, symObjAddr: 0xB4318, symBinAddr: 0x1000B68D0, symSize: 0x10 }
  - { offsetInCU: 0xB35C4, offset: 0xB35C4, size: 0x8, addend: 0x0, symName: __ZN8nlohmann16json_abi_v3_11_36detail6concatINSt3__112basic_stringIcNS3_11char_traitsIcEENS3_9allocatorIcEEEEJRA17_KcRKS9_cS9_RA3_SA_EEET_DpOT0_, symObjAddr: 0xB4328, symBinAddr: 0x1000B68E0, symSize: 0xF0 }
  - { offsetInCU: 0xB3667, offset: 0xB3667, size: 0x8, addend: 0x0, symName: __ZN8nlohmann16json_abi_v3_11_36detail13concat_lengthIJNSt3__112basic_stringIcNS3_11char_traitsIcEENS3_9allocatorIcEEEEcS9_A3_cEEEmPKcDpRKT_, symObjAddr: 0xB4418, symBinAddr: 0x1000B69D0, symSize: 0x58 }
  - { offsetInCU: 0xB36EC, offset: 0xB36EC, size: 0x8, addend: 0x0, symName: __ZN8nlohmann16json_abi_v3_11_36detail11concat_intoINSt3__112basic_stringIcNS3_11char_traitsIcEENS3_9allocatorIcEEEERA17_KcJRKS9_cS9_RA3_SA_ELi0EEEvRT_OT0_DpOT1_, symObjAddr: 0xB4470, symBinAddr: 0x1000B6A28, symSize: 0x54 }
  - { offsetInCU: 0xB3793, offset: 0xB3793, size: 0x8, addend: 0x0, symName: __ZN8nlohmann16json_abi_v3_11_36detail13concat_lengthINSt3__112basic_stringIcNS3_11char_traitsIcEENS3_9allocatorIcEEEEJcS9_A3_cEEEmRKT_DpRKT0_, symObjAddr: 0xB44C4, symBinAddr: 0x1000B6A7C, symSize: 0x54 }
  - { offsetInCU: 0xB380C, offset: 0xB380C, size: 0x8, addend: 0x0, symName: __ZN8nlohmann16json_abi_v3_11_36detail13concat_lengthIJNSt3__112basic_stringIcNS3_11char_traitsIcEENS3_9allocatorIcEEEEA3_cEEEmcDpRKT_, symObjAddr: 0xB4518, symBinAddr: 0x1000B6AD0, symSize: 0x34 }
  - { offsetInCU: 0xB3865, offset: 0xB3865, size: 0x8, addend: 0x0, symName: __ZN8nlohmann16json_abi_v3_11_36detail13concat_lengthINSt3__112basic_stringIcNS3_11char_traitsIcEENS3_9allocatorIcEEEEJA3_cEEEmRKT_DpRKT0_, symObjAddr: 0xB454C, symBinAddr: 0x1000B6B04, symSize: 0x40 }
  - { offsetInCU: 0xB38B6, offset: 0xB38B6, size: 0x8, addend: 0x0, symName: __ZN8nlohmann16json_abi_v3_11_36detail13concat_lengthIJEEEmPKcDpRKT_, symObjAddr: 0xB458C, symBinAddr: 0x1000B6B44, symSize: 0x38 }
  - { offsetInCU: 0xB38EA, offset: 0xB38EA, size: 0x8, addend: 0x0, symName: __ZN8nlohmann16json_abi_v3_11_36detail11concat_intoINSt3__112basic_stringIcNS3_11char_traitsIcEENS3_9allocatorIcEEEERKS9_JcS9_RA3_KcELi0EEEvRT_OT0_DpOT1_, symObjAddr: 0xB45C4, symBinAddr: 0x1000B6B7C, symSize: 0x4C }
  - { offsetInCU: 0xB397E, offset: 0xB397E, size: 0x8, addend: 0x0, symName: __ZN8nlohmann16json_abi_v3_11_36detail11concat_intoINSt3__112basic_stringIcNS3_11char_traitsIcEENS3_9allocatorIcEEEEcJS9_RA3_KcELi0EEEvRT_OT0_DpOT1_, symObjAddr: 0xB4610, symBinAddr: 0x1000B6BC8, symSize: 0x48 }
  - { offsetInCU: 0xB39FE, offset: 0xB39FE, size: 0x8, addend: 0x0, symName: __ZN8nlohmann16json_abi_v3_11_36detail11concat_intoINSt3__112basic_stringIcNS3_11char_traitsIcEENS3_9allocatorIcEEEES9_JRA3_KcELi0EEEvRT_OT0_DpOT1_, symObjAddr: 0xB4658, symBinAddr: 0x1000B6C10, symSize: 0x3C }
  - { offsetInCU: 0xB3A6A, offset: 0xB3A6A, size: 0x8, addend: 0x0, symName: __ZN8nlohmann16json_abi_v3_11_36detail11concat_intoINSt3__112basic_stringIcNS3_11char_traitsIcEENS3_9allocatorIcEEEERA3_KcJELi0EEEvRT_OT0_DpOT1_, symObjAddr: 0xB4694, symBinAddr: 0x1000B6C4C, symSize: 0x34 }
  - { offsetInCU: 0xB3AC0, offset: 0xB3AC0, size: 0x8, addend: 0x0, symName: __ZN8nlohmann16json_abi_v3_11_36detail13concat_lengthIJNSt3__112basic_stringIcNS3_11char_traitsIcEENS3_9allocatorIcEEEEEEEmPKcDpRKT_, symObjAddr: 0xB48A4, symBinAddr: 0x1000B6E5C, symSize: 0x40 }
  - { offsetInCU: 0xB3B09, offset: 0xB3B09, size: 0x8, addend: 0x0, symName: __ZN8nlohmann16json_abi_v3_11_36detail11concat_intoINSt3__112basic_stringIcNS3_11char_traitsIcEENS3_9allocatorIcEEEERA24_KcJS9_ELi0EEEvRT_OT0_DpOT1_, symObjAddr: 0xB48E4, symBinAddr: 0x1000B6E9C, symSize: 0x3C }
  - { offsetInCU: 0xB3B75, offset: 0xB3B75, size: 0x8, addend: 0x0, symName: __ZN8nlohmann16json_abi_v3_11_36detail11concat_intoINSt3__112basic_stringIcNS3_11char_traitsIcEENS3_9allocatorIcEEEES9_JELi0EEEvRT_OT0_DpOT1_, symObjAddr: 0xB4920, symBinAddr: 0x1000B6ED8, symSize: 0x34 }
  - { offsetInCU: 0xB3C3D, offset: 0xB3C3D, size: 0x8, addend: 0x0, symName: __ZN8nlohmann16json_abi_v3_11_36detaileqENS1_20primitive_iterator_tES2_, symObjAddr: 0xBD23C, symBinAddr: 0x1000BF7F4, symSize: 0x28 }
  - { offsetInCU: 0xB3D4C, offset: 0xB3D4C, size: 0x8, addend: 0x0, symName: __ZN8nlohmann16json_abi_v3_11_36detail6concatINSt3__112basic_stringIcNS3_11char_traitsIcEENS3_9allocatorIcEEEEJRA25_KcPSA_EEET_DpOT0_, symObjAddr: 0xBD7D4, symBinAddr: 0x1000BFD8C, symSize: 0xCC }
  - { offsetInCU: 0xB3DB3, offset: 0xB3DB3, size: 0x8, addend: 0x0, symName: __ZN8nlohmann16json_abi_v3_11_36detail13concat_lengthIJPKcEEEmS4_DpRKT_, symObjAddr: 0xBDFA0, symBinAddr: 0x1000C0558, symSize: 0x44 }
  - { offsetInCU: 0xB3DFC, offset: 0xB3DFC, size: 0x8, addend: 0x0, symName: __ZN8nlohmann16json_abi_v3_11_36detail11concat_intoINSt3__112basic_stringIcNS3_11char_traitsIcEENS3_9allocatorIcEEEERA25_KcJPSA_ELi0EEEvRT_OT0_DpOT1_, symObjAddr: 0xBDFE4, symBinAddr: 0x1000C059C, symSize: 0x3C }
  - { offsetInCU: 0xB3E68, offset: 0xB3E68, size: 0x8, addend: 0x0, symName: __ZN8nlohmann16json_abi_v3_11_36detail11concat_intoINSt3__112basic_stringIcNS3_11char_traitsIcEENS3_9allocatorIcEEEEPKcJELi0EEEvRT_OT0_DpOT1_, symObjAddr: 0xBE020, symBinAddr: 0x1000C05D8, symSize: 0x38 }
  - { offsetInCU: 0xB3EBF, offset: 0xB3EBF, size: 0x8, addend: 0x0, symName: __ZN8nlohmann16json_abi_v3_11_36detail7to_jsonINS0_10basic_jsonINSt3__13mapENS4_6vectorENS4_12basic_stringIcNS4_11char_traitsIcEENS4_9allocatorIcEEEEbxydSA_NS0_14adl_serializerENS6_IhNSA_IhEEEEvEESC_Li0EEEvRT_RKT0_, symObjAddr: 0xBE42C, symBinAddr: 0x1000C09E4, symSize: 0x2C }
  - { offsetInCU: 0xB3F41, offset: 0xB3F41, size: 0x8, addend: 0x0, symName: __ZN8nlohmann16json_abi_v3_11_36detail6concatINSt3__112basic_stringIcNS3_11char_traitsIcEENS3_9allocatorIcEEEEJRA23_KcS9_EEET_DpOT0_, symObjAddr: 0xBE990, symBinAddr: 0x1000C0F48, symSize: 0xCC }
  - { offsetInCU: 0xB3FA9, offset: 0xB3FA9, size: 0x8, addend: 0x0, symName: __ZN8nlohmann16json_abi_v3_11_36detail11concat_intoINSt3__112basic_stringIcNS3_11char_traitsIcEENS3_9allocatorIcEEEERA23_KcJS9_ELi0EEEvRT_OT0_DpOT1_, symObjAddr: 0xBEA5C, symBinAddr: 0x1000C1014, symSize: 0x3C }
  - { offsetInCU: 0xB4014, offset: 0xB4014, size: 0x8, addend: 0x0, symName: __ZN8nlohmann16json_abi_v3_11_36detail13concat_lengthIJNSt3__112basic_stringIcNS3_11char_traitsIcEENS3_9allocatorIcEEEEcEEEmPKcDpRKT_, symObjAddr: 0xBEBE8, symBinAddr: 0x1000C11A0, symSize: 0x48 }
  - { offsetInCU: 0xB4071, offset: 0xB4071, size: 0x8, addend: 0x0, symName: __ZN8nlohmann16json_abi_v3_11_36detail11concat_intoINSt3__112basic_stringIcNS3_11char_traitsIcEENS3_9allocatorIcEEEERA26_KcJS9_cELi0EEEvRT_OT0_DpOT1_, symObjAddr: 0xBEC30, symBinAddr: 0x1000C11E8, symSize: 0x44 }
  - { offsetInCU: 0xB40F0, offset: 0xB40F0, size: 0x8, addend: 0x0, symName: __ZN8nlohmann16json_abi_v3_11_36detail13concat_lengthINSt3__112basic_stringIcNS3_11char_traitsIcEENS3_9allocatorIcEEEEJcEEEmRKT_DpRKT0_, symObjAddr: 0xBEC74, symBinAddr: 0x1000C122C, symSize: 0x44 }
  - { offsetInCU: 0xB4141, offset: 0xB4141, size: 0x8, addend: 0x0, symName: __ZN8nlohmann16json_abi_v3_11_36detail13concat_lengthIJEEEmcDpRKT_, symObjAddr: 0xBECB8, symBinAddr: 0x1000C1270, symSize: 0x24 }
  - { offsetInCU: 0xB4172, offset: 0xB4172, size: 0x8, addend: 0x0, symName: __ZN8nlohmann16json_abi_v3_11_36detail11concat_intoINSt3__112basic_stringIcNS3_11char_traitsIcEENS3_9allocatorIcEEEES9_JcELi0EEEvRT_OT0_DpOT1_, symObjAddr: 0xBECDC, symBinAddr: 0x1000C1294, symSize: 0x3C }
  - { offsetInCU: 0xB41DE, offset: 0xB41DE, size: 0x8, addend: 0x0, symName: __ZN8nlohmann16json_abi_v3_11_36detail11concat_intoINSt3__112basic_stringIcNS3_11char_traitsIcEENS3_9allocatorIcEEEEcJELi0EEEvRT_OT0_DpOT1_, symObjAddr: 0xBED18, symBinAddr: 0x1000C12D0, symSize: 0x38 }
  - { offsetInCU: 0xB4235, offset: 0xB4235, size: 0x8, addend: 0x0, symName: __ZN8nlohmann16json_abi_v3_11_36detail7to_jsonINS0_10basic_jsonINSt3__13mapENS4_6vectorENS4_12basic_stringIcNS4_11char_traitsIcEENS4_9allocatorIcEEEEbxydSA_NS0_14adl_serializerENS6_IhNSA_IhEEEEvEEdLi0EEEvRT_T0_, symObjAddr: 0xBF350, symBinAddr: 0x1000C1908, symSize: 0x2C }
  - { offsetInCU: 0xB42B8, offset: 0xB42B8, size: 0x8, addend: 0x0, symName: __ZN8nlohmann16json_abi_v3_11_36detail7to_jsonINS0_10basic_jsonINSt3__13mapENS4_6vectorENS4_12basic_stringIcNS4_11char_traitsIcEENS4_9allocatorIcEEEEbxydSA_NS0_14adl_serializerENS6_IhNSA_IhEEEEvEEbLi0EEEvRT_T0_, symObjAddr: 0xBF9C4, symBinAddr: 0x1000C1F7C, symSize: 0x38 }
  - { offsetInCU: 0xB433B, offset: 0xB433B, size: 0x8, addend: 0x0, symName: __ZN8nlohmann16json_abi_v3_11_36detail7to_jsonINS0_10basic_jsonINSt3__13mapENS4_6vectorENS4_12basic_stringIcNS4_11char_traitsIcEENS4_9allocatorIcEEEEbxydSA_NS0_14adl_serializerENS6_IhNSA_IhEEEEvEExLi0EEEvRT_T0_, symObjAddr: 0xC0528, symBinAddr: 0x1000C2AE0, symSize: 0x2C }
  - { offsetInCU: 0xB43BE, offset: 0xB43BE, size: 0x8, addend: 0x0, symName: __ZN8nlohmann16json_abi_v3_11_36detail7to_jsonINS0_10basic_jsonINSt3__13mapENS4_6vectorENS4_12basic_stringIcNS4_11char_traitsIcEENS4_9allocatorIcEEEEbxydSA_NS0_14adl_serializerENS6_IhNSA_IhEEEEvEEyLi0EEEvRT_T0_, symObjAddr: 0xC1074, symBinAddr: 0x1000C362C, symSize: 0x2C }
  - { offsetInCU: 0xB4440, offset: 0xB4440, size: 0x8, addend: 0x0, symName: __ZN8nlohmann16json_abi_v3_11_36detail6concatINSt3__112basic_stringIcNS3_11char_traitsIcEENS3_9allocatorIcEEEEJS9_RA12_KcS9_RA3_SA_S9_RKS9_EEET_DpOT0_, symObjAddr: 0xC11F4, symBinAddr: 0x1000C37AC, symSize: 0xFC }
  - { offsetInCU: 0xB44F7, offset: 0xB44F7, size: 0x8, addend: 0x0, symName: __ZN8nlohmann16json_abi_v3_11_36detail13concat_lengthINSt3__112basic_stringIcNS3_11char_traitsIcEENS3_9allocatorIcEEEEJA12_cS9_A3_cS9_S9_EEEmRKT_DpRKT0_, symObjAddr: 0xC13F0, symBinAddr: 0x1000C39A8, symSize: 0x60 }
  - { offsetInCU: 0xB4599, offset: 0xB4599, size: 0x8, addend: 0x0, symName: __ZN8nlohmann16json_abi_v3_11_36detail11concat_intoINSt3__112basic_stringIcNS3_11char_traitsIcEENS3_9allocatorIcEEEES9_JRA12_KcS9_RA3_SA_S9_RKS9_ELi0EEEvRT_OT0_DpOT1_, symObjAddr: 0xC1450, symBinAddr: 0x1000C3A08, symSize: 0x5C }
  - { offsetInCU: 0xB4654, offset: 0xB4654, size: 0x8, addend: 0x0, symName: __ZN8nlohmann16json_abi_v3_11_36detail13concat_lengthIJNSt3__112basic_stringIcNS3_11char_traitsIcEENS3_9allocatorIcEEEEA3_cS9_S9_EEEmPKcDpRKT_, symObjAddr: 0xC14AC, symBinAddr: 0x1000C3A64, symSize: 0x58 }
  - { offsetInCU: 0xB46D8, offset: 0xB46D8, size: 0x8, addend: 0x0, symName: __ZN8nlohmann16json_abi_v3_11_36detail13concat_lengthINSt3__112basic_stringIcNS3_11char_traitsIcEENS3_9allocatorIcEEEEJA3_cS9_S9_EEEmRKT_DpRKT0_, symObjAddr: 0xC1504, symBinAddr: 0x1000C3ABC, symSize: 0x50 }
  - { offsetInCU: 0xB4751, offset: 0xB4751, size: 0x8, addend: 0x0, symName: __ZN8nlohmann16json_abi_v3_11_36detail13concat_lengthIJNSt3__112basic_stringIcNS3_11char_traitsIcEENS3_9allocatorIcEEEES9_EEEmPKcDpRKT_, symObjAddr: 0xC1554, symBinAddr: 0x1000C3B0C, symSize: 0x48 }
  - { offsetInCU: 0xB47AE, offset: 0xB47AE, size: 0x8, addend: 0x0, symName: __ZN8nlohmann16json_abi_v3_11_36detail11concat_intoINSt3__112basic_stringIcNS3_11char_traitsIcEENS3_9allocatorIcEEEERA12_KcJS9_RA3_SA_S9_RKS9_ELi0EEEvRT_OT0_DpOT1_, symObjAddr: 0xC159C, symBinAddr: 0x1000C3B54, symSize: 0x54 }
  - { offsetInCU: 0xB4856, offset: 0xB4856, size: 0x8, addend: 0x0, symName: __ZN8nlohmann16json_abi_v3_11_36detail11concat_intoINSt3__112basic_stringIcNS3_11char_traitsIcEENS3_9allocatorIcEEEES9_JRA3_KcS9_RKS9_ELi0EEEvRT_OT0_DpOT1_, symObjAddr: 0xC15F0, symBinAddr: 0x1000C3BA8, symSize: 0x4C }
  - { offsetInCU: 0xB48EA, offset: 0xB48EA, size: 0x8, addend: 0x0, symName: __ZN8nlohmann16json_abi_v3_11_36detail11concat_intoINSt3__112basic_stringIcNS3_11char_traitsIcEENS3_9allocatorIcEEEERA3_KcJS9_RKS9_ELi0EEEvRT_OT0_DpOT1_, symObjAddr: 0xC163C, symBinAddr: 0x1000C3BF4, symSize: 0x44 }
  - { offsetInCU: 0xB4969, offset: 0xB4969, size: 0x8, addend: 0x0, symName: __ZN8nlohmann16json_abi_v3_11_36detail6concatINSt3__112basic_stringIcNS3_11char_traitsIcEENS3_9allocatorIcEEEEJRA10_KcS9_SC_S9_EEET_DpOT0_, symObjAddr: 0xC1680, symBinAddr: 0x1000C3C38, symSize: 0xE4 }
  - { offsetInCU: 0xB49F8, offset: 0xB49F8, size: 0x8, addend: 0x0, symName: __ZN8nlohmann16json_abi_v3_11_36detail13concat_lengthIJNSt3__112basic_stringIcNS3_11char_traitsIcEENS3_9allocatorIcEEEEA10_cS9_EEEmPKcDpRKT_, symObjAddr: 0xC1764, symBinAddr: 0x1000C3D1C, symSize: 0x50 }
  - { offsetInCU: 0xB4A69, offset: 0xB4A69, size: 0x8, addend: 0x0, symName: __ZN8nlohmann16json_abi_v3_11_36detail11concat_intoINSt3__112basic_stringIcNS3_11char_traitsIcEENS3_9allocatorIcEEEERA10_KcJS9_SC_S9_ELi0EEEvRT_OT0_DpOT1_, symObjAddr: 0xC17B4, symBinAddr: 0x1000C3D6C, symSize: 0x4C }
  - { offsetInCU: 0xB4AFC, offset: 0xB4AFC, size: 0x8, addend: 0x0, symName: __ZN8nlohmann16json_abi_v3_11_36detail13concat_lengthINSt3__112basic_stringIcNS3_11char_traitsIcEENS3_9allocatorIcEEEEJA10_cS9_EEEmRKT_DpRKT0_, symObjAddr: 0xC1800, symBinAddr: 0x1000C3DB8, symSize: 0x48 }
  - { offsetInCU: 0xB4B62, offset: 0xB4B62, size: 0x8, addend: 0x0, symName: __ZN8nlohmann16json_abi_v3_11_36detail11concat_intoINSt3__112basic_stringIcNS3_11char_traitsIcEENS3_9allocatorIcEEEES9_JRA10_KcS9_ELi0EEEvRT_OT0_DpOT1_, symObjAddr: 0xC1848, symBinAddr: 0x1000C3E00, symSize: 0x44 }
  - { offsetInCU: 0xB4BE2, offset: 0xB4BE2, size: 0x8, addend: 0x0, symName: __ZN8nlohmann16json_abi_v3_11_36detail11concat_intoINSt3__112basic_stringIcNS3_11char_traitsIcEENS3_9allocatorIcEEEERA10_KcJS9_ELi0EEEvRT_OT0_DpOT1_, symObjAddr: 0xC188C, symBinAddr: 0x1000C3E44, symSize: 0x3C }
  - { offsetInCU: 0xB4C4D, offset: 0xB4C4D, size: 0x8, addend: 0x0, symName: __ZN8nlohmann16json_abi_v3_11_36detail6concatINSt3__112basic_stringIcNS3_11char_traitsIcEENS3_9allocatorIcEEEEJRA15_KcRKS9_cEEET_DpOT0_, symObjAddr: 0xC1928, symBinAddr: 0x1000C3EE0, symSize: 0xD8 }
  - { offsetInCU: 0xB4CC8, offset: 0xB4CC8, size: 0x8, addend: 0x0, symName: __ZN8nlohmann16json_abi_v3_11_36detail6concatINSt3__112basic_stringIcNS3_11char_traitsIcEENS3_9allocatorIcEEEEJPKcRA15_SA_S9_cEEET_DpOT0_, symObjAddr: 0xC1A00, symBinAddr: 0x1000C3FB8, symSize: 0xE8 }
  - { offsetInCU: 0xB4D57, offset: 0xB4D57, size: 0x8, addend: 0x0, symName: __ZN8nlohmann16json_abi_v3_11_36detail6concatINSt3__112basic_stringIcNS3_11char_traitsIcEENS3_9allocatorIcEEEEJRA12_KcPSA_EEET_DpOT0_, symObjAddr: 0xC1B00, symBinAddr: 0x1000C40B8, symSize: 0xCC }
  - { offsetInCU: 0xB4DBF, offset: 0xB4DBF, size: 0x8, addend: 0x0, symName: __ZN8nlohmann16json_abi_v3_11_36detail11concat_intoINSt3__112basic_stringIcNS3_11char_traitsIcEENS3_9allocatorIcEEEERA15_KcJRKS9_cELi0EEEvRT_OT0_DpOT1_, symObjAddr: 0xC1D58, symBinAddr: 0x1000C4310, symSize: 0x44 }
  - { offsetInCU: 0xB4E3F, offset: 0xB4E3F, size: 0x8, addend: 0x0, symName: __ZN8nlohmann16json_abi_v3_11_36detail11concat_intoINSt3__112basic_stringIcNS3_11char_traitsIcEENS3_9allocatorIcEEEERKS9_JcELi0EEEvRT_OT0_DpOT1_, symObjAddr: 0xC1D9C, symBinAddr: 0x1000C4354, symSize: 0x3C }
  - { offsetInCU: 0xB4EAA, offset: 0xB4EAA, size: 0x8, addend: 0x0, symName: __ZN8nlohmann16json_abi_v3_11_36detail13concat_lengthIJA15_cNSt3__112basic_stringIcNS4_11char_traitsIcEENS4_9allocatorIcEEEEcEEEmPKcDpRKT_, symObjAddr: 0xC1DD8, symBinAddr: 0x1000C4390, symSize: 0x50 }
  - { offsetInCU: 0xB4F1B, offset: 0xB4F1B, size: 0x8, addend: 0x0, symName: __ZN8nlohmann16json_abi_v3_11_36detail11concat_intoINSt3__112basic_stringIcNS3_11char_traitsIcEENS3_9allocatorIcEEEEPKcJRA15_SA_S9_cELi0EEEvRT_OT0_DpOT1_, symObjAddr: 0xC1E28, symBinAddr: 0x1000C43E0, symSize: 0x50 }
  - { offsetInCU: 0xB4FAF, offset: 0xB4FAF, size: 0x8, addend: 0x0, symName: __ZN8nlohmann16json_abi_v3_11_36detail11concat_intoINSt3__112basic_stringIcNS3_11char_traitsIcEENS3_9allocatorIcEEEERA15_KcJS9_cELi0EEEvRT_OT0_DpOT1_, symObjAddr: 0xC1E78, symBinAddr: 0x1000C4430, symSize: 0x44 }
  - { offsetInCU: 0xB502F, offset: 0xB502F, size: 0x8, addend: 0x0, symName: __ZN8nlohmann16json_abi_v3_11_36detail11concat_intoINSt3__112basic_stringIcNS3_11char_traitsIcEENS3_9allocatorIcEEEERA12_KcJPSA_ELi0EEEvRT_OT0_DpOT1_, symObjAddr: 0xC1EBC, symBinAddr: 0x1000C4474, symSize: 0x3C }
  - { offsetInCU: 0xB510C, offset: 0xB510C, size: 0x8, addend: 0x0, symName: __ZN8nlohmann16json_abi_v3_11_36detail6concatINSt3__112basic_stringIcNS3_11char_traitsIcEENS3_9allocatorIcEEEEJRA51_KcPSA_EEET_DpOT0_, symObjAddr: 0xC66BC, symBinAddr: 0x1000C8C74, symSize: 0xCC }
  - { offsetInCU: 0xB5174, offset: 0xB5174, size: 0x8, addend: 0x0, symName: __ZN8nlohmann16json_abi_v3_11_36detail11concat_intoINSt3__112basic_stringIcNS3_11char_traitsIcEENS3_9allocatorIcEEEERA51_KcJPSA_ELi0EEEvRT_OT0_DpOT1_, symObjAddr: 0xC6B5C, symBinAddr: 0x1000C9114, symSize: 0x3C }
  - { offsetInCU: 0xB51F5, offset: 0xB51F5, size: 0x8, addend: 0x0, symName: __ZN8nlohmann16json_abi_v3_11_36detail9from_jsonINS0_10basic_jsonINSt3__13mapENS4_6vectorENS4_12basic_stringIcNS4_11char_traitsIcEENS4_9allocatorIcEEEEbxydSA_NS0_14adl_serializerENS6_IhNSA_IhEEEEvEEEEvRKT_RNSH_8string_tE, symObjAddr: 0xC6CD0, symBinAddr: 0x1000C9288, symSize: 0x118 }
  - { offsetInCU: 0xB5237, offset: 0xB5237, size: 0x8, addend: 0x0, symName: __ZN8nlohmann16json_abi_v3_11_36detail6concatINSt3__112basic_stringIcNS3_11char_traitsIcEENS3_9allocatorIcEEEEJRA29_KcPSA_EEET_DpOT0_, symObjAddr: 0xC6F18, symBinAddr: 0x1000C94D0, symSize: 0xCC }
  - { offsetInCU: 0xB529F, offset: 0xB529F, size: 0x8, addend: 0x0, symName: __ZN8nlohmann16json_abi_v3_11_36detail11concat_intoINSt3__112basic_stringIcNS3_11char_traitsIcEENS3_9allocatorIcEEEERA29_KcJPSA_ELi0EEEvRT_OT0_DpOT1_, symObjAddr: 0xC700C, symBinAddr: 0x1000C95C4, symSize: 0x3C }
  - { offsetInCU: 0xB530B, offset: 0xB530B, size: 0x8, addend: 0x0, symName: __ZN8nlohmann16json_abi_v3_11_36detail7to_jsonINS0_10basic_jsonINSt3__13mapENS4_6vectorENS4_12basic_stringIcNS4_11char_traitsIcEENS4_9allocatorIcEEEEbxydSA_NS0_14adl_serializerENS6_IhNSA_IhEEEEvEEiLi0EEEvRT_T0_, symObjAddr: 0xC7160, symBinAddr: 0x1000C9718, symSize: 0x2C }
  - { offsetInCU: 0xB535C, offset: 0xB535C, size: 0x8, addend: 0x0, symName: __ZN8nlohmann16json_abi_v3_11_36detail6concatINSt3__112basic_stringIcNS3_11char_traitsIcEENS3_9allocatorIcEEEEJRA29_KcS9_RA5_SA_S9_EEET_DpOT0_, symObjAddr: 0xCB360, symBinAddr: 0x1000CD918, symSize: 0xE4 }
  - { offsetInCU: 0xB57E2, offset: 0xB57E2, size: 0x8, addend: 0x0, symName: __ZN8nlohmann16json_abi_v3_11_36detail6concatINSt3__112basic_stringIcNS3_11char_traitsIcEENS3_9allocatorIcEEEEJRA39_KcS9_EEET_DpOT0_, symObjAddr: 0xCB554, symBinAddr: 0x1000CDB0C, symSize: 0xCC }
  - { offsetInCU: 0xB5849, offset: 0xB5849, size: 0x8, addend: 0x0, symName: __ZN8nlohmann16json_abi_v3_11_36detail13concat_lengthIJNSt3__112basic_stringIcNS3_11char_traitsIcEENS3_9allocatorIcEEEEA5_cS9_EEEmPKcDpRKT_, symObjAddr: 0xCB654, symBinAddr: 0x1000CDC0C, symSize: 0x50 }
  - { offsetInCU: 0xB58BA, offset: 0xB58BA, size: 0x8, addend: 0x0, symName: __ZN8nlohmann16json_abi_v3_11_36detail11concat_intoINSt3__112basic_stringIcNS3_11char_traitsIcEENS3_9allocatorIcEEEERA29_KcJS9_RA5_SA_S9_ELi0EEEvRT_OT0_DpOT1_, symObjAddr: 0xCB6A4, symBinAddr: 0x1000CDC5C, symSize: 0x4C }
  - { offsetInCU: 0xB594D, offset: 0xB594D, size: 0x8, addend: 0x0, symName: __ZN8nlohmann16json_abi_v3_11_36detail13concat_lengthINSt3__112basic_stringIcNS3_11char_traitsIcEENS3_9allocatorIcEEEEJA5_cS9_EEEmRKT_DpRKT0_, symObjAddr: 0xCB6F0, symBinAddr: 0x1000CDCA8, symSize: 0x48 }
  - { offsetInCU: 0xB59B3, offset: 0xB59B3, size: 0x8, addend: 0x0, symName: __ZN8nlohmann16json_abi_v3_11_36detail11concat_intoINSt3__112basic_stringIcNS3_11char_traitsIcEENS3_9allocatorIcEEEES9_JRA5_KcS9_ELi0EEEvRT_OT0_DpOT1_, symObjAddr: 0xCB738, symBinAddr: 0x1000CDCF0, symSize: 0x44 }
  - { offsetInCU: 0xB5A33, offset: 0xB5A33, size: 0x8, addend: 0x0, symName: __ZN8nlohmann16json_abi_v3_11_36detail11concat_intoINSt3__112basic_stringIcNS3_11char_traitsIcEENS3_9allocatorIcEEEERA5_KcJS9_ELi0EEEvRT_OT0_DpOT1_, symObjAddr: 0xCB77C, symBinAddr: 0x1000CDD34, symSize: 0x3C }
  - { offsetInCU: 0xB5A9F, offset: 0xB5A9F, size: 0x8, addend: 0x0, symName: __ZN8nlohmann16json_abi_v3_11_36detail11concat_intoINSt3__112basic_stringIcNS3_11char_traitsIcEENS3_9allocatorIcEEEERA39_KcJS9_ELi0EEEvRT_OT0_DpOT1_, symObjAddr: 0xCB7B8, symBinAddr: 0x1000CDD70, symSize: 0x3C }
  - { offsetInCU: 0xB5B0A, offset: 0xB5B0A, size: 0x8, addend: 0x0, symName: __ZN8nlohmann16json_abi_v3_11_36detail8to_charsIdEEPcS3_PKcT_, symObjAddr: 0xCBE90, symBinAddr: 0x1000CE448, symSize: 0x26C }
  - { offsetInCU: 0xB8535, offset: 0xB8535, size: 0x8, addend: 0x0, symName: __ZN8nlohmann16json_abi_v3_11_36detail10serializerINS0_10basic_jsonINSt3__13mapENS4_6vectorENS4_12basic_stringIcNS4_11char_traitsIcEENS4_9allocatorIcEEEEbxydSA_NS0_14adl_serializerENS6_IhNSA_IhEEEEvEEE6decodeERhRjh, symObjAddr: 0xCB068, symBinAddr: 0x1000CD620, symSize: 0x180 }
  - { offsetInCU: 0xB8556, offset: 0xB8556, size: 0x8, addend: 0x0, symName: __ZZN8nlohmann16json_abi_v3_11_36detail10serializerINS0_10basic_jsonINSt3__13mapENS4_6vectorENS4_12basic_stringIcNS4_11char_traitsIcEENS4_9allocatorIcEEEEbxydSA_NS0_14adl_serializerENS6_IhNSA_IhEEEEvEEE6decodeERhRjhE5utf8d, symObjAddr: 0xDD52B, symBinAddr: 0x1000DE30B, symSize: 0x0 }
  - { offsetInCU: 0xB85F1, offset: 0xB85F1, size: 0x8, addend: 0x0, symName: __ZN8nlohmann16json_abi_v3_11_36detail10serializerINS0_10basic_jsonINSt3__13mapENS4_6vectorENS4_12basic_stringIcNS4_11char_traitsIcEENS4_9allocatorIcEEEEbxydSA_NS0_14adl_serializerENS6_IhNSA_IhEEEEvEEE12dump_integerIhLi0EEEvT_, symObjAddr: 0xCA6F8, symBinAddr: 0x1000CCCB0, symSize: 0x2C8 }
  - { offsetInCU: 0xB8616, offset: 0xB8616, size: 0x8, addend: 0x0, symName: __ZZN8nlohmann16json_abi_v3_11_36detail10serializerINS0_10basic_jsonINSt3__13mapENS4_6vectorENS4_12basic_stringIcNS4_11char_traitsIcEENS4_9allocatorIcEEEEbxydSA_NS0_14adl_serializerENS6_IhNSA_IhEEEEvEEE12dump_integerIhLi0EEEvT_E12digits_to_99, symObjAddr: 0xDD6BB, symBinAddr: 0x1000DE49B, symSize: 0x0 }
  - { offsetInCU: 0xB873E, offset: 0xB873E, size: 0x8, addend: 0x0, symName: __ZN8nlohmann16json_abi_v3_11_36detail10serializerINS0_10basic_jsonINSt3__13mapENS4_6vectorENS4_12basic_stringIcNS4_11char_traitsIcEENS4_9allocatorIcEEEEbxydSA_NS0_14adl_serializerENS6_IhNSA_IhEEEEvEEE12dump_integerIyLi0EEEvT_, symObjAddr: 0xCAA30, symBinAddr: 0x1000CCFE8, symSize: 0x2C4 }
  - { offsetInCU: 0xB8763, offset: 0xB8763, size: 0x8, addend: 0x0, symName: __ZZN8nlohmann16json_abi_v3_11_36detail10serializerINS0_10basic_jsonINSt3__13mapENS4_6vectorENS4_12basic_stringIcNS4_11char_traitsIcEENS4_9allocatorIcEEEEbxydSA_NS0_14adl_serializerENS6_IhNSA_IhEEEEvEEE12dump_integerIyLi0EEEvT_E12digits_to_99, symObjAddr: 0xDD783, symBinAddr: 0x1000DE563, symSize: 0x0 }
  - { offsetInCU: 0xB8807, offset: 0xB8807, size: 0x8, addend: 0x0, symName: __ZN8nlohmann16json_abi_v3_11_36detail10serializerINS0_10basic_jsonINSt3__13mapENS4_6vectorENS4_12basic_stringIcNS4_11char_traitsIcEENS4_9allocatorIcEEEEbxydSA_NS0_14adl_serializerENS6_IhNSA_IhEEEEvEEE12dump_integerIxLi0EEEvT_, symObjAddr: 0xCAD38, symBinAddr: 0x1000CD2F0, symSize: 0x2C4 }
  - { offsetInCU: 0xB882C, offset: 0xB882C, size: 0x8, addend: 0x0, symName: __ZZN8nlohmann16json_abi_v3_11_36detail10serializerINS0_10basic_jsonINSt3__13mapENS4_6vectorENS4_12basic_stringIcNS4_11char_traitsIcEENS4_9allocatorIcEEEEbxydSA_NS0_14adl_serializerENS6_IhNSA_IhEEEEvEEE12dump_integerIxLi0EEEvT_E12digits_to_99, symObjAddr: 0xDD84B, symBinAddr: 0x1000DE62B, symSize: 0x0 }
  - { offsetInCU: 0xB88D0, offset: 0xB88D0, size: 0x8, addend: 0x0, symName: __ZN8nlohmann16json_abi_v3_11_36detail10serializerINS0_10basic_jsonINSt3__13mapENS4_6vectorENS4_12basic_stringIcNS4_11char_traitsIcEENS4_9allocatorIcEEEEbxydSA_NS0_14adl_serializerENS6_IhNSA_IhEEEEvEEE10dump_floatEd, symObjAddr: 0xCAFFC, symBinAddr: 0x1000CD5B4, symSize: 0x6C }
  - { offsetInCU: 0xB88F5, offset: 0xB88F5, size: 0x8, addend: 0x0, symName: __ZZN8nlohmann16json_abi_v3_11_36detail10serializerINS0_10basic_jsonINSt3__13mapENS4_6vectorENS4_12basic_stringIcNS4_11char_traitsIcEENS4_9allocatorIcEEEEbxydSA_NS0_14adl_serializerENS6_IhNSA_IhEEEEvEEE10dump_floatEdE24is_ieee_single_or_double, symObjAddr: 0xDD913, symBinAddr: 0x1000DE6F3, symSize: 0x0 }
  - { offsetInCU: 0xB8B6F, offset: 0xB8B6F, size: 0x8, addend: 0x0, symName: __ZN7httplib6ServerC2Ev, symObjAddr: 0x618, symBinAddr: 0x100002BD0, symSize: 0x37C }
  - { offsetInCU: 0xB963D, offset: 0xB963D, size: 0x8, addend: 0x0, symName: __ZNSt3__16vectorINS_6threadENS_9allocatorIS1_EEE26__swap_out_circular_bufferERNS_14__split_bufferIS1_RS3_EE, symObjAddr: 0x56C0, symBinAddr: 0x100007C78, symSize: 0x110 }
  - { offsetInCU: 0xB9956, offset: 0xB9956, size: 0x8, addend: 0x0, symName: __ZNSt3__16vectorIcNS_9allocatorIcEEE26__swap_out_circular_bufferERNS_14__split_bufferIcRS2_EE, symObjAddr: 0xB87C, symBinAddr: 0x10000DE34, symSize: 0x110 }
  - { offsetInCU: 0xB9C62, offset: 0xB9C62, size: 0x8, addend: 0x0, symName: __ZNKSt3__16chrono15__duration_castINS0_8durationIxNS_5ratioILl1ELl1000000000EEEEENS2_IxNS3_ILl1ELl1000EEEEENS3_ILl1ELl1000000EEELb1ELb0EEclB8ue170006ERKS5_, symObjAddr: 0x108EC, symBinAddr: 0x100012EA4, symSize: 0x4C }
  - { offsetInCU: 0xB9CD4, offset: 0xB9CD4, size: 0x8, addend: 0x0, symName: __ZNKSt3__16chrono13__duration_ltINS0_8durationIxNS_5ratioILl1ELl1000EEEEENS2_IeNS3_ILl1ELl1EEEEEEclB8ue170006ERKS5_RKS7_, symObjAddr: 0x10C90, symBinAddr: 0x100013248, symSize: 0x78 }
  - { offsetInCU: 0xB9D57, offset: 0xB9D57, size: 0x8, addend: 0x0, symName: __ZNKSt3__16chrono15__duration_castINS0_8durationIeNS_5ratioILl1ELl1EEEEENS2_IeNS3_ILl1ELl1000EEEEENS3_ILl1000ELl1EEELb0ELb1EEclB8ue170006ERKS5_, symObjAddr: 0x10F30, symBinAddr: 0x1000134E8, symSize: 0x4C }
  - { offsetInCU: 0xB9DA1, offset: 0xB9DA1, size: 0x8, addend: 0x0, symName: __ZNKSt3__16chrono15__duration_castINS0_8durationIxNS_5ratioILl1ELl1000EEEEENS2_IxNS3_ILl1ELl1000000000EEEEENS3_ILl1000000ELl1EEELb0ELb1EEclB8ue170006ERKS5_, symObjAddr: 0x10F94, symBinAddr: 0x10001354C, symSize: 0x4C }
  - { offsetInCU: 0xB9DEB, offset: 0xB9DEB, size: 0x8, addend: 0x0, symName: __ZNKSt3__16chrono13__duration_ltINS0_8durationIxNS_5ratioILl1ELl1000000000EEEEENS2_IxNS3_ILl1ELl1000EEEEEEclB8ue170006ERKS5_RKS7_, symObjAddr: 0x10FE0, symBinAddr: 0x100013598, symSize: 0x6C }
  - { offsetInCU: 0xB9ECF, offset: 0xB9ECF, size: 0x8, addend: 0x0, symName: __ZNSt3__16vectorIjNS_9allocatorIjEEE26__swap_out_circular_bufferERNS_14__split_bufferIjRS2_EE, symObjAddr: 0x1FA68, symBinAddr: 0x100022020, symSize: 0x110 }
  - { offsetInCU: 0xB9F2F, offset: 0xB9F2F, size: 0x8, addend: 0x0, symName: __ZNK7httplib6Server12apply_rangesERKNS_7RequestERNS_8ResponseERNSt3__112basic_stringIcNS6_11char_traitsIcEENS6_9allocatorIcEEEESD_, symObjAddr: 0x1C3CC, symBinAddr: 0x10001E984, symSize: 0xAC8 }
  - { offsetInCU: 0xBAB13, offset: 0xBAB13, size: 0x8, addend: 0x0, symName: __ZZN7httplib6detail21write_content_chunkedIZNS_6Server27write_content_with_providerERNS_6StreamERKNS_7RequestERNS_8ResponseERKNSt3__112basic_stringIcNSA_11char_traitsIcEENSA_9allocatorIcEEEESI_EUlvE_NS0_10compressorEEEbS4_RKNSA_8functionIFbmmRNS_8DataSinkEEEERKT_RT0_RNS_5ErrorEENKUlPKcmE_clES10_m, symObjAddr: 0x2D0B0, symBinAddr: 0x10002F668, symSize: 0x314 }
  - { offsetInCU: 0xBC64B, offset: 0xBC64B, size: 0x8, addend: 0x0, symName: __ZZN7httplib6detail16parse_query_textEPKcmRNSt3__18multimapINS3_12basic_stringIcNS3_11char_traitsIcEENS3_9allocatorIcEEEESA_NS3_4lessISA_EENS8_INS3_4pairIKSA_SA_EEEEEEENKUlS2_S2_E_clES2_S2_, symObjAddr: 0x432B0, symBinAddr: 0x100045868, symSize: 0x2AC }
  - { offsetInCU: 0xBCBD2, offset: 0xBCBD2, size: 0x8, addend: 0x0, symName: __ZNSt3__16vectorINS_4pairIllEENS_9allocatorIS2_EEE26__swap_out_circular_bufferERNS_14__split_bufferIS2_RS4_EE, symObjAddr: 0x48010, symBinAddr: 0x10004A5C8, symSize: 0x110 }
  - { offsetInCU: 0xBCE6C, offset: 0xBCE6C, size: 0x8, addend: 0x0, symName: __ZNSt3__16vectorINS_7__stateIcEENS_9allocatorIS2_EEE26__swap_out_circular_bufferERNS_14__split_bufferIS2_RS4_EE, symObjAddr: 0x535E0, symBinAddr: 0x100055B98, symSize: 0x110 }
  - { offsetInCU: 0xBCF11, offset: 0xBCF11, size: 0x8, addend: 0x0, symName: __ZNSt3__16vectorINS_9sub_matchIPKcEENS_9allocatorIS4_EEE26__swap_out_circular_bufferERNS_14__split_bufferIS4_RS6_EE, symObjAddr: 0x551C4, symBinAddr: 0x10005777C, symSize: 0x110 }
  - { offsetInCU: 0xBCFB0, offset: 0xBCFB0, size: 0x8, addend: 0x0, symName: __ZNSt3__16vectorINS_4pairImPKcEENS_9allocatorIS4_EEE26__swap_out_circular_bufferERNS_14__split_bufferIS4_RS6_EE, symObjAddr: 0x563E8, symBinAddr: 0x1000589A0, symSize: 0x110 }
  - { offsetInCU: 0xBD120, offset: 0xBD120, size: 0x8, addend: 0x0, symName: __ZNSt3__16vectorINS_12basic_stringIcNS_11char_traitsIcEENS_9allocatorIcEEEENS4_IS6_EEE26__swap_out_circular_bufferERNS_14__split_bufferIS6_RS7_EE, symObjAddr: 0x61C14, symBinAddr: 0x1000641CC, symSize: 0x110 }
  - { offsetInCU: 0xBD1BF, offset: 0xBD1BF, size: 0x8, addend: 0x0, symName: __ZNSt3__16vectorINS_4pairINS_12basic_stringIcNS_11char_traitsIcEENS_9allocatorIcEEEES7_EENS5_IS8_EEE26__swap_out_circular_bufferERNS_14__split_bufferIS8_RS9_EE, symObjAddr: 0x63554, symBinAddr: 0x100065B0C, symSize: 0x110 }
  - { offsetInCU: 0xBD25E, offset: 0xBD25E, size: 0x8, addend: 0x0, symName: __ZNSt3__16vectorINS_4pairIccEENS_9allocatorIS2_EEE26__swap_out_circular_bufferERNS_14__split_bufferIS2_RS4_EE, symObjAddr: 0x64A34, symBinAddr: 0x100066FEC, symSize: 0x110 }
  - { offsetInCU: 0xBD3AA, offset: 0xBD3AA, size: 0x8, addend: 0x0, symName: __ZNSt3__16vectorINS_9sub_matchINS_11__wrap_iterIPKcEEEENS_9allocatorIS6_EEE26__swap_out_circular_bufferERNS_14__split_bufferIS6_RS8_EE, symObjAddr: 0x6FD60, symBinAddr: 0x100072318, symSize: 0x110 }
  - { offsetInCU: 0xBD449, offset: 0xBD449, size: 0x8, addend: 0x0, symName: __ZN7httplib6Server19handle_file_requestERKNS_7RequestERNS_8ResponseEb, symObjAddr: 0x49198, symBinAddr: 0x10004B750, symSize: 0x4F4 }
  - { offsetInCU: 0xBD87A, offset: 0xBD87A, size: 0x8, addend: 0x0, symName: __ZN7httplib6Server7routingERNS_7RequestERNS_8ResponseERNS_6StreamE, symObjAddr: 0x14EC4, symBinAddr: 0x10001747C, symSize: 0x6E4 }
  - { offsetInCU: 0xBDC08, offset: 0xBDC08, size: 0x8, addend: 0x0, symName: __ZNK7httplib6Server17read_content_coreERNS_6StreamERNS_7RequestERNS_8ResponseENSt3__18functionIFbPKcmEEENS8_IFbRKNS_17MultipartFormDataEEEESC_, symObjAddr: 0x75370, symBinAddr: 0x100077928, symSize: 0x514 }
  - { offsetInCU: 0xBE260, offset: 0xBE260, size: 0x8, addend: 0x0, symName: __ZZN7httplib6detail24parse_disposition_paramsERKNSt3__112basic_stringIcNS1_11char_traitsIcEENS1_9allocatorIcEEEERNS1_8multimapIS7_S7_NS1_4lessIS7_EENS5_INS1_4pairIS8_S7_EEEEEEENKUlPKcSJ_E_clESJ_SJ_, symObjAddr: 0x7B67C, symBinAddr: 0x10007DC34, symSize: 0x294 }
  - { offsetInCU: 0xBEAE7, offset: 0xBEAE7, size: 0x8, addend: 0x0, symName: __ZZN7httplib6detail24prepare_content_receiverINS_7RequestEZNS0_12read_contentIS2_EEbRNS_6StreamERT_mRiNSt3__18functionIFbyyEEENSA_IFbPKcmyyEEEbEUlRKSG_E_EEbS7_S8_SG_bT0_ENKUlSE_myyE_clESE_myy, symObjAddr: 0x81CBC, symBinAddr: 0x100084274, symSize: 0x114 }
  - { offsetInCU: 0xBF2A7, offset: 0xBF2A7, size: 0x8, addend: 0x0, symName: __ZN7httplib6Server12read_contentERNS_6StreamERNS_7RequestERNS_8ResponseE, symObjAddr: 0x499A8, symBinAddr: 0x10004BF60, symSize: 0x2F8 }
  - { offsetInCU: 0xBFAF3, offset: 0xBFAF3, size: 0x8, addend: 0x0, symName: __ZNSt3__16vectorINS_4pairINS_10unique_ptrIN7httplib6detail11MatcherBaseENS_14default_deleteIS5_EEEENS_8functionIFvRKNS3_7RequestERNS3_8ResponseEEEEEENS_9allocatorISH_EEE26__swap_out_circular_bufferERNS_14__split_bufferISH_RSJ_EE, symObjAddr: 0x909E4, symBinAddr: 0x100092F9C, symSize: 0x110 }
  - { offsetInCU: 0xC00B0, offset: 0xC00B0, size: 0x8, addend: 0x0, symName: __ZN7httplib6Server6listenERKNSt3__112basic_stringIcNS1_11char_traitsIcEENS1_9allocatorIcEEEEii, symObjAddr: 0x4C0, symBinAddr: 0x100002A78, symSize: 0x12C }
  - { offsetInCU: 0xC0392, offset: 0xC0392, size: 0x8, addend: 0x0, symName: __ZN7httplib6Server15listen_internalEv, symObjAddr: 0x9D4BC, symBinAddr: 0x10009FA74, symSize: 0x41C }
  - { offsetInCU: 0xC098A, offset: 0xC098A, size: 0x8, addend: 0x0, symName: _main, symObjAddr: 0x0, symBinAddr: 0x1000025B8, symSize: 0x208 }
  - { offsetInCU: 0xC1005, offset: 0xC1005, size: 0x8, addend: 0x0, symName: __ZNSt3__16vectorIN8nlohmann16json_abi_v3_11_310basic_jsonINS_3mapES0_NS_12basic_stringIcNS_11char_traitsIcEENS_9allocatorIcEEEEbxydS8_NS2_14adl_serializerENS0_IhNS8_IhEEEEvEENS8_ISE_EEE26__swap_out_circular_bufferERNS_14__split_bufferISE_RSF_EE, symObjAddr: 0xB1804, symBinAddr: 0x1000B3DBC, symSize: 0x110 }
  - { offsetInCU: 0xC10A4, offset: 0xC10A4, size: 0x8, addend: 0x0, symName: __ZNSt3__16vectorIPN8nlohmann16json_abi_v3_11_310basic_jsonINS_3mapES0_NS_12basic_stringIcNS_11char_traitsIcEENS_9allocatorIcEEEEbxydS8_NS2_14adl_serializerENS0_IhNS8_IhEEEEvEENS8_ISF_EEE26__swap_out_circular_bufferERNS_14__split_bufferISF_RSG_EE, symObjAddr: 0xB2E18, symBinAddr: 0x1000B53D0, symSize: 0x110 }
  - { offsetInCU: 0xC1CE5, offset: 0xC1CE5, size: 0x8, addend: 0x0, symName: __Z7isdigiti, symObjAddr: 0x1B2A4, symBinAddr: 0x10001D85C, symSize: 0x28 }
  - { offsetInCU: 0xC1DA8, offset: 0xC1DA8, size: 0x8, addend: 0x0, symName: __Z7toloweri, symObjAddr: 0x18E5C, symBinAddr: 0x10001B414, symSize: 0x24 }
  - { offsetInCU: 0xC375D, offset: 0xC375D, size: 0x8, addend: 0x0, symName: __ZN7httplib6ServerC1Ev, symObjAddr: 0x208, symBinAddr: 0x1000027C0, symSize: 0x2C }
  - { offsetInCU: 0xC3789, offset: 0xC3789, size: 0x8, addend: 0x0, symName: __ZN7httplib6Server4PostERKNSt3__112basic_stringIcNS1_11char_traitsIcEENS1_9allocatorIcEEEENS1_8functionIFvRKNS_7RequestERNS_8ResponseEEEE, symObjAddr: 0x234, symBinAddr: 0x1000027EC, symSize: 0x84 }
  - { offsetInCU: 0xC37D6, offset: 0xC37D6, size: 0x8, addend: 0x0, symName: __ZNSt3__112basic_stringIcNS_11char_traitsIcEENS_9allocatorIcEEEC1B8ue170006ILi0EEEPKc, symObjAddr: 0x2B8, symBinAddr: 0x100002870, symSize: 0x34 }
  - { offsetInCU: 0xC3815, offset: 0xC3815, size: 0x8, addend: 0x0, symName: '__ZNSt3__18functionIFvRKN7httplib7RequestERNS1_8ResponseEEEC1IZ4mainE3$_0vEET_', symObjAddr: 0x2EC, symBinAddr: 0x1000028A4, symSize: 0x2C }
  - { offsetInCU: 0xC385A, offset: 0xC385A, size: 0x8, addend: 0x0, symName: __ZNSt3__18functionIFvRKN7httplib7RequestERNS1_8ResponseEEED1Ev, symObjAddr: 0x318, symBinAddr: 0x1000028D0, symSize: 0x2C }
  - { offsetInCU: 0xC3886, offset: 0xC3886, size: 0x8, addend: 0x0, symName: __ZN7httplib6Server7OptionsERKNSt3__112basic_stringIcNS1_11char_traitsIcEENS1_9allocatorIcEEEENS1_8functionIFvRKNS_7RequestERNS_8ResponseEEEE, symObjAddr: 0x344, symBinAddr: 0x1000028FC, symSize: 0x84 }
  - { offsetInCU: 0xC38CD, offset: 0xC38CD, size: 0x8, addend: 0x0, symName: '__ZNSt3__18functionIFvRKN7httplib7RequestERNS1_8ResponseEEEC1IZ4mainE3$_1vEET_', symObjAddr: 0x3C8, symBinAddr: 0x100002980, symSize: 0x2C }
  - { offsetInCU: 0xC3912, offset: 0xC3912, size: 0x8, addend: 0x0, symName: __ZNSt3__113basic_ostreamIcNS_11char_traitsIcEEElsB8ue170006EPFRS3_S4_E, symObjAddr: 0x43C, symBinAddr: 0x1000029F4, symSize: 0x2C }
  - { offsetInCU: 0xC3946, offset: 0xC3946, size: 0x8, addend: 0x0, symName: __ZN7httplib6ServerD1Ev, symObjAddr: 0x5EC, symBinAddr: 0x100002BA4, symSize: 0x2C }
  - { offsetInCU: 0xC3972, offset: 0xC3972, size: 0x8, addend: 0x0, symName: __ZNSt3__18functionIFPN7httplib9TaskQueueEvEEC1IZNS1_6ServerC1EvEUlvE_vEET_, symObjAddr: 0x994, symBinAddr: 0x100002F4C, symSize: 0x2C }
  - { offsetInCU: 0xC39B7, offset: 0xC39B7, size: 0x8, addend: 0x0, symName: __ZNSt3__16atomicIiEC1B8ue170006Ei, symObjAddr: 0x9C0, symBinAddr: 0x100002F78, symSize: 0x34 }
  - { offsetInCU: 0xC39EF, offset: 0xC39EF, size: 0x8, addend: 0x0, symName: __ZNSt3__114numeric_limitsImE3maxB8ue170006Ev, symObjAddr: 0x9F4, symBinAddr: 0x100002FAC, symSize: 0x14 }
  - { offsetInCU: 0xC3A03, offset: 0xC3A03, size: 0x8, addend: 0x0, symName: __ZNSt3__16atomicIbEC1B8ue170006Eb, symObjAddr: 0xA08, symBinAddr: 0x100002FC0, symSize: 0x40 }
  - { offsetInCU: 0xC3A3B, offset: 0xC3A3B, size: 0x8, addend: 0x0, symName: __ZNSt3__16vectorIN7httplib6Server15MountPointEntryENS_9allocatorIS3_EEEC1B8ue170006Ev, symObjAddr: 0xA48, symBinAddr: 0x100003000, symSize: 0x2C }
  - { offsetInCU: 0xC3A65, offset: 0xC3A65, size: 0x8, addend: 0x0, symName: __ZNSt3__13mapINS_12basic_stringIcNS_11char_traitsIcEENS_9allocatorIcEEEES6_NS_4lessIS6_EENS4_INS_4pairIKS6_S6_EEEEEC1B8ue170006Ev, symObjAddr: 0xA74, symBinAddr: 0x10000302C, symSize: 0x2C }
  - { offsetInCU: 0xC3A8F, offset: 0xC3A8F, size: 0x8, addend: 0x0, symName: __ZNSt3__18functionIFvRKN7httplib7RequestERNS1_8ResponseEEEC1B8ue170006Ev, symObjAddr: 0xAA0, symBinAddr: 0x100003058, symSize: 0x2C }
  - { offsetInCU: 0xC3AB9, offset: 0xC3AB9, size: 0x8, addend: 0x0, symName: __ZNSt3__16vectorINS_4pairINS_10unique_ptrIN7httplib6detail11MatcherBaseENS_14default_deleteIS5_EEEENS_8functionIFvRKNS3_7RequestERNS3_8ResponseEEEEEENS_9allocatorISH_EEEC1B8ue170006Ev, symObjAddr: 0xACC, symBinAddr: 0x100003084, symSize: 0x2C }
  - { offsetInCU: 0xC3AE3, offset: 0xC3AE3, size: 0x8, addend: 0x0, symName: __ZNSt3__16vectorINS_4pairINS_10unique_ptrIN7httplib6detail11MatcherBaseENS_14default_deleteIS5_EEEENS_8functionIFvRKNS3_7RequestERNS3_8ResponseERKNS3_13ContentReaderEEEEEENS_9allocatorISK_EEEC1B8ue170006Ev, symObjAddr: 0xAF8, symBinAddr: 0x1000030B0, symSize: 0x2C }
  - { offsetInCU: 0xC3B0D, offset: 0xC3B0D, size: 0x8, addend: 0x0, symName: __ZNSt3__18functionIFN7httplib6Server15HandlerResponseERKNS1_7RequestERNS1_8ResponseEEEC1B8ue170006Ev, symObjAddr: 0xB24, symBinAddr: 0x1000030DC, symSize: 0x2C }
  - { offsetInCU: 0xC3B37, offset: 0xC3B37, size: 0x8, addend: 0x0, symName: __ZNSt3__18functionIFvRKN7httplib7RequestERNS1_8ResponseESt13exception_ptrEEC1B8ue170006Ev, symObjAddr: 0xB50, symBinAddr: 0x100003108, symSize: 0x2C }
  - { offsetInCU: 0xC3B61, offset: 0xC3B61, size: 0x8, addend: 0x0, symName: __ZNSt3__18functionIFiRKN7httplib7RequestERNS1_8ResponseEEEC1B8ue170006Ev, symObjAddr: 0xB7C, symBinAddr: 0x100003134, symSize: 0x2C }
  - { offsetInCU: 0xC3B8B, offset: 0xC3B8B, size: 0x8, addend: 0x0, symName: __ZNSt3__18functionIFvRKN7httplib7RequestERKNS1_8ResponseEEEC1B8ue170006Ev, symObjAddr: 0xBA8, symBinAddr: 0x100003160, symSize: 0x2C }
  - { offsetInCU: 0xC3BB5, offset: 0xC3BB5, size: 0x8, addend: 0x0, symName: __ZNSt3__18functionIFviEEC1IPS1_vEET_, symObjAddr: 0xC10, symBinAddr: 0x1000031C8, symSize: 0x34 }
  - { offsetInCU: 0xC3BFA, offset: 0xC3BFA, size: 0x8, addend: 0x0, symName: __ZNSt3__18multimapINS_12basic_stringIcNS_11char_traitsIcEENS_9allocatorIcEEEES6_N7httplib6detail2ciENS4_INS_4pairIKS6_S6_EEEEEC1B8ue170006Ev, symObjAddr: 0xC44, symBinAddr: 0x1000031FC, symSize: 0x2C }
  - { offsetInCU: 0xC3C24, offset: 0xC3C24, size: 0x8, addend: 0x0, symName: __ZNSt3__18functionIFlRN7httplib6StreamERNS_8multimapINS_12basic_stringIcNS_11char_traitsIcEENS_9allocatorIcEEEESA_NS1_6detail2ciENS8_INS_4pairIKSA_SA_EEEEEEEEC1IPFlS3_RKSH_EvEET_, symObjAddr: 0xDB8, symBinAddr: 0x100003370, symSize: 0x34 }
  - { offsetInCU: 0xC3C69, offset: 0xC3C69, size: 0x8, addend: 0x0, symName: __ZNSt3__18functionIFlRN7httplib6StreamERNS_8multimapINS_12basic_stringIcNS_11char_traitsIcEENS_9allocatorIcEEEESA_NS1_6detail2ciENS8_INS_4pairIKSA_SA_EEEEEEEED1Ev, symObjAddr: 0xDEC, symBinAddr: 0x1000033A4, symSize: 0x2C }
  - { offsetInCU: 0xC3C95, offset: 0xC3C95, size: 0x8, addend: 0x0, symName: __ZNSt3__18multimapINS_12basic_stringIcNS_11char_traitsIcEENS_9allocatorIcEEEES6_N7httplib6detail2ciENS4_INS_4pairIKS6_S6_EEEEED1B8ue170006Ev, symObjAddr: 0xE18, symBinAddr: 0x1000033D0, symSize: 0x2C }
  - { offsetInCU: 0xC3CBF, offset: 0xC3CBF, size: 0x8, addend: 0x0, symName: __ZNSt3__18functionIFviEED1Ev, symObjAddr: 0xE44, symBinAddr: 0x1000033FC, symSize: 0x2C }
  - { offsetInCU: 0xC3CEB, offset: 0xC3CEB, size: 0x8, addend: 0x0, symName: __ZNSt3__18functionIFvRKN7httplib7RequestERKNS1_8ResponseEEED1Ev, symObjAddr: 0xE70, symBinAddr: 0x100003428, symSize: 0x2C }
  - { offsetInCU: 0xC3D17, offset: 0xC3D17, size: 0x8, addend: 0x0, symName: __ZNSt3__18functionIFiRKN7httplib7RequestERNS1_8ResponseEEED1Ev, symObjAddr: 0xE9C, symBinAddr: 0x100003454, symSize: 0x2C }
  - { offsetInCU: 0xC3D43, offset: 0xC3D43, size: 0x8, addend: 0x0, symName: __ZNSt3__18functionIFN7httplib6Server15HandlerResponseERKNS1_7RequestERNS1_8ResponseEEED1Ev, symObjAddr: 0xEC8, symBinAddr: 0x100003480, symSize: 0x2C }
  - { offsetInCU: 0xC3D6F, offset: 0xC3D6F, size: 0x8, addend: 0x0, symName: __ZNSt3__18functionIFvRKN7httplib7RequestERNS1_8ResponseESt13exception_ptrEED1Ev, symObjAddr: 0xEF4, symBinAddr: 0x1000034AC, symSize: 0x2C }
  - { offsetInCU: 0xC3D9B, offset: 0xC3D9B, size: 0x8, addend: 0x0, symName: __ZNSt3__16vectorINS_4pairINS_10unique_ptrIN7httplib6detail11MatcherBaseENS_14default_deleteIS5_EEEENS_8functionIFvRKNS3_7RequestERNS3_8ResponseEEEEEENS_9allocatorISH_EEED1B8ue170006Ev, symObjAddr: 0xF20, symBinAddr: 0x1000034D8, symSize: 0x2C }
  - { offsetInCU: 0xC3DC5, offset: 0xC3DC5, size: 0x8, addend: 0x0, symName: __ZNSt3__16vectorINS_4pairINS_10unique_ptrIN7httplib6detail11MatcherBaseENS_14default_deleteIS5_EEEENS_8functionIFvRKNS3_7RequestERNS3_8ResponseERKNS3_13ContentReaderEEEEEENS_9allocatorISK_EEED1B8ue170006Ev, symObjAddr: 0xF4C, symBinAddr: 0x100003504, symSize: 0x2C }
  - { offsetInCU: 0xC3DEF, offset: 0xC3DEF, size: 0x8, addend: 0x0, symName: __ZNSt3__13mapINS_12basic_stringIcNS_11char_traitsIcEENS_9allocatorIcEEEES6_NS_4lessIS6_EENS4_INS_4pairIKS6_S6_EEEEED1B8ue170006Ev, symObjAddr: 0xF78, symBinAddr: 0x100003530, symSize: 0x2C }
  - { offsetInCU: 0xC3E19, offset: 0xC3E19, size: 0x8, addend: 0x0, symName: __ZNSt3__16vectorIN7httplib6Server15MountPointEntryENS_9allocatorIS3_EEED1B8ue170006Ev, symObjAddr: 0xFA4, symBinAddr: 0x10000355C, symSize: 0x2C }
  - { offsetInCU: 0xC3E43, offset: 0xC3E43, size: 0x8, addend: 0x0, symName: __ZNSt3__18functionIFPN7httplib9TaskQueueEvEED1Ev, symObjAddr: 0xFD0, symBinAddr: 0x100003588, symSize: 0x2C }
  - { offsetInCU: 0xC3E6F, offset: 0xC3E6F, size: 0x8, addend: 0x0, symName: __ZN7httplib6ServerD0Ev, symObjAddr: 0xFFC, symBinAddr: 0x1000035B4, symSize: 0x30 }
  - { offsetInCU: 0xC3E9B, offset: 0xC3E9B, size: 0x8, addend: 0x0, symName: __ZNK7httplib6Server8is_validEv, symObjAddr: 0x102C, symBinAddr: 0x1000035E4, symSize: 0x18 }
  - { offsetInCU: 0xC3EC3, offset: 0xC3EC3, size: 0x8, addend: 0x0, symName: __ZN7httplib6Server24process_and_close_socketEi, symObjAddr: 0x1044, symBinAddr: 0x1000035FC, symSize: 0x80 }
  - { offsetInCU: 0xC3F42, offset: 0xC3F42, size: 0x8, addend: 0x0, symName: __ZNSt3__18functionIFPN7httplib9TaskQueueEvEEC2IZNS1_6ServerC1EvEUlvE_vEET_, symObjAddr: 0x10C4, symBinAddr: 0x10000367C, symSize: 0x30 }
  - { offsetInCU: 0xC3F87, offset: 0xC3F87, size: 0x8, addend: 0x0, symName: __ZNSt3__110__function12__value_funcIFPN7httplib9TaskQueueEvEEC1B8ue170006IZNS2_6ServerC1EvEUlvE_vEEOT_, symObjAddr: 0x10F4, symBinAddr: 0x1000036AC, symSize: 0x50 }
  - { offsetInCU: 0xC3FCA, offset: 0xC3FCA, size: 0x8, addend: 0x0, symName: __ZNSt3__19allocatorIZN7httplib6ServerC1EvEUlvE_EC1B8ue170006Ev, symObjAddr: 0x1144, symBinAddr: 0x1000036FC, symSize: 0x2C }
  - { offsetInCU: 0xC3FF4, offset: 0xC3FF4, size: 0x8, addend: 0x0, symName: __ZNSt3__110__function12__value_funcIFPN7httplib9TaskQueueEvEEC1B8ue170006IZNS2_6ServerC1EvEUlvE_NS_9allocatorIS9_EEEEOT_RKT0_, symObjAddr: 0x1170, symBinAddr: 0x100003728, symSize: 0x3C }
  - { offsetInCU: 0xC404E, offset: 0xC404E, size: 0x8, addend: 0x0, symName: __ZNSt3__19allocatorIZN7httplib6ServerC1EvEUlvE_EC2B8ue170006Ev, symObjAddr: 0x11AC, symBinAddr: 0x100003764, symSize: 0x2C }
  - { offsetInCU: 0xC4078, offset: 0xC4078, size: 0x8, addend: 0x0, symName: __ZNSt3__116__non_trivial_ifILb1ENS_9allocatorIZN7httplib6ServerC1EvEUlvE_EEEC2B8ue170006Ev, symObjAddr: 0x11D8, symBinAddr: 0x100003790, symSize: 0x14 }
  - { offsetInCU: 0xC40A2, offset: 0xC40A2, size: 0x8, addend: 0x0, symName: __ZNSt3__110__function12__value_funcIFPN7httplib9TaskQueueEvEEC2B8ue170006IZNS2_6ServerC1EvEUlvE_NS_9allocatorIS9_EEEEOT_RKT0_, symObjAddr: 0x11EC, symBinAddr: 0x1000037A4, symSize: 0x94 }
  - { offsetInCU: 0xC4150, offset: 0xC4150, size: 0x8, addend: 0x0, symName: __ZNSt3__19allocatorINS_10__function6__funcIZN7httplib6ServerC1EvEUlvE_NS0_IS5_EEFPNS3_9TaskQueueEvEEEEC1B8ue170006IS5_EERKNS0_IT_EE, symObjAddr: 0x1298, symBinAddr: 0x100003850, symSize: 0x34 }
  - { offsetInCU: 0xC4193, offset: 0xC4193, size: 0x8, addend: 0x0, symName: __ZNSt3__19allocatorIZN7httplib6ServerC1EvEUlvE_EC1B8ue170006INS_10__function6__funcIS3_S4_FPNS1_9TaskQueueEvEEEEERKNS0_IT_EE, symObjAddr: 0x12CC, symBinAddr: 0x100003884, symSize: 0x34 }
  - { offsetInCU: 0xC41D0, offset: 0xC41D0, size: 0x8, addend: 0x0, symName: __ZNSt3__110__function6__funcIZN7httplib6ServerC1EvEUlvE_NS_9allocatorIS4_EEFPNS2_9TaskQueueEvEEC1B8ue170006EOS4_OS6_, symObjAddr: 0x1300, symBinAddr: 0x1000038B8, symSize: 0x3C }
  - { offsetInCU: 0xC4218, offset: 0xC4218, size: 0x8, addend: 0x0, symName: __ZNSt3__19allocatorINS_10__function6__funcIZN7httplib6ServerC1EvEUlvE_NS0_IS5_EEFPNS3_9TaskQueueEvEEEEC2B8ue170006IS5_EERKNS0_IT_EE, symObjAddr: 0x133C, symBinAddr: 0x1000038F4, symSize: 0x30 }
  - { offsetInCU: 0xC4255, offset: 0xC4255, size: 0x8, addend: 0x0, symName: __ZNSt3__116__non_trivial_ifILb1ENS_9allocatorINS_10__function6__funcIZN7httplib6ServerC1EvEUlvE_NS1_IS6_EEFPNS4_9TaskQueueEvEEEEEEC2B8ue170006Ev, symObjAddr: 0x136C, symBinAddr: 0x100003924, symSize: 0x14 }
  - { offsetInCU: 0xC427F, offset: 0xC427F, size: 0x8, addend: 0x0, symName: __ZNSt3__19allocatorIZN7httplib6ServerC1EvEUlvE_EC2B8ue170006INS_10__function6__funcIS3_S4_FPNS1_9TaskQueueEvEEEEERKNS0_IT_EE, symObjAddr: 0x1380, symBinAddr: 0x100003938, symSize: 0x30 }
  - { offsetInCU: 0xC42BC, offset: 0xC42BC, size: 0x8, addend: 0x0, symName: __ZNSt3__110__function6__funcIZN7httplib6ServerC1EvEUlvE_NS_9allocatorIS4_EEFPNS2_9TaskQueueEvEEC2B8ue170006EOS4_OS6_, symObjAddr: 0x13B0, symBinAddr: 0x100003968, symSize: 0x88 }
  - { offsetInCU: 0xC4304, offset: 0xC4304, size: 0x8, addend: 0x0, symName: __ZNSt3__110__function6__baseIFPN7httplib9TaskQueueEvEEC2B8ue170006Ev, symObjAddr: 0x1438, symBinAddr: 0x1000039F0, symSize: 0x24 }
  - { offsetInCU: 0xC432E, offset: 0xC432E, size: 0x8, addend: 0x0, symName: __ZNSt3__110__function12__alloc_funcIZN7httplib6ServerC1EvEUlvE_NS_9allocatorIS4_EEFPNS2_9TaskQueueEvEEC1B8ue170006EOS4_OS6_, symObjAddr: 0x145C, symBinAddr: 0x100003A14, symSize: 0x3C }
  - { offsetInCU: 0xC4374, offset: 0xC4374, size: 0x8, addend: 0x0, symName: __ZNSt3__110__function6__baseIFPN7httplib9TaskQueueEvEED2Ev, symObjAddr: 0x1498, symBinAddr: 0x100003A50, symSize: 0x14 }
  - { offsetInCU: 0xC439E, offset: 0xC439E, size: 0x8, addend: 0x0, symName: __ZNSt3__110__function6__funcIZN7httplib6ServerC1EvEUlvE_NS_9allocatorIS4_EEFPNS2_9TaskQueueEvEED1Ev, symObjAddr: 0x14AC, symBinAddr: 0x100003A64, symSize: 0x2C }
  - { offsetInCU: 0xC43CB, offset: 0xC43CB, size: 0x8, addend: 0x0, symName: __ZNSt3__110__function6__funcIZN7httplib6ServerC1EvEUlvE_NS_9allocatorIS4_EEFPNS2_9TaskQueueEvEED0Ev, symObjAddr: 0x14D8, symBinAddr: 0x100003A90, symSize: 0x30 }
  - { offsetInCU: 0xC43F8, offset: 0xC43F8, size: 0x8, addend: 0x0, symName: __ZNKSt3__110__function6__funcIZN7httplib6ServerC1EvEUlvE_NS_9allocatorIS4_EEFPNS2_9TaskQueueEvEE7__cloneEv, symObjAddr: 0x1508, symBinAddr: 0x100003AC0, symSize: 0xFC }
  - { offsetInCU: 0xC444C, offset: 0xC444C, size: 0x8, addend: 0x0, symName: __ZNKSt3__110__function6__funcIZN7httplib6ServerC1EvEUlvE_NS_9allocatorIS4_EEFPNS2_9TaskQueueEvEE7__cloneEPNS0_6__baseIS9_EE, symObjAddr: 0x1604, symBinAddr: 0x100003BBC, symSize: 0x58 }
  - { offsetInCU: 0xC4483, offset: 0xC4483, size: 0x8, addend: 0x0, symName: __ZNSt3__110__function6__funcIZN7httplib6ServerC1EvEUlvE_NS_9allocatorIS4_EEFPNS2_9TaskQueueEvEE7destroyEv, symObjAddr: 0x165C, symBinAddr: 0x100003C14, symSize: 0x28 }
  - { offsetInCU: 0xC44AB, offset: 0xC44AB, size: 0x8, addend: 0x0, symName: __ZNSt3__110__function6__funcIZN7httplib6ServerC1EvEUlvE_NS_9allocatorIS4_EEFPNS2_9TaskQueueEvEE18destroy_deallocateEv, symObjAddr: 0x1684, symBinAddr: 0x100003C3C, symSize: 0x58 }
  - { offsetInCU: 0xC44EF, offset: 0xC44EF, size: 0x8, addend: 0x0, symName: __ZNSt3__110__function6__funcIZN7httplib6ServerC1EvEUlvE_NS_9allocatorIS4_EEFPNS2_9TaskQueueEvEEclEv, symObjAddr: 0x16DC, symBinAddr: 0x100003C94, symSize: 0x28 }
  - { offsetInCU: 0xC4517, offset: 0xC4517, size: 0x8, addend: 0x0, symName: __ZNKSt3__110__function6__funcIZN7httplib6ServerC1EvEUlvE_NS_9allocatorIS4_EEFPNS2_9TaskQueueEvEE6targetERKSt9type_info, symObjAddr: 0x1704, symBinAddr: 0x100003CBC, symSize: 0x60 }
  - { offsetInCU: 0xC454E, offset: 0xC454E, size: 0x8, addend: 0x0, symName: __ZNKSt3__110__function6__funcIZN7httplib6ServerC1EvEUlvE_NS_9allocatorIS4_EEFPNS2_9TaskQueueEvEE11target_typeEv, symObjAddr: 0x1764, symBinAddr: 0x100003D1C, symSize: 0x18 }
  - { offsetInCU: 0xC4576, offset: 0xC4576, size: 0x8, addend: 0x0, symName: __ZNSt3__110__function6__baseIFPN7httplib9TaskQueueEvEED1Ev, symObjAddr: 0x177C, symBinAddr: 0x100003D34, symSize: 0x14 }
  - { offsetInCU: 0xC45A0, offset: 0xC45A0, size: 0x8, addend: 0x0, symName: __ZNSt3__110__function6__baseIFPN7httplib9TaskQueueEvEED0Ev, symObjAddr: 0x1790, symBinAddr: 0x100003D48, symSize: 0xC }
  - { offsetInCU: 0xC45CA, offset: 0xC45CA, size: 0x8, addend: 0x0, symName: __ZNSt3__110__function12__alloc_funcIZN7httplib6ServerC1EvEUlvE_NS_9allocatorIS4_EEFPNS2_9TaskQueueEvEEC2B8ue170006EOS4_OS6_, symObjAddr: 0x179C, symBinAddr: 0x100003D54, symSize: 0x5C }
  - { offsetInCU: 0xC4610, offset: 0xC4610, size: 0x8, addend: 0x0, symName: __ZNSt3__117__compressed_pairIZN7httplib6ServerC1EvEUlvE_NS_9allocatorIS3_EEEC1B8ue170006IJOS3_EJOS5_EEENS_21piecewise_construct_tENS_5tupleIJDpT_EEENSB_IJDpT0_EEE, symObjAddr: 0x1850, symBinAddr: 0x100003E08, symSize: 0x3C }
  - { offsetInCU: 0xC467A, offset: 0xC467A, size: 0x8, addend: 0x0, symName: __ZNSt3__15tupleIJOZN7httplib6ServerC1EvEUlvE_EEC1B8ue170006IJS3_ELi0EEEDpOT_, symObjAddr: 0x188C, symBinAddr: 0x100003E44, symSize: 0x34 }
  - { offsetInCU: 0xC46C4, offset: 0xC46C4, size: 0x8, addend: 0x0, symName: __ZNSt3__15tupleIJOZN7httplib6ServerC1EvEUlvE_EEC2B8ue170006IJS3_ELi0EEEDpOT_, symObjAddr: 0x18C0, symBinAddr: 0x100003E78, symSize: 0x34 }
  - { offsetInCU: 0xC470E, offset: 0xC470E, size: 0x8, addend: 0x0, symName: __ZNSt3__112__tuple_implINS_15__tuple_indicesIJLm0EEEEJOZN7httplib6ServerC1EvEUlvE_EEC1B8ue170006IJLm0EEJS6_EJEJEJS5_EEENS1_IJXspT_EEEENS_13__tuple_typesIJDpT0_EEENS1_IJXspT1_EEEENSA_IJDpT2_EEEDpOT3_, symObjAddr: 0x18F4, symBinAddr: 0x100003EAC, symSize: 0x34 }
  - { offsetInCU: 0xC47A3, offset: 0xC47A3, size: 0x8, addend: 0x0, symName: __ZNSt3__112__tuple_implINS_15__tuple_indicesIJLm0EEEEJOZN7httplib6ServerC1EvEUlvE_EEC2B8ue170006IJLm0EEJS6_EJEJEJS5_EEENS1_IJXspT_EEEENS_13__tuple_typesIJDpT0_EEENS1_IJXspT1_EEEENSA_IJDpT2_EEEDpOT3_, symObjAddr: 0x1928, symBinAddr: 0x100003EE0, symSize: 0x34 }
  - { offsetInCU: 0xC4838, offset: 0xC4838, size: 0x8, addend: 0x0, symName: __ZNSt3__112__tuple_leafILm0EOZN7httplib6ServerC1EvEUlvE_Lb0EEC2B8ue170006IS3_vEEOT_, symObjAddr: 0x195C, symBinAddr: 0x100003F14, symSize: 0x20 }
  - { offsetInCU: 0xC487B, offset: 0xC487B, size: 0x8, addend: 0x0, symName: __ZNSt3__15tupleIJONS_9allocatorIZN7httplib6ServerC1EvEUlvE_EEEEC1B8ue170006IJS5_ELi0EEEDpOT_, symObjAddr: 0x197C, symBinAddr: 0x100003F34, symSize: 0x34 }
  - { offsetInCU: 0xC48C5, offset: 0xC48C5, size: 0x8, addend: 0x0, symName: __ZNSt3__15tupleIJONS_9allocatorIZN7httplib6ServerC1EvEUlvE_EEEEC2B8ue170006IJS5_ELi0EEEDpOT_, symObjAddr: 0x19B0, symBinAddr: 0x100003F68, symSize: 0x34 }
  - { offsetInCU: 0xC490F, offset: 0xC490F, size: 0x8, addend: 0x0, symName: __ZNSt3__112__tuple_implINS_15__tuple_indicesIJLm0EEEEJONS_9allocatorIZN7httplib6ServerC1EvEUlvE_EEEEC1B8ue170006IJLm0EEJS8_EJEJEJS7_EEENS1_IJXspT_EEEENS_13__tuple_typesIJDpT0_EEENS1_IJXspT1_EEEENSC_IJDpT2_EEEDpOT3_, symObjAddr: 0x19E4, symBinAddr: 0x100003F9C, symSize: 0x34 }
  - { offsetInCU: 0xC49A4, offset: 0xC49A4, size: 0x8, addend: 0x0, symName: __ZNSt3__112__tuple_implINS_15__tuple_indicesIJLm0EEEEJONS_9allocatorIZN7httplib6ServerC1EvEUlvE_EEEEC2B8ue170006IJLm0EEJS8_EJEJEJS7_EEENS1_IJXspT_EEEENS_13__tuple_typesIJDpT0_EEENS1_IJXspT1_EEEENSC_IJDpT2_EEEDpOT3_, symObjAddr: 0x1A18, symBinAddr: 0x100003FD0, symSize: 0x34 }
  - { offsetInCU: 0xC4A39, offset: 0xC4A39, size: 0x8, addend: 0x0, symName: __ZNSt3__112__tuple_leafILm0EONS_9allocatorIZN7httplib6ServerC1EvEUlvE_EELb0EEC2B8ue170006IS5_vEEOT_, symObjAddr: 0x1A4C, symBinAddr: 0x100004004, symSize: 0x20 }
  - { offsetInCU: 0xC4A7C, offset: 0xC4A7C, size: 0x8, addend: 0x0, symName: __ZNSt3__117__compressed_pairIZN7httplib6ServerC1EvEUlvE_NS_9allocatorIS3_EEEC2B8ue170006IJOS3_EJOS5_EEENS_21piecewise_construct_tENS_5tupleIJDpT_EEENSB_IJDpT0_EEE, symObjAddr: 0x1A6C, symBinAddr: 0x100004024, symSize: 0x54 }
  - { offsetInCU: 0xC4AE6, offset: 0xC4AE6, size: 0x8, addend: 0x0, symName: __ZNSt3__122__compressed_pair_elemIZN7httplib6ServerC1EvEUlvE_Li0ELb1EEC2B8ue170006IJOS3_EJLm0EEEENS_21piecewise_construct_tENS_5tupleIJDpT_EEENS_15__tuple_indicesIJXspT0_EEEE, symObjAddr: 0x1AC0, symBinAddr: 0x100004078, symSize: 0x38 }
  - { offsetInCU: 0xC4B49, offset: 0xC4B49, size: 0x8, addend: 0x0, symName: __ZNSt3__122__compressed_pair_elemINS_9allocatorIZN7httplib6ServerC1EvEUlvE_EELi1ELb1EEC2B8ue170006IJOS5_EJLm0EEEENS_21piecewise_construct_tENS_5tupleIJDpT_EEENS_15__tuple_indicesIJXspT0_EEEE, symObjAddr: 0x1AF8, symBinAddr: 0x1000040B0, symSize: 0x38 }
  - { offsetInCU: 0xC4BAC, offset: 0xC4BAC, size: 0x8, addend: 0x0, symName: __ZNSt3__112__tuple_leafILm0EOZN7httplib6ServerC1EvEUlvE_Lb0EE3getB8ue170006Ev, symObjAddr: 0x1B54, symBinAddr: 0x10000410C, symSize: 0x18 }
  - { offsetInCU: 0xC4BD2, offset: 0xC4BD2, size: 0x8, addend: 0x0, symName: __ZNSt3__112__tuple_leafILm0EONS_9allocatorIZN7httplib6ServerC1EvEUlvE_EELb0EE3getB8ue170006Ev, symObjAddr: 0x1B90, symBinAddr: 0x100004148, symSize: 0x18 }
  - { offsetInCU: 0xC4BF8, offset: 0xC4BF8, size: 0x8, addend: 0x0, symName: __ZNSt3__110__function6__funcIZN7httplib6ServerC1EvEUlvE_NS_9allocatorIS4_EEFPNS2_9TaskQueueEvEED2Ev, symObjAddr: 0x1BA8, symBinAddr: 0x100004160, symSize: 0x2C }
  - { offsetInCU: 0xC4C25, offset: 0xC4C25, size: 0x8, addend: 0x0, symName: __ZNKSt3__110__function12__alloc_funcIZN7httplib6ServerC1EvEUlvE_NS_9allocatorIS4_EEFPNS2_9TaskQueueEvEE15__get_allocatorB8ue170006Ev, symObjAddr: 0x1BD4, symBinAddr: 0x10000418C, symSize: 0x24 }
  - { offsetInCU: 0xC4C4B, offset: 0xC4C4B, size: 0x8, addend: 0x0, symName: __ZNSt3__19allocatorINS_10__function6__funcIZN7httplib6ServerC1EvEUlvE_NS0_IS5_EEFPNS3_9TaskQueueEvEEEE8allocateB8ue170006Em, symObjAddr: 0x1BF8, symBinAddr: 0x1000041B0, symSize: 0x58 }
  - { offsetInCU: 0xC4C91, offset: 0xC4C91, size: 0x8, addend: 0x0, symName: __ZNSt3__122__allocator_destructorINS_9allocatorINS_10__function6__funcIZN7httplib6ServerC1EvEUlvE_NS1_IS6_EEFPNS4_9TaskQueueEvEEEEEEC1B8ue170006ERSC_m, symObjAddr: 0x1C50, symBinAddr: 0x100004208, symSize: 0x3C }
  - { offsetInCU: 0xC4D78, offset: 0xC4D78, size: 0x8, addend: 0x0, symName: __ZNSt3__110unique_ptrINS_10__function6__funcIZN7httplib6ServerC1EvEUlvE_NS_9allocatorIS5_EEFPNS3_9TaskQueueEvEEENS_22__allocator_destructorINS6_ISB_EEEEEC1B8ue170006ILb1EvEEPSB_NS_16__dependent_typeINS_27__unique_ptr_deleter_sfinaeISE_EEXT_EE20__good_rval_ref_typeE, symObjAddr: 0x1C8C, symBinAddr: 0x100004244, symSize: 0x3C }
  - { offsetInCU: 0xC4DC9, offset: 0xC4DC9, size: 0x8, addend: 0x0, symName: __ZNKSt3__110unique_ptrINS_10__function6__funcIZN7httplib6ServerC1EvEUlvE_NS_9allocatorIS5_EEFPNS3_9TaskQueueEvEEENS_22__allocator_destructorINS6_ISB_EEEEE3getB8ue170006Ev, symObjAddr: 0x1CC8, symBinAddr: 0x100004280, symSize: 0x28 }
  - { offsetInCU: 0xC4DEF, offset: 0xC4DEF, size: 0x8, addend: 0x0, symName: __ZNKSt3__110__function12__alloc_funcIZN7httplib6ServerC1EvEUlvE_NS_9allocatorIS4_EEFPNS2_9TaskQueueEvEE8__targetB8ue170006Ev, symObjAddr: 0x1CF0, symBinAddr: 0x1000042A8, symSize: 0x24 }
  - { offsetInCU: 0xC4E15, offset: 0xC4E15, size: 0x8, addend: 0x0, symName: __ZNSt3__110__function6__funcIZN7httplib6ServerC1EvEUlvE_NS_9allocatorIS4_EEFPNS2_9TaskQueueEvEEC1B8ue170006ERKS4_OS6_, symObjAddr: 0x1D14, symBinAddr: 0x1000042CC, symSize: 0x3C }
  - { offsetInCU: 0xC4E5D, offset: 0xC4E5D, size: 0x8, addend: 0x0, symName: __ZNSt3__110unique_ptrINS_10__function6__funcIZN7httplib6ServerC1EvEUlvE_NS_9allocatorIS5_EEFPNS3_9TaskQueueEvEEENS_22__allocator_destructorINS6_ISB_EEEEE7releaseB8ue170006Ev, symObjAddr: 0x1D50, symBinAddr: 0x100004308, symSize: 0x44 }
  - { offsetInCU: 0xC4E93, offset: 0xC4E93, size: 0x8, addend: 0x0, symName: __ZNSt3__110unique_ptrINS_10__function6__funcIZN7httplib6ServerC1EvEUlvE_NS_9allocatorIS5_EEFPNS3_9TaskQueueEvEEENS_22__allocator_destructorINS6_ISB_EEEEED1B8ue170006Ev, symObjAddr: 0x1D94, symBinAddr: 0x10000434C, symSize: 0x2C }
  - { offsetInCU: 0xC4EBD, offset: 0xC4EBD, size: 0x8, addend: 0x0, symName: __ZNKSt3__117__compressed_pairIZN7httplib6ServerC1EvEUlvE_NS_9allocatorIS3_EEE6secondB8ue170006Ev, symObjAddr: 0x1DC0, symBinAddr: 0x100004378, symSize: 0x24 }
  - { offsetInCU: 0xC4EE3, offset: 0xC4EE3, size: 0x8, addend: 0x0, symName: __ZNKSt3__122__compressed_pair_elemINS_9allocatorIZN7httplib6ServerC1EvEUlvE_EELi1ELb1EE5__getB8ue170006Ev, symObjAddr: 0x1DE4, symBinAddr: 0x10000439C, symSize: 0x14 }
  - { offsetInCU: 0xC4F14, offset: 0xC4F14, size: 0x8, addend: 0x0, symName: __ZNSt3__116allocator_traitsINS_9allocatorINS_10__function6__funcIZN7httplib6ServerC1EvEUlvE_NS1_IS6_EEFPNS4_9TaskQueueEvEEEEEE8max_sizeB8ue170006ISC_vEEmRKSC_, symObjAddr: 0x1DF8, symBinAddr: 0x1000043B0, symSize: 0x24 }
  - { offsetInCU: 0xC4F42, offset: 0xC4F42, size: 0x8, addend: 0x0, symName: __ZNKSt3__19allocatorINS_10__function6__funcIZN7httplib6ServerC1EvEUlvE_NS0_IS5_EEFPNS3_9TaskQueueEvEEEE8max_sizeB8ue170006Ev, symObjAddr: 0x1E78, symBinAddr: 0x100004430, symSize: 0x14 }
  - { offsetInCU: 0xC4F68, offset: 0xC4F68, size: 0x8, addend: 0x0, symName: __ZNSt3__122__allocator_destructorINS_9allocatorINS_10__function6__funcIZN7httplib6ServerC1EvEUlvE_NS1_IS6_EEFPNS4_9TaskQueueEvEEEEEEC2B8ue170006ERSC_m, symObjAddr: 0x1EB0, symBinAddr: 0x100004468, symSize: 0x2C }
  - { offsetInCU: 0xC4FAE, offset: 0xC4FAE, size: 0x8, addend: 0x0, symName: __ZNSt3__110unique_ptrINS_10__function6__funcIZN7httplib6ServerC1EvEUlvE_NS_9allocatorIS5_EEFPNS3_9TaskQueueEvEEENS_22__allocator_destructorINS6_ISB_EEEEEC2B8ue170006ILb1EvEEPSB_NS_16__dependent_typeINS_27__unique_ptr_deleter_sfinaeISE_EEXT_EE20__good_rval_ref_typeE, symObjAddr: 0x1EDC, symBinAddr: 0x100004494, symSize: 0x48 }
  - { offsetInCU: 0xC4FFF, offset: 0xC4FFF, size: 0x8, addend: 0x0, symName: __ZNSt3__117__compressed_pairIPNS_10__function6__funcIZN7httplib6ServerC1EvEUlvE_NS_9allocatorIS5_EEFPNS3_9TaskQueueEvEEENS_22__allocator_destructorINS6_ISB_EEEEEC1B8ue170006IRSC_SF_EEOT_OT0_, symObjAddr: 0x1F24, symBinAddr: 0x1000044DC, symSize: 0x3C }
  - { offsetInCU: 0xC5057, offset: 0xC5057, size: 0x8, addend: 0x0, symName: __ZNSt3__117__compressed_pairIPNS_10__function6__funcIZN7httplib6ServerC1EvEUlvE_NS_9allocatorIS5_EEFPNS3_9TaskQueueEvEEENS_22__allocator_destructorINS6_ISB_EEEEEC2B8ue170006IRSC_SF_EEOT_OT0_, symObjAddr: 0x1F6C, symBinAddr: 0x100004524, symSize: 0x48 }
  - { offsetInCU: 0xC50AF, offset: 0xC50AF, size: 0x8, addend: 0x0, symName: __ZNSt3__122__compressed_pair_elemIPNS_10__function6__funcIZN7httplib6ServerC1EvEUlvE_NS_9allocatorIS5_EEFPNS3_9TaskQueueEvEEELi0ELb0EEC2B8ue170006IRSC_vEEOT_, symObjAddr: 0x1FB4, symBinAddr: 0x10000456C, symSize: 0x24 }
  - { offsetInCU: 0xC50F1, offset: 0xC50F1, size: 0x8, addend: 0x0, symName: __ZNSt3__122__compressed_pair_elemINS_22__allocator_destructorINS_9allocatorINS_10__function6__funcIZN7httplib6ServerC1EvEUlvE_NS2_IS7_EEFPNS5_9TaskQueueEvEEEEEEELi1ELb0EEC2B8ue170006ISE_vEEOT_, symObjAddr: 0x1FD8, symBinAddr: 0x100004590, symSize: 0x24 }
  - { offsetInCU: 0xC5133, offset: 0xC5133, size: 0x8, addend: 0x0, symName: __ZNKSt3__117__compressed_pairIPNS_10__function6__funcIZN7httplib6ServerC1EvEUlvE_NS_9allocatorIS5_EEFPNS3_9TaskQueueEvEEENS_22__allocator_destructorINS6_ISB_EEEEE5firstB8ue170006Ev, symObjAddr: 0x1FFC, symBinAddr: 0x1000045B4, symSize: 0x24 }
  - { offsetInCU: 0xC5159, offset: 0xC5159, size: 0x8, addend: 0x0, symName: __ZNKSt3__122__compressed_pair_elemIPNS_10__function6__funcIZN7httplib6ServerC1EvEUlvE_NS_9allocatorIS5_EEFPNS3_9TaskQueueEvEEELi0ELb0EE5__getB8ue170006Ev, symObjAddr: 0x2020, symBinAddr: 0x1000045D8, symSize: 0x14 }
  - { offsetInCU: 0xC517F, offset: 0xC517F, size: 0x8, addend: 0x0, symName: __ZNKSt3__117__compressed_pairIZN7httplib6ServerC1EvEUlvE_NS_9allocatorIS3_EEE5firstB8ue170006Ev, symObjAddr: 0x2034, symBinAddr: 0x1000045EC, symSize: 0x24 }
  - { offsetInCU: 0xC51A5, offset: 0xC51A5, size: 0x8, addend: 0x0, symName: __ZNKSt3__122__compressed_pair_elemIZN7httplib6ServerC1EvEUlvE_Li0ELb1EE5__getB8ue170006Ev, symObjAddr: 0x2058, symBinAddr: 0x100004610, symSize: 0x14 }
  - { offsetInCU: 0xC51CB, offset: 0xC51CB, size: 0x8, addend: 0x0, symName: __ZNSt3__110__function6__funcIZN7httplib6ServerC1EvEUlvE_NS_9allocatorIS4_EEFPNS2_9TaskQueueEvEEC2B8ue170006ERKS4_OS6_, symObjAddr: 0x206C, symBinAddr: 0x100004624, symSize: 0x88 }
  - { offsetInCU: 0xC5213, offset: 0xC5213, size: 0x8, addend: 0x0, symName: __ZNSt3__110__function12__alloc_funcIZN7httplib6ServerC1EvEUlvE_NS_9allocatorIS4_EEFPNS2_9TaskQueueEvEEC1B8ue170006ERKS4_OS6_, symObjAddr: 0x20F4, symBinAddr: 0x1000046AC, symSize: 0x3C }
  - { offsetInCU: 0xC5259, offset: 0xC5259, size: 0x8, addend: 0x0, symName: __ZNSt3__110__function12__alloc_funcIZN7httplib6ServerC1EvEUlvE_NS_9allocatorIS4_EEFPNS2_9TaskQueueEvEEC2B8ue170006ERKS4_OS6_, symObjAddr: 0x2130, symBinAddr: 0x1000046E8, symSize: 0x5C }
  - { offsetInCU: 0xC529F, offset: 0xC529F, size: 0x8, addend: 0x0, symName: __ZNSt3__117__compressed_pairIZN7httplib6ServerC1EvEUlvE_NS_9allocatorIS3_EEEC1B8ue170006IJRKS3_EJOS5_EEENS_21piecewise_construct_tENS_5tupleIJDpT_EEENSC_IJDpT0_EEE, symObjAddr: 0x21B8, symBinAddr: 0x100004770, symSize: 0x3C }
  - { offsetInCU: 0xC5309, offset: 0xC5309, size: 0x8, addend: 0x0, symName: __ZNSt3__15tupleIJRKZN7httplib6ServerC1EvEUlvE_EEC1B8ue170006INS_4_AndELi0EEES5_, symObjAddr: 0x21F4, symBinAddr: 0x1000047AC, symSize: 0x34 }
  - { offsetInCU: 0xC5351, offset: 0xC5351, size: 0x8, addend: 0x0, symName: __ZNSt3__15tupleIJRKZN7httplib6ServerC1EvEUlvE_EEC2B8ue170006INS_4_AndELi0EEES5_, symObjAddr: 0x2228, symBinAddr: 0x1000047E0, symSize: 0x34 }
  - { offsetInCU: 0xC5399, offset: 0xC5399, size: 0x8, addend: 0x0, symName: __ZNSt3__112__tuple_implINS_15__tuple_indicesIJLm0EEEEJRKZN7httplib6ServerC1EvEUlvE_EEC1B8ue170006IJLm0EEJS7_EJEJEJS7_EEENS1_IJXspT_EEEENS_13__tuple_typesIJDpT0_EEENS1_IJXspT1_EEEENSB_IJDpT2_EEEDpOT3_, symObjAddr: 0x225C, symBinAddr: 0x100004814, symSize: 0x34 }
  - { offsetInCU: 0xC542E, offset: 0xC542E, size: 0x8, addend: 0x0, symName: __ZNSt3__112__tuple_implINS_15__tuple_indicesIJLm0EEEEJRKZN7httplib6ServerC1EvEUlvE_EEC2B8ue170006IJLm0EEJS7_EJEJEJS7_EEENS1_IJXspT_EEEENS_13__tuple_typesIJDpT0_EEENS1_IJXspT1_EEEENSB_IJDpT2_EEEDpOT3_, symObjAddr: 0x2290, symBinAddr: 0x100004848, symSize: 0x34 }
  - { offsetInCU: 0xC54C3, offset: 0xC54C3, size: 0x8, addend: 0x0, symName: __ZNSt3__112__tuple_leafILm0ERKZN7httplib6ServerC1EvEUlvE_Lb0EEC2B8ue170006IS5_vEEOT_, symObjAddr: 0x22C4, symBinAddr: 0x10000487C, symSize: 0x20 }
  - { offsetInCU: 0xC5506, offset: 0xC5506, size: 0x8, addend: 0x0, symName: __ZNSt3__117__compressed_pairIZN7httplib6ServerC1EvEUlvE_NS_9allocatorIS3_EEEC2B8ue170006IJRKS3_EJOS5_EEENS_21piecewise_construct_tENS_5tupleIJDpT_EEENSC_IJDpT0_EEE, symObjAddr: 0x22E4, symBinAddr: 0x10000489C, symSize: 0x54 }
  - { offsetInCU: 0xC5570, offset: 0xC5570, size: 0x8, addend: 0x0, symName: __ZNSt3__122__compressed_pair_elemIZN7httplib6ServerC1EvEUlvE_Li0ELb1EEC2B8ue170006IJRKS3_EJLm0EEEENS_21piecewise_construct_tENS_5tupleIJDpT_EEENS_15__tuple_indicesIJXspT0_EEEE, symObjAddr: 0x2338, symBinAddr: 0x1000048F0, symSize: 0x38 }
  - { offsetInCU: 0xC55D3, offset: 0xC55D3, size: 0x8, addend: 0x0, symName: __ZNSt3__112__tuple_leafILm0ERKZN7httplib6ServerC1EvEUlvE_Lb0EE3getB8ue170006Ev, symObjAddr: 0x2394, symBinAddr: 0x10000494C, symSize: 0x18 }
  - { offsetInCU: 0xC55F9, offset: 0xC55F9, size: 0x8, addend: 0x0, symName: __ZNSt3__117__compressed_pairIPNS_10__function6__funcIZN7httplib6ServerC1EvEUlvE_NS_9allocatorIS5_EEFPNS3_9TaskQueueEvEEENS_22__allocator_destructorINS6_ISB_EEEEE5firstB8ue170006Ev, symObjAddr: 0x23AC, symBinAddr: 0x100004964, symSize: 0x24 }
  - { offsetInCU: 0xC561F, offset: 0xC561F, size: 0x8, addend: 0x0, symName: __ZNSt3__122__compressed_pair_elemIPNS_10__function6__funcIZN7httplib6ServerC1EvEUlvE_NS_9allocatorIS5_EEFPNS3_9TaskQueueEvEEELi0ELb0EE5__getB8ue170006Ev, symObjAddr: 0x23D0, symBinAddr: 0x100004988, symSize: 0x14 }
  - { offsetInCU: 0xC5645, offset: 0xC5645, size: 0x8, addend: 0x0, symName: __ZNSt3__110unique_ptrINS_10__function6__funcIZN7httplib6ServerC1EvEUlvE_NS_9allocatorIS5_EEFPNS3_9TaskQueueEvEEENS_22__allocator_destructorINS6_ISB_EEEEED2B8ue170006Ev, symObjAddr: 0x23E4, symBinAddr: 0x10000499C, symSize: 0x30 }
  - { offsetInCU: 0xC566F, offset: 0xC566F, size: 0x8, addend: 0x0, symName: __ZNSt3__110unique_ptrINS_10__function6__funcIZN7httplib6ServerC1EvEUlvE_NS_9allocatorIS5_EEFPNS3_9TaskQueueEvEEENS_22__allocator_destructorINS6_ISB_EEEEE5resetB8ue170006EPSB_, symObjAddr: 0x2414, symBinAddr: 0x1000049CC, symSize: 0x78 }
  - { offsetInCU: 0xC56B4, offset: 0xC56B4, size: 0x8, addend: 0x0, symName: __ZNSt3__117__compressed_pairIPNS_10__function6__funcIZN7httplib6ServerC1EvEUlvE_NS_9allocatorIS5_EEFPNS3_9TaskQueueEvEEENS_22__allocator_destructorINS6_ISB_EEEEE6secondB8ue170006Ev, symObjAddr: 0x248C, symBinAddr: 0x100004A44, symSize: 0x28 }
  - { offsetInCU: 0xC56DA, offset: 0xC56DA, size: 0x8, addend: 0x0, symName: __ZNSt3__122__allocator_destructorINS_9allocatorINS_10__function6__funcIZN7httplib6ServerC1EvEUlvE_NS1_IS6_EEFPNS4_9TaskQueueEvEEEEEEclB8ue170006EPSB_, symObjAddr: 0x24B4, symBinAddr: 0x100004A6C, symSize: 0x34 }
  - { offsetInCU: 0xC570E, offset: 0xC570E, size: 0x8, addend: 0x0, symName: __ZNSt3__122__compressed_pair_elemINS_22__allocator_destructorINS_9allocatorINS_10__function6__funcIZN7httplib6ServerC1EvEUlvE_NS2_IS7_EEFPNS5_9TaskQueueEvEEEEEEELi1ELb0EE5__getB8ue170006Ev, symObjAddr: 0x24E8, symBinAddr: 0x100004AA0, symSize: 0x14 }
  - { offsetInCU: 0xC5734, offset: 0xC5734, size: 0x8, addend: 0x0, symName: __ZNSt3__116allocator_traitsINS_9allocatorINS_10__function6__funcIZN7httplib6ServerC1EvEUlvE_NS1_IS6_EEFPNS4_9TaskQueueEvEEEEEE10deallocateB8ue170006ERSC_PSB_m, symObjAddr: 0x24FC, symBinAddr: 0x100004AB4, symSize: 0x34 }
  - { offsetInCU: 0xC5776, offset: 0xC5776, size: 0x8, addend: 0x0, symName: __ZNSt3__19allocatorINS_10__function6__funcIZN7httplib6ServerC1EvEUlvE_NS0_IS5_EEFPNS3_9TaskQueueEvEEEE10deallocateB8ue170006EPSA_m, symObjAddr: 0x2530, symBinAddr: 0x100004AE8, symSize: 0x40 }
  - { offsetInCU: 0xC57B8, offset: 0xC57B8, size: 0x8, addend: 0x0, symName: __ZNSt3__110__function6__funcIZN7httplib6ServerC1EvEUlvE_NS_9allocatorIS4_EEFPNS2_9TaskQueueEvEEC1B8ue170006ERKS4_RKS6_, symObjAddr: 0x25EC, symBinAddr: 0x100004BA4, symSize: 0x3C }
  - { offsetInCU: 0xC5800, offset: 0xC5800, size: 0x8, addend: 0x0, symName: __ZNSt3__110__function6__funcIZN7httplib6ServerC1EvEUlvE_NS_9allocatorIS4_EEFPNS2_9TaskQueueEvEEC2B8ue170006ERKS4_RKS6_, symObjAddr: 0x2628, symBinAddr: 0x100004BE0, symSize: 0x88 }
  - { offsetInCU: 0xC5848, offset: 0xC5848, size: 0x8, addend: 0x0, symName: __ZNSt3__110__function12__alloc_funcIZN7httplib6ServerC1EvEUlvE_NS_9allocatorIS4_EEFPNS2_9TaskQueueEvEEC1B8ue170006ERKS4_RKS6_, symObjAddr: 0x26B0, symBinAddr: 0x100004C68, symSize: 0x3C }
  - { offsetInCU: 0xC588E, offset: 0xC588E, size: 0x8, addend: 0x0, symName: __ZNSt3__110__function12__alloc_funcIZN7httplib6ServerC1EvEUlvE_NS_9allocatorIS4_EEFPNS2_9TaskQueueEvEEC2B8ue170006ERKS4_RKS6_, symObjAddr: 0x26EC, symBinAddr: 0x100004CA4, symSize: 0x5C }
  - { offsetInCU: 0xC58D4, offset: 0xC58D4, size: 0x8, addend: 0x0, symName: __ZNSt3__117__compressed_pairIZN7httplib6ServerC1EvEUlvE_NS_9allocatorIS3_EEEC1B8ue170006IJRKS3_EJRKS5_EEENS_21piecewise_construct_tENS_5tupleIJDpT_EEENSD_IJDpT0_EEE, symObjAddr: 0x2774, symBinAddr: 0x100004D2C, symSize: 0x3C }
  - { offsetInCU: 0xC593E, offset: 0xC593E, size: 0x8, addend: 0x0, symName: __ZNSt3__15tupleIJRKNS_9allocatorIZN7httplib6ServerC1EvEUlvE_EEEEC1B8ue170006INS_4_AndELi0EEES7_, symObjAddr: 0x27B0, symBinAddr: 0x100004D68, symSize: 0x34 }
  - { offsetInCU: 0xC5986, offset: 0xC5986, size: 0x8, addend: 0x0, symName: __ZNSt3__15tupleIJRKNS_9allocatorIZN7httplib6ServerC1EvEUlvE_EEEEC2B8ue170006INS_4_AndELi0EEES7_, symObjAddr: 0x27E4, symBinAddr: 0x100004D9C, symSize: 0x34 }
  - { offsetInCU: 0xC59CE, offset: 0xC59CE, size: 0x8, addend: 0x0, symName: __ZNSt3__112__tuple_implINS_15__tuple_indicesIJLm0EEEEJRKNS_9allocatorIZN7httplib6ServerC1EvEUlvE_EEEEC1B8ue170006IJLm0EEJS9_EJEJEJS9_EEENS1_IJXspT_EEEENS_13__tuple_typesIJDpT0_EEENS1_IJXspT1_EEEENSD_IJDpT2_EEEDpOT3_, symObjAddr: 0x2818, symBinAddr: 0x100004DD0, symSize: 0x34 }
  - { offsetInCU: 0xC5A63, offset: 0xC5A63, size: 0x8, addend: 0x0, symName: __ZNSt3__112__tuple_implINS_15__tuple_indicesIJLm0EEEEJRKNS_9allocatorIZN7httplib6ServerC1EvEUlvE_EEEEC2B8ue170006IJLm0EEJS9_EJEJEJS9_EEENS1_IJXspT_EEEENS_13__tuple_typesIJDpT0_EEENS1_IJXspT1_EEEENSD_IJDpT2_EEEDpOT3_, symObjAddr: 0x284C, symBinAddr: 0x100004E04, symSize: 0x34 }
  - { offsetInCU: 0xC5AF8, offset: 0xC5AF8, size: 0x8, addend: 0x0, symName: __ZNSt3__112__tuple_leafILm0ERKNS_9allocatorIZN7httplib6ServerC1EvEUlvE_EELb0EEC2B8ue170006IS7_vEEOT_, symObjAddr: 0x2880, symBinAddr: 0x100004E38, symSize: 0x20 }
  - { offsetInCU: 0xC5B3B, offset: 0xC5B3B, size: 0x8, addend: 0x0, symName: __ZNSt3__117__compressed_pairIZN7httplib6ServerC1EvEUlvE_NS_9allocatorIS3_EEEC2B8ue170006IJRKS3_EJRKS5_EEENS_21piecewise_construct_tENS_5tupleIJDpT_EEENSD_IJDpT0_EEE, symObjAddr: 0x28A0, symBinAddr: 0x100004E58, symSize: 0x54 }
  - { offsetInCU: 0xC5BA5, offset: 0xC5BA5, size: 0x8, addend: 0x0, symName: __ZNSt3__122__compressed_pair_elemINS_9allocatorIZN7httplib6ServerC1EvEUlvE_EELi1ELb1EEC2B8ue170006IJRKS5_EJLm0EEEENS_21piecewise_construct_tENS_5tupleIJDpT_EEENS_15__tuple_indicesIJXspT0_EEEE, symObjAddr: 0x28F4, symBinAddr: 0x100004EAC, symSize: 0x38 }
  - { offsetInCU: 0xC5C08, offset: 0xC5C08, size: 0x8, addend: 0x0, symName: __ZNSt3__112__tuple_leafILm0ERKNS_9allocatorIZN7httplib6ServerC1EvEUlvE_EELb0EE3getB8ue170006Ev, symObjAddr: 0x2950, symBinAddr: 0x100004F08, symSize: 0x18 }
  - { offsetInCU: 0xC5C2E, offset: 0xC5C2E, size: 0x8, addend: 0x0, symName: __ZNSt3__110__function12__alloc_funcIZN7httplib6ServerC1EvEUlvE_NS_9allocatorIS4_EEFPNS2_9TaskQueueEvEE7destroyB8ue170006Ev, symObjAddr: 0x2968, symBinAddr: 0x100004F20, symSize: 0x10 }
  - { offsetInCU: 0xC5C54, offset: 0xC5C54, size: 0x8, addend: 0x0, symName: __ZNSt3__110__function12__alloc_funcIZN7httplib6ServerC1EvEUlvE_NS_9allocatorIS4_EEFPNS2_9TaskQueueEvEEclB8ue170006Ev, symObjAddr: 0x2978, symBinAddr: 0x100004F30, symSize: 0x28 }
  - { offsetInCU: 0xC5C7A, offset: 0xC5C7A, size: 0x8, addend: 0x0, symName: __ZNSt3__128__invoke_void_return_wrapperIPN7httplib9TaskQueueELb0EE6__callB8ue170006IJRZNS1_6ServerC1EvEUlvE_EEES3_DpOT_, symObjAddr: 0x29A0, symBinAddr: 0x100004F58, symSize: 0x24 }
  - { offsetInCU: 0xC5CA9, offset: 0xC5CA9, size: 0x8, addend: 0x0, symName: __ZNSt3__117__compressed_pairIZN7httplib6ServerC1EvEUlvE_NS_9allocatorIS3_EEE5firstB8ue170006Ev, symObjAddr: 0x29C4, symBinAddr: 0x100004F7C, symSize: 0x24 }
  - { offsetInCU: 0xC5CCF, offset: 0xC5CCF, size: 0x8, addend: 0x0, symName: __ZZN7httplib6ServerC1EvENKUlvE_clEv, symObjAddr: 0x2A0C, symBinAddr: 0x100004FC4, symSize: 0xC0 }
  - { offsetInCU: 0xC5CF9, offset: 0xC5CF9, size: 0x8, addend: 0x0, symName: __ZN7httplib10ThreadPoolC1Emm, symObjAddr: 0x2AF8, symBinAddr: 0x1000050B0, symSize: 0x3C }
  - { offsetInCU: 0xC5D4C, offset: 0xC5D4C, size: 0x8, addend: 0x0, symName: __ZNKSt3__16__lessIvvEclB8ue170006IjjEEbRKT_RKT0_, symObjAddr: 0x2B88, symBinAddr: 0x100005140, symSize: 0x34 }
  - { offsetInCU: 0xC5DA0, offset: 0xC5DA0, size: 0x8, addend: 0x0, symName: __ZN7httplib10ThreadPoolC2Emm, symObjAddr: 0x2BBC, symBinAddr: 0x100005174, symSize: 0x134 }
  - { offsetInCU: 0xC5DE8, offset: 0xC5DE8, size: 0x8, addend: 0x0, symName: __ZN7httplib9TaskQueueC2Ev, symObjAddr: 0x2CF0, symBinAddr: 0x1000052A8, symSize: 0x24 }
  - { offsetInCU: 0xC5E12, offset: 0xC5E12, size: 0x8, addend: 0x0, symName: __ZNSt3__16vectorINS_6threadENS_9allocatorIS1_EEEC1B8ue170006Ev, symObjAddr: 0x2D14, symBinAddr: 0x1000052CC, symSize: 0x2C }
  - { offsetInCU: 0xC5E3C, offset: 0xC5E3C, size: 0x8, addend: 0x0, symName: __ZNSt3__14listINS_8functionIFvvEEENS_9allocatorIS3_EEEC1B8ue170006Ev, symObjAddr: 0x2D40, symBinAddr: 0x1000052F8, symSize: 0x2C }
  - { offsetInCU: 0xC5E66, offset: 0xC5E66, size: 0x8, addend: 0x0, symName: __ZNSt3__118condition_variableC1B8ue170006Ev, symObjAddr: 0x2D6C, symBinAddr: 0x100005324, symSize: 0x2C }
  - { offsetInCU: 0xC5E90, offset: 0xC5E90, size: 0x8, addend: 0x0, symName: __ZNSt3__15mutexC1B8ue170006Ev, symObjAddr: 0x2D98, symBinAddr: 0x100005350, symSize: 0x2C }
  - { offsetInCU: 0xC5EC0, offset: 0xC5EC0, size: 0x8, addend: 0x0, symName: __ZNSt3__16vectorINS_6threadENS_9allocatorIS1_EEE12emplace_backIJN7httplib10ThreadPool6workerEEEEvDpOT_, symObjAddr: 0x2DC4, symBinAddr: 0x10000537C, symSize: 0x6C }
  - { offsetInCU: 0xC5F02, offset: 0xC5F02, size: 0x8, addend: 0x0, symName: __ZN7httplib10ThreadPool6workerC1ERS0_, symObjAddr: 0x2E30, symBinAddr: 0x1000053E8, symSize: 0x34 }
  - { offsetInCU: 0xC5F3B, offset: 0xC5F3B, size: 0x8, addend: 0x0, symName: __ZNSt3__14listINS_8functionIFvvEEENS_9allocatorIS3_EEED1Ev, symObjAddr: 0x2E64, symBinAddr: 0x10000541C, symSize: 0x2C }
  - { offsetInCU: 0xC5F68, offset: 0xC5F68, size: 0x8, addend: 0x0, symName: __ZNSt3__16vectorINS_6threadENS_9allocatorIS1_EEED1B8ue170006Ev, symObjAddr: 0x2E90, symBinAddr: 0x100005448, symSize: 0x2C }
  - { offsetInCU: 0xC5F92, offset: 0xC5F92, size: 0x8, addend: 0x0, symName: __ZN7httplib9TaskQueueD2Ev, symObjAddr: 0x2EBC, symBinAddr: 0x100005474, symSize: 0x14 }
  - { offsetInCU: 0xC5FBC, offset: 0xC5FBC, size: 0x8, addend: 0x0, symName: __ZN7httplib10ThreadPoolD1Ev, symObjAddr: 0x2ED0, symBinAddr: 0x100005488, symSize: 0x2C }
  - { offsetInCU: 0xC5FE6, offset: 0xC5FE6, size: 0x8, addend: 0x0, symName: __ZN7httplib10ThreadPoolD0Ev, symObjAddr: 0x2EFC, symBinAddr: 0x1000054B4, symSize: 0x30 }
  - { offsetInCU: 0xC6010, offset: 0xC6010, size: 0x8, addend: 0x0, symName: __ZN7httplib10ThreadPool7enqueueENSt3__18functionIFvvEEE, symObjAddr: 0x2F2C, symBinAddr: 0x1000054E4, symSize: 0x114 }
  - { offsetInCU: 0xC605D, offset: 0xC605D, size: 0x8, addend: 0x0, symName: __ZN7httplib10ThreadPool8shutdownEv, symObjAddr: 0x3040, symBinAddr: 0x1000055F8, symSize: 0xB4 }
  - { offsetInCU: 0xC60F7, offset: 0xC60F7, size: 0x8, addend: 0x0, symName: __ZN7httplib9TaskQueue7on_idleEv, symObjAddr: 0x30F4, symBinAddr: 0x1000056AC, symSize: 0x10 }
  - { offsetInCU: 0xC611D, offset: 0xC611D, size: 0x8, addend: 0x0, symName: __ZN7httplib9TaskQueueD1Ev, symObjAddr: 0x3104, symBinAddr: 0x1000056BC, symSize: 0x14 }
  - { offsetInCU: 0xC6147, offset: 0xC6147, size: 0x8, addend: 0x0, symName: __ZN7httplib9TaskQueueD0Ev, symObjAddr: 0x3118, symBinAddr: 0x1000056D0, symSize: 0xC }
  - { offsetInCU: 0xC6171, offset: 0xC6171, size: 0x8, addend: 0x0, symName: __ZNSt3__16vectorINS_6threadENS_9allocatorIS1_EEEC2B8ue170006Ev, symObjAddr: 0x3124, symBinAddr: 0x1000056DC, symSize: 0x4C }
  - { offsetInCU: 0xC61A7, offset: 0xC61A7, size: 0x8, addend: 0x0, symName: __ZNSt3__117__compressed_pairIPNS_6threadENS_9allocatorIS1_EEEC1B8ue170006IDnNS_18__default_init_tagEEEOT_OT0_, symObjAddr: 0x3170, symBinAddr: 0x100005728, symSize: 0x3C }
  - { offsetInCU: 0xC61FF, offset: 0xC61FF, size: 0x8, addend: 0x0, symName: __ZNSt3__117__compressed_pairIPNS_6threadENS_9allocatorIS1_EEEC2B8ue170006IDnNS_18__default_init_tagEEEOT_OT0_, symObjAddr: 0x31AC, symBinAddr: 0x100005764, symSize: 0x40 }
  - { offsetInCU: 0xC6257, offset: 0xC6257, size: 0x8, addend: 0x0, symName: __ZNSt3__122__compressed_pair_elemIPNS_6threadELi0ELb0EEC2B8ue170006IDnvEEOT_, symObjAddr: 0x31EC, symBinAddr: 0x1000057A4, symSize: 0x1C }
  - { offsetInCU: 0xC6299, offset: 0xC6299, size: 0x8, addend: 0x0, symName: __ZNSt3__122__compressed_pair_elemINS_9allocatorINS_6threadEEELi1ELb1EEC2B8ue170006ENS_18__default_init_tagE, symObjAddr: 0x3208, symBinAddr: 0x1000057C0, symSize: 0x2C }
  - { offsetInCU: 0xC62CD, offset: 0xC62CD, size: 0x8, addend: 0x0, symName: __ZNSt3__19allocatorINS_6threadEEC2B8ue170006Ev, symObjAddr: 0x3234, symBinAddr: 0x1000057EC, symSize: 0x2C }
  - { offsetInCU: 0xC62F7, offset: 0xC62F7, size: 0x8, addend: 0x0, symName: __ZNSt3__116__non_trivial_ifILb1ENS_9allocatorINS_6threadEEEEC2B8ue170006Ev, symObjAddr: 0x3260, symBinAddr: 0x100005818, symSize: 0x14 }
  - { offsetInCU: 0xC6321, offset: 0xC6321, size: 0x8, addend: 0x0, symName: __ZNSt3__14listINS_8functionIFvvEEENS_9allocatorIS3_EEEC2B8ue170006Ev, symObjAddr: 0x3274, symBinAddr: 0x10000582C, symSize: 0x2C }
  - { offsetInCU: 0xC634B, offset: 0xC634B, size: 0x8, addend: 0x0, symName: __ZNSt3__110__list_impINS_8functionIFvvEEENS_9allocatorIS3_EEEC2Ev, symObjAddr: 0x32A0, symBinAddr: 0x100005858, symSize: 0x50 }
  - { offsetInCU: 0xC6377, offset: 0xC6377, size: 0x8, addend: 0x0, symName: __ZNSt3__116__list_node_baseINS_8functionIFvvEEEPvEC1B8ue170006Ev, symObjAddr: 0x32F0, symBinAddr: 0x1000058A8, symSize: 0x2C }
  - { offsetInCU: 0xC63A1, offset: 0xC63A1, size: 0x8, addend: 0x0, symName: __ZNSt3__117__compressed_pairImNS_9allocatorINS_11__list_nodeINS_8functionIFvvEEEPvEEEEEC1B8ue170006IiNS_18__default_init_tagEEEOT_OT0_, symObjAddr: 0x331C, symBinAddr: 0x1000058D4, symSize: 0x3C }
  - { offsetInCU: 0xC63F9, offset: 0xC63F9, size: 0x8, addend: 0x0, symName: __ZNSt3__116__list_node_baseINS_8functionIFvvEEEPvEC2B8ue170006Ev, symObjAddr: 0x3358, symBinAddr: 0x100005910, symSize: 0x4C }
  - { offsetInCU: 0xC6423, offset: 0xC6423, size: 0x8, addend: 0x0, symName: __ZNSt3__126__list_node_pointer_traitsINS_8functionIFvvEEEPvE26__unsafe_link_pointer_castB8ue170006EPNS_16__list_node_baseIS3_S4_EE, symObjAddr: 0x33A4, symBinAddr: 0x10000595C, symSize: 0x14 }
  - { offsetInCU: 0xC6447, offset: 0xC6447, size: 0x8, addend: 0x0, symName: __ZNSt3__116__list_node_baseINS_8functionIFvvEEEPvE6__selfB8ue170006Ev, symObjAddr: 0x33B8, symBinAddr: 0x100005970, symSize: 0x24 }
  - { offsetInCU: 0xC6473, offset: 0xC6473, size: 0x8, addend: 0x0, symName: __ZNSt3__114pointer_traitsIPNS_16__list_node_baseINS_8functionIFvvEEEPvEEE10pointer_toB8ue170006ERS6_, symObjAddr: 0x33DC, symBinAddr: 0x100005994, symSize: 0x14 }
  - { offsetInCU: 0xC6496, offset: 0xC6496, size: 0x8, addend: 0x0, symName: __ZNSt3__117__compressed_pairImNS_9allocatorINS_11__list_nodeINS_8functionIFvvEEEPvEEEEEC2B8ue170006IiNS_18__default_init_tagEEEOT_OT0_, symObjAddr: 0x33F0, symBinAddr: 0x1000059A8, symSize: 0x40 }
  - { offsetInCU: 0xC64EE, offset: 0xC64EE, size: 0x8, addend: 0x0, symName: __ZNSt3__122__compressed_pair_elemImLi0ELb0EEC2B8ue170006IivEEOT_, symObjAddr: 0x3430, symBinAddr: 0x1000059E8, symSize: 0x24 }
  - { offsetInCU: 0xC6530, offset: 0xC6530, size: 0x8, addend: 0x0, symName: __ZNSt3__122__compressed_pair_elemINS_9allocatorINS_11__list_nodeINS_8functionIFvvEEEPvEEEELi1ELb1EEC2B8ue170006ENS_18__default_init_tagE, symObjAddr: 0x3454, symBinAddr: 0x100005A0C, symSize: 0x2C }
  - { offsetInCU: 0xC6564, offset: 0xC6564, size: 0x8, addend: 0x0, symName: __ZNSt3__19allocatorINS_11__list_nodeINS_8functionIFvvEEEPvEEEC2B8ue170006Ev, symObjAddr: 0x3480, symBinAddr: 0x100005A38, symSize: 0x2C }
  - { offsetInCU: 0xC658E, offset: 0xC658E, size: 0x8, addend: 0x0, symName: __ZNSt3__116__non_trivial_ifILb1ENS_9allocatorINS_11__list_nodeINS_8functionIFvvEEEPvEEEEEC2B8ue170006Ev, symObjAddr: 0x34AC, symBinAddr: 0x100005A64, symSize: 0x14 }
  - { offsetInCU: 0xC65B8, offset: 0xC65B8, size: 0x8, addend: 0x0, symName: __ZNSt3__118condition_variableC2B8ue170006Ev, symObjAddr: 0x34C0, symBinAddr: 0x100005A78, symSize: 0x44 }
  - { offsetInCU: 0xC65E2, offset: 0xC65E2, size: 0x8, addend: 0x0, symName: __ZNSt3__15mutexC2B8ue170006Ev, symObjAddr: 0x3504, symBinAddr: 0x100005ABC, symSize: 0x44 }
  - { offsetInCU: 0xC660C, offset: 0xC660C, size: 0x8, addend: 0x0, symName: __ZNSt3__16vectorINS_6threadENS_9allocatorIS1_EEE9__end_capB8ue170006Ev, symObjAddr: 0x3548, symBinAddr: 0x100005B00, symSize: 0x28 }
  - { offsetInCU: 0xC6632, offset: 0xC6632, size: 0x8, addend: 0x0, symName: __ZNSt3__16vectorINS_6threadENS_9allocatorIS1_EEE22__construct_one_at_endB8ue170006IJN7httplib10ThreadPool6workerEEEEvDpOT_, symObjAddr: 0x3570, symBinAddr: 0x100005B28, symSize: 0x90 }
  - { offsetInCU: 0xC6682, offset: 0xC6682, size: 0x8, addend: 0x0, symName: __ZNSt3__16vectorINS_6threadENS_9allocatorIS1_EEE24__emplace_back_slow_pathIJN7httplib10ThreadPool6workerEEEEvDpOT_, symObjAddr: 0x3600, symBinAddr: 0x100005BB8, symSize: 0xD8 }
  - { offsetInCU: 0xC66E4, offset: 0xC66E4, size: 0x8, addend: 0x0, symName: __ZNSt3__117__compressed_pairIPNS_6threadENS_9allocatorIS1_EEE5firstB8ue170006Ev, symObjAddr: 0x36D8, symBinAddr: 0x100005C90, symSize: 0x24 }
  - { offsetInCU: 0xC670A, offset: 0xC670A, size: 0x8, addend: 0x0, symName: __ZNSt3__122__compressed_pair_elemIPNS_6threadELi0ELb0EE5__getB8ue170006Ev, symObjAddr: 0x36FC, symBinAddr: 0x100005CB4, symSize: 0x14 }
  - { offsetInCU: 0xC674C, offset: 0xC674C, size: 0x8, addend: 0x0, symName: __ZNSt3__16vectorINS_6threadENS_9allocatorIS1_EEE21_ConstructTransactionC1B8ue170006ERS4_m, symObjAddr: 0x3710, symBinAddr: 0x100005CC8, symSize: 0x3C }
  - { offsetInCU: 0xC6794, offset: 0xC6794, size: 0x8, addend: 0x0, symName: __ZNSt3__116allocator_traitsINS_9allocatorINS_6threadEEEE9constructB8ue170006IS2_JN7httplib10ThreadPool6workerEEvEEvRS3_PT_DpOT0_, symObjAddr: 0x374C, symBinAddr: 0x100005D04, symSize: 0x34 }
  - { offsetInCU: 0xC67EB, offset: 0xC67EB, size: 0x8, addend: 0x0, symName: __ZNSt3__16vectorINS_6threadENS_9allocatorIS1_EEE7__allocB8ue170006Ev, symObjAddr: 0x3780, symBinAddr: 0x100005D38, symSize: 0x28 }
  - { offsetInCU: 0xC6811, offset: 0xC6811, size: 0x8, addend: 0x0, symName: __ZNSt3__16vectorINS_6threadENS_9allocatorIS1_EEE21_ConstructTransactionD1B8ue170006Ev, symObjAddr: 0x37BC, symBinAddr: 0x100005D74, symSize: 0x2C }
  - { offsetInCU: 0xC683B, offset: 0xC683B, size: 0x8, addend: 0x0, symName: __ZNSt3__16vectorINS_6threadENS_9allocatorIS1_EEE21_ConstructTransactionC2B8ue170006ERS4_m, symObjAddr: 0x37E8, symBinAddr: 0x100005DA0, symSize: 0x44 }
  - { offsetInCU: 0xC6883, offset: 0xC6883, size: 0x8, addend: 0x0, symName: __ZNSt3__19allocatorINS_6threadEE9constructB8ue170006IS1_JN7httplib10ThreadPool6workerEEEEvPT_DpOT0_, symObjAddr: 0x382C, symBinAddr: 0x100005DE4, symSize: 0x30 }
  - { offsetInCU: 0xC68D9, offset: 0xC68D9, size: 0x8, addend: 0x0, symName: __ZNSt3__16threadC1IN7httplib10ThreadPool6workerEJEvEEOT_DpOT0_, symObjAddr: 0x385C, symBinAddr: 0x100005E14, symSize: 0x34 }
  - { offsetInCU: 0xC6920, offset: 0xC6920, size: 0x8, addend: 0x0, symName: __ZNSt3__16threadC2IN7httplib10ThreadPool6workerEJEvEEOT_DpOT0_, symObjAddr: 0x3890, symBinAddr: 0x100005E48, symSize: 0x148 }
  - { offsetInCU: 0xC699B, offset: 0xC699B, size: 0x8, addend: 0x0, symName: __ZNSt3__110unique_ptrINS_15__thread_structENS_14default_deleteIS1_EEEC1B8ue170006ILb1EvEEPS1_, symObjAddr: 0x39D8, symBinAddr: 0x100005F90, symSize: 0x34 }
  - { offsetInCU: 0xC69DE, offset: 0xC69DE, size: 0x8, addend: 0x0, symName: __ZNSt3__15tupleIJNS_10unique_ptrINS_15__thread_structENS_14default_deleteIS2_EEEEN7httplib10ThreadPool6workerEEEC1B8ue170006IJS5_S8_ELi0EEEDpOT_, symObjAddr: 0x3A0C, symBinAddr: 0x100005FC4, symSize: 0x3C }
  - { offsetInCU: 0xC6AE3, offset: 0xC6AE3, size: 0x8, addend: 0x0, symName: __ZNSt3__110unique_ptrINS_5tupleIJNS0_INS_15__thread_structENS_14default_deleteIS2_EEEEN7httplib10ThreadPool6workerEEEENS3_IS9_EEEC1B8ue170006ILb1EvEEPS9_, symObjAddr: 0x3A48, symBinAddr: 0x100006000, symSize: 0x34 }
  - { offsetInCU: 0xC6B26, offset: 0xC6B26, size: 0x8, addend: 0x0, symName: __ZNKSt3__110unique_ptrINS_5tupleIJNS0_INS_15__thread_structENS_14default_deleteIS2_EEEEN7httplib10ThreadPool6workerEEEENS3_IS9_EEE3getB8ue170006Ev, symObjAddr: 0x3B44, symBinAddr: 0x1000060FC, symSize: 0x28 }
  - { offsetInCU: 0xC6B4C, offset: 0xC6B4C, size: 0x8, addend: 0x0, symName: __ZNSt3__110unique_ptrINS_5tupleIJNS0_INS_15__thread_structENS_14default_deleteIS2_EEEEN7httplib10ThreadPool6workerEEEENS3_IS9_EEE7releaseB8ue170006Ev, symObjAddr: 0x3B6C, symBinAddr: 0x100006124, symSize: 0x44 }
  - { offsetInCU: 0xC6B82, offset: 0xC6B82, size: 0x8, addend: 0x0, symName: __ZNSt3__110unique_ptrINS_5tupleIJNS0_INS_15__thread_structENS_14default_deleteIS2_EEEEN7httplib10ThreadPool6workerEEEENS3_IS9_EEED1B8ue170006Ev, symObjAddr: 0x3BB0, symBinAddr: 0x100006168, symSize: 0x2C }
  - { offsetInCU: 0xC6BAC, offset: 0xC6BAC, size: 0x8, addend: 0x0, symName: __ZNSt3__110unique_ptrINS_15__thread_structENS_14default_deleteIS1_EEED1B8ue170006Ev, symObjAddr: 0x3BDC, symBinAddr: 0x100006194, symSize: 0x2C }
  - { offsetInCU: 0xC6BD6, offset: 0xC6BD6, size: 0x8, addend: 0x0, symName: __ZNSt3__110unique_ptrINS_15__thread_structENS_14default_deleteIS1_EEEC2B8ue170006ILb1EvEEPS1_, symObjAddr: 0x3C08, symBinAddr: 0x1000061C0, symSize: 0x44 }
  - { offsetInCU: 0xC6C1F, offset: 0xC6C1F, size: 0x8, addend: 0x0, symName: __ZNSt3__117__compressed_pairIPNS_15__thread_structENS_14default_deleteIS1_EEEC1B8ue170006IRS2_NS_16__value_init_tagEEEOT_OT0_, symObjAddr: 0x3C4C, symBinAddr: 0x100006204, symSize: 0x3C }
  - { offsetInCU: 0xC6C77, offset: 0xC6C77, size: 0x8, addend: 0x0, symName: __ZNSt3__117__compressed_pairIPNS_15__thread_structENS_14default_deleteIS1_EEEC2B8ue170006IRS2_NS_16__value_init_tagEEEOT_OT0_, symObjAddr: 0x3C88, symBinAddr: 0x100006240, symSize: 0x40 }
  - { offsetInCU: 0xC6CCF, offset: 0xC6CCF, size: 0x8, addend: 0x0, symName: __ZNSt3__122__compressed_pair_elemIPNS_15__thread_structELi0ELb0EEC2B8ue170006IRS2_vEEOT_, symObjAddr: 0x3CC8, symBinAddr: 0x100006280, symSize: 0x24 }
  - { offsetInCU: 0xC6D11, offset: 0xC6D11, size: 0x8, addend: 0x0, symName: __ZNSt3__122__compressed_pair_elemINS_14default_deleteINS_15__thread_structEEELi1ELb1EEC2B8ue170006ENS_16__value_init_tagE, symObjAddr: 0x3CEC, symBinAddr: 0x1000062A4, symSize: 0x14 }
  - { offsetInCU: 0xC6D45, offset: 0xC6D45, size: 0x8, addend: 0x0, symName: __ZNSt3__15tupleIJNS_10unique_ptrINS_15__thread_structENS_14default_deleteIS2_EEEEN7httplib10ThreadPool6workerEEEC2B8ue170006IJS5_S8_ELi0EEEDpOT_, symObjAddr: 0x3D00, symBinAddr: 0x1000062B8, symSize: 0x3C }
  - { offsetInCU: 0xC6DA3, offset: 0xC6DA3, size: 0x8, addend: 0x0, symName: __ZNSt3__112__tuple_implINS_15__tuple_indicesIJLm0ELm1EEEEJNS_10unique_ptrINS_15__thread_structENS_14default_deleteIS4_EEEEN7httplib10ThreadPool6workerEEEC1B8ue170006IJLm0ELm1EEJS7_SA_EJEJEJS7_SA_EEENS1_IJXspT_EEEENS_13__tuple_typesIJDpT0_EEENS1_IJXspT1_EEEENSE_IJDpT2_EEEDpOT3_, symObjAddr: 0x3D3C, symBinAddr: 0x1000062F4, symSize: 0x3C }
  - { offsetInCU: 0xC6E57, offset: 0xC6E57, size: 0x8, addend: 0x0, symName: __ZNSt3__112__tuple_implINS_15__tuple_indicesIJLm0ELm1EEEEJNS_10unique_ptrINS_15__thread_structENS_14default_deleteIS4_EEEEN7httplib10ThreadPool6workerEEEC2B8ue170006IJLm0ELm1EEJS7_SA_EJEJEJS7_SA_EEENS1_IJXspT_EEEENS_13__tuple_typesIJDpT0_EEENS1_IJXspT1_EEEENSE_IJDpT2_EEEDpOT3_, symObjAddr: 0x3D78, symBinAddr: 0x100006330, symSize: 0x48 }
  - { offsetInCU: 0xC6F0B, offset: 0xC6F0B, size: 0x8, addend: 0x0, symName: __ZNSt3__112__tuple_leafILm0ENS_10unique_ptrINS_15__thread_structENS_14default_deleteIS2_EEEELb0EEC2B8ue170006IS5_vEEOT_, symObjAddr: 0x3DC0, symBinAddr: 0x100006378, symSize: 0x34 }
  - { offsetInCU: 0xC6F4E, offset: 0xC6F4E, size: 0x8, addend: 0x0, symName: __ZNSt3__112__tuple_leafILm1EN7httplib10ThreadPool6workerELb0EEC2B8ue170006IS3_vEEOT_, symObjAddr: 0x3DF4, symBinAddr: 0x1000063AC, symSize: 0x24 }
  - { offsetInCU: 0xC6F91, offset: 0xC6F91, size: 0x8, addend: 0x0, symName: __ZNSt3__110unique_ptrINS_15__thread_structENS_14default_deleteIS1_EEEC1B8ue170006EOS4_, symObjAddr: 0x3E18, symBinAddr: 0x1000063D0, symSize: 0x34 }
  - { offsetInCU: 0xC6FC9, offset: 0xC6FC9, size: 0x8, addend: 0x0, symName: __ZNSt3__110unique_ptrINS_15__thread_structENS_14default_deleteIS1_EEEC2B8ue170006EOS4_, symObjAddr: 0x3E4C, symBinAddr: 0x100006404, symSize: 0x60 }
  - { offsetInCU: 0xC7001, offset: 0xC7001, size: 0x8, addend: 0x0, symName: __ZNSt3__110unique_ptrINS_15__thread_structENS_14default_deleteIS1_EEE7releaseB8ue170006Ev, symObjAddr: 0x3EAC, symBinAddr: 0x100006464, symSize: 0x44 }
  - { offsetInCU: 0xC7037, offset: 0xC7037, size: 0x8, addend: 0x0, symName: __ZNSt3__110unique_ptrINS_15__thread_structENS_14default_deleteIS1_EEE11get_deleterB8ue170006Ev, symObjAddr: 0x3EF0, symBinAddr: 0x1000064A8, symSize: 0x24 }
  - { offsetInCU: 0xC7069, offset: 0xC7069, size: 0x8, addend: 0x0, symName: __ZNSt3__117__compressed_pairIPNS_15__thread_structENS_14default_deleteIS1_EEEC1B8ue170006IS2_S4_EEOT_OT0_, symObjAddr: 0x3F14, symBinAddr: 0x1000064CC, symSize: 0x3C }
  - { offsetInCU: 0xC70C1, offset: 0xC70C1, size: 0x8, addend: 0x0, symName: __ZNSt3__117__compressed_pairIPNS_15__thread_structENS_14default_deleteIS1_EEE5firstB8ue170006Ev, symObjAddr: 0x3F50, symBinAddr: 0x100006508, symSize: 0x24 }
  - { offsetInCU: 0xC70E7, offset: 0xC70E7, size: 0x8, addend: 0x0, symName: __ZNSt3__122__compressed_pair_elemIPNS_15__thread_structELi0ELb0EE5__getB8ue170006Ev, symObjAddr: 0x3F74, symBinAddr: 0x10000652C, symSize: 0x14 }
  - { offsetInCU: 0xC710D, offset: 0xC710D, size: 0x8, addend: 0x0, symName: __ZNSt3__117__compressed_pairIPNS_15__thread_structENS_14default_deleteIS1_EEE6secondB8ue170006Ev, symObjAddr: 0x3F88, symBinAddr: 0x100006540, symSize: 0x24 }
  - { offsetInCU: 0xC7133, offset: 0xC7133, size: 0x8, addend: 0x0, symName: __ZNSt3__122__compressed_pair_elemINS_14default_deleteINS_15__thread_structEEELi1ELb1EE5__getB8ue170006Ev, symObjAddr: 0x3FAC, symBinAddr: 0x100006564, symSize: 0x14 }
  - { offsetInCU: 0xC7159, offset: 0xC7159, size: 0x8, addend: 0x0, symName: __ZNSt3__117__compressed_pairIPNS_15__thread_structENS_14default_deleteIS1_EEEC2B8ue170006IS2_S4_EEOT_OT0_, symObjAddr: 0x3FC0, symBinAddr: 0x100006578, symSize: 0x44 }
  - { offsetInCU: 0xC71B1, offset: 0xC71B1, size: 0x8, addend: 0x0, symName: __ZNSt3__122__compressed_pair_elemIPNS_15__thread_structELi0ELb0EEC2B8ue170006IS2_vEEOT_, symObjAddr: 0x4004, symBinAddr: 0x1000065BC, symSize: 0x24 }
  - { offsetInCU: 0xC71F3, offset: 0xC71F3, size: 0x8, addend: 0x0, symName: __ZNSt3__122__compressed_pair_elemINS_14default_deleteINS_15__thread_structEEELi1ELb1EEC2B8ue170006IS3_vEEOT_, symObjAddr: 0x4028, symBinAddr: 0x1000065E0, symSize: 0x18 }
  - { offsetInCU: 0xC7235, offset: 0xC7235, size: 0x8, addend: 0x0, symName: __ZNSt3__110unique_ptrINS_5tupleIJNS0_INS_15__thread_structENS_14default_deleteIS2_EEEEN7httplib10ThreadPool6workerEEEENS3_IS9_EEEC2B8ue170006ILb1EvEEPS9_, symObjAddr: 0x4040, symBinAddr: 0x1000065F8, symSize: 0x44 }
  - { offsetInCU: 0xC7278, offset: 0xC7278, size: 0x8, addend: 0x0, symName: __ZNSt3__117__compressed_pairIPNS_5tupleIJNS_10unique_ptrINS_15__thread_structENS_14default_deleteIS3_EEEEN7httplib10ThreadPool6workerEEEENS4_ISA_EEEC1B8ue170006IRSB_NS_16__value_init_tagEEEOT_OT0_, symObjAddr: 0x4084, symBinAddr: 0x10000663C, symSize: 0x3C }
  - { offsetInCU: 0xC72D0, offset: 0xC72D0, size: 0x8, addend: 0x0, symName: __ZNSt3__117__compressed_pairIPNS_5tupleIJNS_10unique_ptrINS_15__thread_structENS_14default_deleteIS3_EEEEN7httplib10ThreadPool6workerEEEENS4_ISA_EEEC2B8ue170006IRSB_NS_16__value_init_tagEEEOT_OT0_, symObjAddr: 0x40C0, symBinAddr: 0x100006678, symSize: 0x40 }
  - { offsetInCU: 0xC7328, offset: 0xC7328, size: 0x8, addend: 0x0, symName: __ZNSt3__122__compressed_pair_elemIPNS_5tupleIJNS_10unique_ptrINS_15__thread_structENS_14default_deleteIS3_EEEEN7httplib10ThreadPool6workerEEEELi0ELb0EEC2B8ue170006IRSB_vEEOT_, symObjAddr: 0x4100, symBinAddr: 0x1000066B8, symSize: 0x24 }
  - { offsetInCU: 0xC736A, offset: 0xC736A, size: 0x8, addend: 0x0, symName: __ZNSt3__122__compressed_pair_elemINS_14default_deleteINS_5tupleIJNS_10unique_ptrINS_15__thread_structENS1_IS4_EEEEN7httplib10ThreadPool6workerEEEEEELi1ELb1EEC2B8ue170006ENS_16__value_init_tagE, symObjAddr: 0x4124, symBinAddr: 0x1000066DC, symSize: 0x14 }
  - { offsetInCU: 0xC73D1, offset: 0xC73D1, size: 0x8, addend: 0x0, symName: __ZNSt3__121__thread_specific_ptrINS_15__thread_structEE11set_pointerEPS1_, symObjAddr: 0x4138, symBinAddr: 0x1000066F0, symSize: 0x30 }
  - { offsetInCU: 0xC7406, offset: 0xC7406, size: 0x8, addend: 0x0, symName: __ZNSt3__112__tuple_leafILm0ENS_10unique_ptrINS_15__thread_structENS_14default_deleteIS2_EEEELb0EE3getB8ue170006Ev, symObjAddr: 0x41E0, symBinAddr: 0x100006798, symSize: 0x14 }
  - { offsetInCU: 0xC742C, offset: 0xC742C, size: 0x8, addend: 0x0, symName: __ZN7httplib10ThreadPool6workerclEv, symObjAddr: 0x4240, symBinAddr: 0x1000067F8, symSize: 0x1F4 }
  - { offsetInCU: 0xC74B1, offset: 0xC74B1, size: 0x8, addend: 0x0, symName: __ZNSt3__18functionIFvvEEC1B8ue170006Ev, symObjAddr: 0x4434, symBinAddr: 0x1000069EC, symSize: 0x2C }
  - { offsetInCU: 0xC74DB, offset: 0xC74DB, size: 0x8, addend: 0x0, symName: __ZNSt3__111unique_lockINS_5mutexEEC1B8ue170006ERS1_, symObjAddr: 0x4460, symBinAddr: 0x100006A18, symSize: 0x34 }
  - { offsetInCU: 0xC7524, offset: 0xC7524, size: 0x8, addend: 0x0, symName: __ZNSt3__118condition_variable4waitIZN7httplib10ThreadPool6workerclEvEUlvE_EEvRNS_11unique_lockINS_5mutexEEET_, symObjAddr: 0x4494, symBinAddr: 0x100006A4C, symSize: 0x50 }
  - { offsetInCU: 0xC756F, offset: 0xC756F, size: 0x8, addend: 0x0, symName: __ZNKSt3__14listINS_8functionIFvvEEENS_9allocatorIS3_EEE5emptyB8ue170006Ev, symObjAddr: 0x44E4, symBinAddr: 0x100006A9C, symSize: 0x28 }
  - { offsetInCU: 0xC7595, offset: 0xC7595, size: 0x8, addend: 0x0, symName: __ZNSt3__14listINS_8functionIFvvEEENS_9allocatorIS3_EEE5frontB8ue170006Ev, symObjAddr: 0x450C, symBinAddr: 0x100006AC4, symSize: 0x2C }
  - { offsetInCU: 0xC75BB, offset: 0xC75BB, size: 0x8, addend: 0x0, symName: __ZNSt3__18functionIFvvEEaSERKS2_, symObjAddr: 0x4538, symBinAddr: 0x100006AF0, symSize: 0x84 }
  - { offsetInCU: 0xC75F2, offset: 0xC75F2, size: 0x8, addend: 0x0, symName: __ZNSt3__14listINS_8functionIFvvEEENS_9allocatorIS3_EEE9pop_frontEv, symObjAddr: 0x45BC, symBinAddr: 0x100006B74, symSize: 0x84 }
  - { offsetInCU: 0xC764A, offset: 0xC764A, size: 0x8, addend: 0x0, symName: __ZNSt3__111unique_lockINS_5mutexEED1B8ue170006Ev, symObjAddr: 0x4640, symBinAddr: 0x100006BF8, symSize: 0x2C }
  - { offsetInCU: 0xC7674, offset: 0xC7674, size: 0x8, addend: 0x0, symName: __ZNKSt3__18functionIFvvEEcvbB8ue170006Ev, symObjAddr: 0x466C, symBinAddr: 0x100006C24, symSize: 0x28 }
  - { offsetInCU: 0xC769A, offset: 0xC769A, size: 0x8, addend: 0x0, symName: __ZNKSt3__18functionIFvvEEclEv, symObjAddr: 0x4694, symBinAddr: 0x100006C4C, symSize: 0x24 }
  - { offsetInCU: 0xC76C2, offset: 0xC76C2, size: 0x8, addend: 0x0, symName: __ZNSt3__18functionIFvvEED1Ev, symObjAddr: 0x46B8, symBinAddr: 0x100006C70, symSize: 0x2C }
  - { offsetInCU: 0xC76EE, offset: 0xC76EE, size: 0x8, addend: 0x0, symName: __ZNSt3__18functionIFvvEEC2B8ue170006Ev, symObjAddr: 0x46E4, symBinAddr: 0x100006C9C, symSize: 0x2C }
  - { offsetInCU: 0xC7718, offset: 0xC7718, size: 0x8, addend: 0x0, symName: __ZNSt3__110__function12__value_funcIFvvEEC1B8ue170006Ev, symObjAddr: 0x4710, symBinAddr: 0x100006CC8, symSize: 0x2C }
  - { offsetInCU: 0xC7742, offset: 0xC7742, size: 0x8, addend: 0x0, symName: __ZNSt3__110__function12__value_funcIFvvEEC2B8ue170006Ev, symObjAddr: 0x473C, symBinAddr: 0x100006CF4, symSize: 0x18 }
  - { offsetInCU: 0xC776C, offset: 0xC776C, size: 0x8, addend: 0x0, symName: __ZNSt3__111unique_lockINS_5mutexEEC2B8ue170006ERS1_, symObjAddr: 0x4754, symBinAddr: 0x100006D0C, symSize: 0x44 }
  - { offsetInCU: 0xC77A4, offset: 0xC77A4, size: 0x8, addend: 0x0, symName: __ZZN7httplib10ThreadPool6workerclEvENKUlvE_clEv, symObjAddr: 0x4798, symBinAddr: 0x100006D50, symSize: 0x60 }
  - { offsetInCU: 0xC77CE, offset: 0xC77CE, size: 0x8, addend: 0x0, symName: __ZNKSt3__110__list_impINS_8functionIFvvEEENS_9allocatorIS3_EEE5emptyB8ue170006Ev, symObjAddr: 0x47F8, symBinAddr: 0x100006DB0, symSize: 0x34 }
  - { offsetInCU: 0xC77F4, offset: 0xC77F4, size: 0x8, addend: 0x0, symName: __ZNKSt3__110__list_impINS_8functionIFvvEEENS_9allocatorIS3_EEE4__szB8ue170006Ev, symObjAddr: 0x482C, symBinAddr: 0x100006DE4, symSize: 0x28 }
  - { offsetInCU: 0xC781A, offset: 0xC781A, size: 0x8, addend: 0x0, symName: __ZNKSt3__117__compressed_pairImNS_9allocatorINS_11__list_nodeINS_8functionIFvvEEEPvEEEEE5firstB8ue170006Ev, symObjAddr: 0x4854, symBinAddr: 0x100006E0C, symSize: 0x24 }
  - { offsetInCU: 0xC7840, offset: 0xC7840, size: 0x8, addend: 0x0, symName: __ZNKSt3__122__compressed_pair_elemImLi0ELb0EE5__getB8ue170006Ev, symObjAddr: 0x4878, symBinAddr: 0x100006E30, symSize: 0x14 }
  - { offsetInCU: 0xC7866, offset: 0xC7866, size: 0x8, addend: 0x0, symName: __ZNSt3__116__list_node_baseINS_8functionIFvvEEEPvE9__as_nodeB8ue170006Ev, symObjAddr: 0x488C, symBinAddr: 0x100006E44, symSize: 0x24 }
  - { offsetInCU: 0xC788C, offset: 0xC788C, size: 0x8, addend: 0x0, symName: __ZNSt3__18functionIFvvEEC1ERKS2_, symObjAddr: 0x48B0, symBinAddr: 0x100006E68, symSize: 0x34 }
  - { offsetInCU: 0xC78C7, offset: 0xC78C7, size: 0x8, addend: 0x0, symName: __ZNSt3__18functionIFvvEE4swapERS2_, symObjAddr: 0x48E4, symBinAddr: 0x100006E9C, symSize: 0x2C }
  - { offsetInCU: 0xC78FE, offset: 0xC78FE, size: 0x8, addend: 0x0, symName: __ZNSt3__18functionIFvvEEC2ERKS2_, symObjAddr: 0x4910, symBinAddr: 0x100006EC8, symSize: 0x34 }
  - { offsetInCU: 0xC7939, offset: 0xC7939, size: 0x8, addend: 0x0, symName: __ZNSt3__110__function12__value_funcIFvvEEC1B8ue170006ERKS3_, symObjAddr: 0x4944, symBinAddr: 0x100006EFC, symSize: 0x34 }
  - { offsetInCU: 0xC7972, offset: 0xC7972, size: 0x8, addend: 0x0, symName: __ZNSt3__110__function12__value_funcIFvvEEC2B8ue170006ERKS3_, symObjAddr: 0x4978, symBinAddr: 0x100006F30, symSize: 0xC0 }
  - { offsetInCU: 0xC79AB, offset: 0xC79AB, size: 0x8, addend: 0x0, symName: __ZNSt3__110__function12__value_funcIFvvEE9__as_baseB8ue170006EPv, symObjAddr: 0x4A38, symBinAddr: 0x100006FF0, symSize: 0x14 }
  - { offsetInCU: 0xC79CF, offset: 0xC79CF, size: 0x8, addend: 0x0, symName: __ZNSt3__110__function12__value_funcIFvvEE4swapB8ue170006ERS3_, symObjAddr: 0x4A4C, symBinAddr: 0x100007004, symSize: 0x2A8 }
  - { offsetInCU: 0xC7A2B, offset: 0xC7A2B, size: 0x8, addend: 0x0, symName: __ZNSt3__110__list_impINS_8functionIFvvEEENS_9allocatorIS3_EEE12__node_allocB8ue170006Ev, symObjAddr: 0x4D30, symBinAddr: 0x1000072E8, symSize: 0x28 }
  - { offsetInCU: 0xC7A51, offset: 0xC7A51, size: 0x8, addend: 0x0, symName: __ZNSt3__110__list_impINS_8functionIFvvEEENS_9allocatorIS3_EEE14__unlink_nodesEPNS_16__list_node_baseIS3_PvEESA_, symObjAddr: 0x4D58, symBinAddr: 0x100007310, symSize: 0x3C }
  - { offsetInCU: 0xC7A86, offset: 0xC7A86, size: 0x8, addend: 0x0, symName: __ZNSt3__110__list_impINS_8functionIFvvEEENS_9allocatorIS3_EEE4__szB8ue170006Ev, symObjAddr: 0x4D94, symBinAddr: 0x10000734C, symSize: 0x28 }
  - { offsetInCU: 0xC7AAC, offset: 0xC7AAC, size: 0x8, addend: 0x0, symName: __ZNSt3__116allocator_traitsINS_9allocatorINS_11__list_nodeINS_8functionIFvvEEEPvEEEEE7destroyB8ue170006IS5_vvEEvRS8_PT_, symObjAddr: 0x4DBC, symBinAddr: 0x100007374, symSize: 0x28 }
  - { offsetInCU: 0xC7AE7, offset: 0xC7AE7, size: 0x8, addend: 0x0, symName: __ZNSt3__116allocator_traitsINS_9allocatorINS_11__list_nodeINS_8functionIFvvEEEPvEEEEE10deallocateB8ue170006ERS8_PS7_m, symObjAddr: 0x4DE4, symBinAddr: 0x10000739C, symSize: 0x34 }
  - { offsetInCU: 0xC7B29, offset: 0xC7B29, size: 0x8, addend: 0x0, symName: __ZNSt3__117__compressed_pairImNS_9allocatorINS_11__list_nodeINS_8functionIFvvEEEPvEEEEE6secondB8ue170006Ev, symObjAddr: 0x4E18, symBinAddr: 0x1000073D0, symSize: 0x24 }
  - { offsetInCU: 0xC7B4F, offset: 0xC7B4F, size: 0x8, addend: 0x0, symName: __ZNSt3__122__compressed_pair_elemINS_9allocatorINS_11__list_nodeINS_8functionIFvvEEEPvEEEELi1ELb1EE5__getB8ue170006Ev, symObjAddr: 0x4E3C, symBinAddr: 0x1000073F4, symSize: 0x14 }
  - { offsetInCU: 0xC7B75, offset: 0xC7B75, size: 0x8, addend: 0x0, symName: __ZNSt3__117__compressed_pairImNS_9allocatorINS_11__list_nodeINS_8functionIFvvEEEPvEEEEE5firstB8ue170006Ev, symObjAddr: 0x4E50, symBinAddr: 0x100007408, symSize: 0x24 }
  - { offsetInCU: 0xC7B9B, offset: 0xC7B9B, size: 0x8, addend: 0x0, symName: __ZNSt3__122__compressed_pair_elemImLi0ELb0EE5__getB8ue170006Ev, symObjAddr: 0x4E74, symBinAddr: 0x10000742C, symSize: 0x14 }
  - { offsetInCU: 0xC7BC1, offset: 0xC7BC1, size: 0x8, addend: 0x0, symName: __ZNSt3__19allocatorINS_11__list_nodeINS_8functionIFvvEEEPvEEE10deallocateB8ue170006EPS6_m, symObjAddr: 0x4E88, symBinAddr: 0x100007440, symSize: 0x44 }
  - { offsetInCU: 0xC7C03, offset: 0xC7C03, size: 0x8, addend: 0x0, symName: __ZNSt3__111unique_lockINS_5mutexEED2B8ue170006Ev, symObjAddr: 0x4ECC, symBinAddr: 0x100007484, symSize: 0x4C }
  - { offsetInCU: 0xC7C2D, offset: 0xC7C2D, size: 0x8, addend: 0x0, symName: __ZNKSt3__110__function12__value_funcIFvvEEcvbB8ue170006Ev, symObjAddr: 0x4F18, symBinAddr: 0x1000074D0, symSize: 0x24 }
  - { offsetInCU: 0xC7C53, offset: 0xC7C53, size: 0x8, addend: 0x0, symName: __ZNKSt3__110__function12__value_funcIFvvEEclB8ue170006Ev, symObjAddr: 0x4F3C, symBinAddr: 0x1000074F4, symSize: 0x50 }
  - { offsetInCU: 0xC7C7F, offset: 0xC7C7F, size: 0x8, addend: 0x0, symName: __ZNSt3__117bad_function_callC1Ev, symObjAddr: 0x4FC4, symBinAddr: 0x10000757C, symSize: 0x2C }
  - { offsetInCU: 0xC7CAB, offset: 0xC7CAB, size: 0x8, addend: 0x0, symName: __ZNSt3__117bad_function_callD1Ev, symObjAddr: 0x4FF0, symBinAddr: 0x1000075A8, symSize: 0x2C }
  - { offsetInCU: 0xC7CD5, offset: 0xC7CD5, size: 0x8, addend: 0x0, symName: __ZNSt3__117bad_function_callC2Ev, symObjAddr: 0x501C, symBinAddr: 0x1000075D4, symSize: 0x44 }
  - { offsetInCU: 0xC7D01, offset: 0xC7D01, size: 0x8, addend: 0x0, symName: __ZNSt9exceptionC2B8ue170006Ev, symObjAddr: 0x5060, symBinAddr: 0x100007618, symSize: 0x24 }
  - { offsetInCU: 0xC7D2B, offset: 0xC7D2B, size: 0x8, addend: 0x0, symName: __ZNSt3__117bad_function_callD0Ev, symObjAddr: 0x5084, symBinAddr: 0x10000763C, symSize: 0x30 }
  - { offsetInCU: 0xC7D55, offset: 0xC7D55, size: 0x8, addend: 0x0, symName: __ZNSt3__117bad_function_callD2Ev, symObjAddr: 0x50B4, symBinAddr: 0x10000766C, symSize: 0x2C }
  - { offsetInCU: 0xC7D7F, offset: 0xC7D7F, size: 0x8, addend: 0x0, symName: __ZNSt3__18functionIFvvEED2Ev, symObjAddr: 0x50E0, symBinAddr: 0x100007698, symSize: 0x2C }
  - { offsetInCU: 0xC7DAB, offset: 0xC7DAB, size: 0x8, addend: 0x0, symName: __ZNSt3__110__function12__value_funcIFvvEED1B8ue170006Ev, symObjAddr: 0x510C, symBinAddr: 0x1000076C4, symSize: 0x2C }
  - { offsetInCU: 0xC7DD5, offset: 0xC7DD5, size: 0x8, addend: 0x0, symName: __ZNSt3__110__function12__value_funcIFvvEED2B8ue170006Ev, symObjAddr: 0x5138, symBinAddr: 0x1000076F0, symSize: 0x90 }
  - { offsetInCU: 0xC7DFF, offset: 0xC7DFF, size: 0x8, addend: 0x0, symName: __ZNSt3__112__tuple_leafILm1EN7httplib10ThreadPool6workerELb0EE3getB8ue170006Ev, symObjAddr: 0x51C8, symBinAddr: 0x100007780, symSize: 0x14 }
  - { offsetInCU: 0xC7E25, offset: 0xC7E25, size: 0x8, addend: 0x0, symName: __ZNKSt3__117__compressed_pairIPNS_5tupleIJNS_10unique_ptrINS_15__thread_structENS_14default_deleteIS3_EEEEN7httplib10ThreadPool6workerEEEENS4_ISA_EEE5firstB8ue170006Ev, symObjAddr: 0x51DC, symBinAddr: 0x100007794, symSize: 0x24 }
  - { offsetInCU: 0xC7E4B, offset: 0xC7E4B, size: 0x8, addend: 0x0, symName: __ZNKSt3__122__compressed_pair_elemIPNS_5tupleIJNS_10unique_ptrINS_15__thread_structENS_14default_deleteIS3_EEEEN7httplib10ThreadPool6workerEEEELi0ELb0EE5__getB8ue170006Ev, symObjAddr: 0x5200, symBinAddr: 0x1000077B8, symSize: 0x14 }
  - { offsetInCU: 0xC7E71, offset: 0xC7E71, size: 0x8, addend: 0x0, symName: __ZNSt3__117__compressed_pairIPNS_5tupleIJNS_10unique_ptrINS_15__thread_structENS_14default_deleteIS3_EEEEN7httplib10ThreadPool6workerEEEENS4_ISA_EEE5firstB8ue170006Ev, symObjAddr: 0x5214, symBinAddr: 0x1000077CC, symSize: 0x24 }
  - { offsetInCU: 0xC7E97, offset: 0xC7E97, size: 0x8, addend: 0x0, symName: __ZNSt3__122__compressed_pair_elemIPNS_5tupleIJNS_10unique_ptrINS_15__thread_structENS_14default_deleteIS3_EEEEN7httplib10ThreadPool6workerEEEELi0ELb0EE5__getB8ue170006Ev, symObjAddr: 0x5238, symBinAddr: 0x1000077F0, symSize: 0x14 }
  - { offsetInCU: 0xC7EBD, offset: 0xC7EBD, size: 0x8, addend: 0x0, symName: __ZNSt3__110unique_ptrINS_5tupleIJNS0_INS_15__thread_structENS_14default_deleteIS2_EEEEN7httplib10ThreadPool6workerEEEENS3_IS9_EEED2B8ue170006Ev, symObjAddr: 0x524C, symBinAddr: 0x100007804, symSize: 0x30 }
  - { offsetInCU: 0xC7EE7, offset: 0xC7EE7, size: 0x8, addend: 0x0, symName: __ZNSt3__110unique_ptrINS_5tupleIJNS0_INS_15__thread_structENS_14default_deleteIS2_EEEEN7httplib10ThreadPool6workerEEEENS3_IS9_EEE5resetB8ue170006EPS9_, symObjAddr: 0x527C, symBinAddr: 0x100007834, symSize: 0x78 }
  - { offsetInCU: 0xC7F2C, offset: 0xC7F2C, size: 0x8, addend: 0x0, symName: __ZNSt3__117__compressed_pairIPNS_5tupleIJNS_10unique_ptrINS_15__thread_structENS_14default_deleteIS3_EEEEN7httplib10ThreadPool6workerEEEENS4_ISA_EEE6secondB8ue170006Ev, symObjAddr: 0x52F4, symBinAddr: 0x1000078AC, symSize: 0x24 }
  - { offsetInCU: 0xC7F52, offset: 0xC7F52, size: 0x8, addend: 0x0, symName: __ZNKSt3__114default_deleteINS_5tupleIJNS_10unique_ptrINS_15__thread_structENS0_IS3_EEEEN7httplib10ThreadPool6workerEEEEEclB8ue170006EPS9_, symObjAddr: 0x5318, symBinAddr: 0x1000078D0, symSize: 0x4C }
  - { offsetInCU: 0xC7F86, offset: 0xC7F86, size: 0x8, addend: 0x0, symName: __ZNSt3__122__compressed_pair_elemINS_14default_deleteINS_5tupleIJNS_10unique_ptrINS_15__thread_structENS1_IS4_EEEEN7httplib10ThreadPool6workerEEEEEELi1ELb1EE5__getB8ue170006Ev, symObjAddr: 0x5364, symBinAddr: 0x10000791C, symSize: 0x14 }
  - { offsetInCU: 0xC7FAC, offset: 0xC7FAC, size: 0x8, addend: 0x0, symName: __ZNSt3__15tupleIJNS_10unique_ptrINS_15__thread_structENS_14default_deleteIS2_EEEEN7httplib10ThreadPool6workerEEED1Ev, symObjAddr: 0x5378, symBinAddr: 0x100007930, symSize: 0x2C }
  - { offsetInCU: 0xC7FD9, offset: 0xC7FD9, size: 0x8, addend: 0x0, symName: __ZNSt3__15tupleIJNS_10unique_ptrINS_15__thread_structENS_14default_deleteIS2_EEEEN7httplib10ThreadPool6workerEEED2Ev, symObjAddr: 0x53A4, symBinAddr: 0x10000795C, symSize: 0x2C }
  - { offsetInCU: 0xC8006, offset: 0xC8006, size: 0x8, addend: 0x0, symName: __ZNSt3__112__tuple_implINS_15__tuple_indicesIJLm0ELm1EEEEJNS_10unique_ptrINS_15__thread_structENS_14default_deleteIS4_EEEEN7httplib10ThreadPool6workerEEED1Ev, symObjAddr: 0x53D0, symBinAddr: 0x100007988, symSize: 0x2C }
  - { offsetInCU: 0xC8033, offset: 0xC8033, size: 0x8, addend: 0x0, symName: __ZNSt3__112__tuple_implINS_15__tuple_indicesIJLm0ELm1EEEEJNS_10unique_ptrINS_15__thread_structENS_14default_deleteIS4_EEEEN7httplib10ThreadPool6workerEEED2Ev, symObjAddr: 0x53FC, symBinAddr: 0x1000079B4, symSize: 0x2C }
  - { offsetInCU: 0xC8060, offset: 0xC8060, size: 0x8, addend: 0x0, symName: __ZNSt3__112__tuple_leafILm0ENS_10unique_ptrINS_15__thread_structENS_14default_deleteIS2_EEEELb0EED2Ev, symObjAddr: 0x5428, symBinAddr: 0x1000079E0, symSize: 0x2C }
  - { offsetInCU: 0xC808D, offset: 0xC808D, size: 0x8, addend: 0x0, symName: __ZNSt3__110unique_ptrINS_15__thread_structENS_14default_deleteIS1_EEED2B8ue170006Ev, symObjAddr: 0x5454, symBinAddr: 0x100007A0C, symSize: 0x30 }
  - { offsetInCU: 0xC80B7, offset: 0xC80B7, size: 0x8, addend: 0x0, symName: __ZNSt3__110unique_ptrINS_15__thread_structENS_14default_deleteIS1_EEE5resetB8ue170006EPS1_, symObjAddr: 0x5484, symBinAddr: 0x100007A3C, symSize: 0x78 }
  - { offsetInCU: 0xC80FC, offset: 0xC80FC, size: 0x8, addend: 0x0, symName: __ZNKSt3__114default_deleteINS_15__thread_structEEclB8ue170006EPS1_, symObjAddr: 0x54FC, symBinAddr: 0x100007AB4, symSize: 0x4C }
  - { offsetInCU: 0xC8130, offset: 0xC8130, size: 0x8, addend: 0x0, symName: __ZNSt3__117__compressed_pairIPNS_6threadENS_9allocatorIS1_EEE6secondB8ue170006Ev, symObjAddr: 0x5548, symBinAddr: 0x100007B00, symSize: 0x24 }
  - { offsetInCU: 0xC8156, offset: 0xC8156, size: 0x8, addend: 0x0, symName: __ZNSt3__122__compressed_pair_elemINS_9allocatorINS_6threadEEELi1ELb1EE5__getB8ue170006Ev, symObjAddr: 0x556C, symBinAddr: 0x100007B24, symSize: 0x14 }
  - { offsetInCU: 0xC817C, offset: 0xC817C, size: 0x8, addend: 0x0, symName: __ZNSt3__16vectorINS_6threadENS_9allocatorIS1_EEE21_ConstructTransactionD2B8ue170006Ev, symObjAddr: 0x5580, symBinAddr: 0x100007B38, symSize: 0x20 }
  - { offsetInCU: 0xC81A6, offset: 0xC81A6, size: 0x8, addend: 0x0, symName: __ZNKSt3__16vectorINS_6threadENS_9allocatorIS1_EEE11__recommendB8ue170006Em, symObjAddr: 0x55A0, symBinAddr: 0x100007B58, symSize: 0xB4 }
  - { offsetInCU: 0xC81FD, offset: 0xC81FD, size: 0x8, addend: 0x0, symName: __ZNKSt3__16vectorINS_6threadENS_9allocatorIS1_EEE4sizeB8ue170006Ev, symObjAddr: 0x5654, symBinAddr: 0x100007C0C, symSize: 0x28 }
  - { offsetInCU: 0xC8223, offset: 0xC8223, size: 0x8, addend: 0x0, symName: __ZNSt3__114__split_bufferINS_6threadERNS_9allocatorIS1_EEEC1EmmS4_, symObjAddr: 0x567C, symBinAddr: 0x100007C34, symSize: 0x44 }
  - { offsetInCU: 0xC8279, offset: 0xC8279, size: 0x8, addend: 0x0, symName: __ZNSt3__114__split_bufferINS_6threadERNS_9allocatorIS1_EEED1Ev, symObjAddr: 0x57D0, symBinAddr: 0x100007D88, symSize: 0x2C }
  - { offsetInCU: 0xC82A5, offset: 0xC82A5, size: 0x8, addend: 0x0, symName: __ZNKSt3__16vectorINS_6threadENS_9allocatorIS1_EEE8max_sizeEv, symObjAddr: 0x57FC, symBinAddr: 0x100007DB4, symSize: 0x60 }
  - { offsetInCU: 0xC82CD, offset: 0xC82CD, size: 0x8, addend: 0x0, symName: __ZNKSt3__16vectorINS_6threadENS_9allocatorIS1_EEE20__throw_length_errorB8ue170006Ev, symObjAddr: 0x585C, symBinAddr: 0x100007E14, symSize: 0x1C }
  - { offsetInCU: 0xC82F3, offset: 0xC82F3, size: 0x8, addend: 0x0, symName: __ZNKSt3__16vectorINS_6threadENS_9allocatorIS1_EEE8capacityB8ue170006Ev, symObjAddr: 0x5878, symBinAddr: 0x100007E30, symSize: 0x40 }
  - { offsetInCU: 0xC8324, offset: 0xC8324, size: 0x8, addend: 0x0, symName: __ZNSt3__116allocator_traitsINS_9allocatorINS_6threadEEEE8max_sizeB8ue170006IS3_vEEmRKS3_, symObjAddr: 0x5910, symBinAddr: 0x100007EC8, symSize: 0x24 }
  - { offsetInCU: 0xC8352, offset: 0xC8352, size: 0x8, addend: 0x0, symName: __ZNKSt3__16vectorINS_6threadENS_9allocatorIS1_EEE7__allocB8ue170006Ev, symObjAddr: 0x5934, symBinAddr: 0x100007EEC, symSize: 0x28 }
  - { offsetInCU: 0xC8378, offset: 0xC8378, size: 0x8, addend: 0x0, symName: __ZNSt3__114numeric_limitsIlE3maxB8ue170006Ev, symObjAddr: 0x595C, symBinAddr: 0x100007F14, symSize: 0x14 }
  - { offsetInCU: 0xC838C, offset: 0xC838C, size: 0x8, addend: 0x0, symName: __ZNKSt3__16__lessIvvEclB8ue170006ImmEEbRKT_RKT0_, symObjAddr: 0x59C4, symBinAddr: 0x100007F7C, symSize: 0x34 }
  - { offsetInCU: 0xC83E0, offset: 0xC83E0, size: 0x8, addend: 0x0, symName: __ZNKSt3__19allocatorINS_6threadEE8max_sizeB8ue170006Ev, symObjAddr: 0x59F8, symBinAddr: 0x100007FB0, symSize: 0x14 }
  - { offsetInCU: 0xC8406, offset: 0xC8406, size: 0x8, addend: 0x0, symName: __ZNKSt3__117__compressed_pairIPNS_6threadENS_9allocatorIS1_EEE6secondB8ue170006Ev, symObjAddr: 0x5A0C, symBinAddr: 0x100007FC4, symSize: 0x24 }
  - { offsetInCU: 0xC842C, offset: 0xC842C, size: 0x8, addend: 0x0, symName: __ZNKSt3__122__compressed_pair_elemINS_9allocatorINS_6threadEEELi1ELb1EE5__getB8ue170006Ev, symObjAddr: 0x5A30, symBinAddr: 0x100007FE8, symSize: 0x14 }
  - { offsetInCU: 0xC8452, offset: 0xC8452, size: 0x8, addend: 0x0, symName: __ZNSt3__123__libcpp_numeric_limitsIlLb1EE3maxB8ue170006Ev, symObjAddr: 0x5A44, symBinAddr: 0x100007FFC, symSize: 0x8 }
  - { offsetInCU: 0xC8466, offset: 0xC8466, size: 0x8, addend: 0x0, symName: __ZNSt12length_errorC1B8ue170006EPKc, symObjAddr: 0x5AB0, symBinAddr: 0x100008068, symSize: 0x34 }
  - { offsetInCU: 0xC849E, offset: 0xC849E, size: 0x8, addend: 0x0, symName: __ZNSt12length_errorC2B8ue170006EPKc, symObjAddr: 0x5AE4, symBinAddr: 0x10000809C, symSize: 0x4C }
  - { offsetInCU: 0xC84D6, offset: 0xC84D6, size: 0x8, addend: 0x0, symName: __ZNKSt3__16vectorINS_6threadENS_9allocatorIS1_EEE9__end_capB8ue170006Ev, symObjAddr: 0x5B30, symBinAddr: 0x1000080E8, symSize: 0x28 }
  - { offsetInCU: 0xC84FC, offset: 0xC84FC, size: 0x8, addend: 0x0, symName: __ZNKSt3__117__compressed_pairIPNS_6threadENS_9allocatorIS1_EEE5firstB8ue170006Ev, symObjAddr: 0x5B58, symBinAddr: 0x100008110, symSize: 0x24 }
  - { offsetInCU: 0xC8522, offset: 0xC8522, size: 0x8, addend: 0x0, symName: __ZNKSt3__122__compressed_pair_elemIPNS_6threadELi0ELb0EE5__getB8ue170006Ev, symObjAddr: 0x5B7C, symBinAddr: 0x100008134, symSize: 0x14 }
  - { offsetInCU: 0xC8548, offset: 0xC8548, size: 0x8, addend: 0x0, symName: __ZNSt3__114__split_bufferINS_6threadERNS_9allocatorIS1_EEEC2EmmS4_, symObjAddr: 0x5BE4, symBinAddr: 0x10000819C, symSize: 0xD4 }
  - { offsetInCU: 0xC85BD, offset: 0xC85BD, size: 0x8, addend: 0x0, symName: __ZNSt3__117__compressed_pairIPNS_6threadERNS_9allocatorIS1_EEEC1B8ue170006IDnS5_EEOT_OT0_, symObjAddr: 0x5CB8, symBinAddr: 0x100008270, symSize: 0x3C }
  - { offsetInCU: 0xC8615, offset: 0xC8615, size: 0x8, addend: 0x0, symName: __ZNSt3__114__split_bufferINS_6threadERNS_9allocatorIS1_EEE7__allocB8ue170006Ev, symObjAddr: 0x5D34, symBinAddr: 0x1000082EC, symSize: 0x28 }
  - { offsetInCU: 0xC863B, offset: 0xC863B, size: 0x8, addend: 0x0, symName: __ZNSt3__114__split_bufferINS_6threadERNS_9allocatorIS1_EEE9__end_capB8ue170006Ev, symObjAddr: 0x5D5C, symBinAddr: 0x100008314, symSize: 0x28 }
  - { offsetInCU: 0xC8661, offset: 0xC8661, size: 0x8, addend: 0x0, symName: __ZNSt3__117__compressed_pairIPNS_6threadERNS_9allocatorIS1_EEEC2B8ue170006IDnS5_EEOT_OT0_, symObjAddr: 0x5D84, symBinAddr: 0x10000833C, symSize: 0x48 }
  - { offsetInCU: 0xC86B9, offset: 0xC86B9, size: 0x8, addend: 0x0, symName: __ZNSt3__122__compressed_pair_elemIRNS_9allocatorINS_6threadEEELi1ELb0EEC2B8ue170006IS4_vEEOT_, symObjAddr: 0x5DCC, symBinAddr: 0x100008384, symSize: 0x20 }
  - { offsetInCU: 0xC86FB, offset: 0xC86FB, size: 0x8, addend: 0x0, symName: __ZNSt3__19allocatorINS_6threadEE8allocateB8ue170006Em, symObjAddr: 0x5DEC, symBinAddr: 0x1000083A4, symSize: 0x58 }
  - { offsetInCU: 0xC872F, offset: 0xC872F, size: 0x8, addend: 0x0, symName: __ZNSt3__117__compressed_pairIPNS_6threadERNS_9allocatorIS1_EEE6secondB8ue170006Ev, symObjAddr: 0x5E44, symBinAddr: 0x1000083FC, symSize: 0x28 }
  - { offsetInCU: 0xC8755, offset: 0xC8755, size: 0x8, addend: 0x0, symName: __ZNSt3__122__compressed_pair_elemIRNS_9allocatorINS_6threadEEELi1ELb0EE5__getB8ue170006Ev, symObjAddr: 0x5E6C, symBinAddr: 0x100008424, symSize: 0x18 }
  - { offsetInCU: 0xC877B, offset: 0xC877B, size: 0x8, addend: 0x0, symName: __ZNSt3__117__compressed_pairIPNS_6threadERNS_9allocatorIS1_EEE5firstB8ue170006Ev, symObjAddr: 0x5E84, symBinAddr: 0x10000843C, symSize: 0x24 }
  - { offsetInCU: 0xC87A1, offset: 0xC87A1, size: 0x8, addend: 0x0, symName: __ZNKSt3__16vectorINS_6threadENS_9allocatorIS1_EEE17__annotate_deleteB8ue170006Ev, symObjAddr: 0x5EA8, symBinAddr: 0x100008460, symSize: 0xB8 }
  - { offsetInCU: 0xC87C7, offset: 0xC87C7, size: 0x8, addend: 0x0, symName: __ZNSt3__116reverse_iteratorIPNS_6threadEEC1B8ue170006ES2_, symObjAddr: 0x608C, symBinAddr: 0x100008644, symSize: 0x34 }
  - { offsetInCU: 0xC87FF, offset: 0xC87FF, size: 0x8, addend: 0x0, symName: __ZNKSt3__116reverse_iteratorIPNS_6threadEE4baseB8ue170006Ev, symObjAddr: 0x60C0, symBinAddr: 0x100008678, symSize: 0x18 }
  - { offsetInCU: 0xC8825, offset: 0xC8825, size: 0x8, addend: 0x0, symName: __ZNKSt3__16vectorINS_6threadENS_9allocatorIS1_EEE14__annotate_newB8ue170006Em, symObjAddr: 0x6114, symBinAddr: 0x1000086CC, symSize: 0xAC }
  - { offsetInCU: 0xC885A, offset: 0xC885A, size: 0x8, addend: 0x0, symName: __ZNKSt3__16vectorINS_6threadENS_9allocatorIS1_EEE31__annotate_contiguous_containerB8ue170006EPKvS6_S6_S6_, symObjAddr: 0x61C0, symBinAddr: 0x100008778, symSize: 0x20 }
  - { offsetInCU: 0xC88B0, offset: 0xC88B0, size: 0x8, addend: 0x0, symName: __ZNKSt3__16vectorINS_6threadENS_9allocatorIS1_EEE4dataB8ue170006Ev, symObjAddr: 0x61E0, symBinAddr: 0x100008798, symSize: 0x28 }
  - { offsetInCU: 0xC88D6, offset: 0xC88D6, size: 0x8, addend: 0x0, symName: __ZNSt3__129_AllocatorDestroyRangeReverseINS_9allocatorINS_6threadEEENS_16reverse_iteratorIPS2_EEEC1B8ue170006ERS3_RS6_S9_, symObjAddr: 0x6254, symBinAddr: 0x10000880C, symSize: 0x44 }
  - { offsetInCU: 0xC892D, offset: 0xC892D, size: 0x8, addend: 0x0, symName: __ZNSt3__116allocator_traitsINS_9allocatorINS_6threadEEEE9constructB8ue170006IS2_JS2_EvEEvRS3_PT_DpOT0_, symObjAddr: 0x62E0, symBinAddr: 0x100008898, symSize: 0x34 }
  - { offsetInCU: 0xC8984, offset: 0xC8984, size: 0x8, addend: 0x0, symName: __ZNKSt3__116reverse_iteratorIPNS_6threadEEdeB8ue170006Ev, symObjAddr: 0x6338, symBinAddr: 0x1000088F0, symSize: 0x28 }
  - { offsetInCU: 0xC89B9, offset: 0xC89B9, size: 0x8, addend: 0x0, symName: __ZNSt3__116reverse_iteratorIPNS_6threadEEppB8ue170006Ev, symObjAddr: 0x6360, symBinAddr: 0x100008918, symSize: 0x20 }
  - { offsetInCU: 0xC89DF, offset: 0xC89DF, size: 0x8, addend: 0x0, symName: __ZNSt3__128__exception_guard_exceptionsINS_29_AllocatorDestroyRangeReverseINS_9allocatorINS_6threadEEENS_16reverse_iteratorIPS3_EEEEE10__completeB8ue170006Ev, symObjAddr: 0x6380, symBinAddr: 0x100008938, symSize: 0x1C }
  - { offsetInCU: 0xC8A05, offset: 0xC8A05, size: 0x8, addend: 0x0, symName: __ZNSt3__128__exception_guard_exceptionsINS_29_AllocatorDestroyRangeReverseINS_9allocatorINS_6threadEEENS_16reverse_iteratorIPS3_EEEEED1B8ue170006Ev, symObjAddr: 0x639C, symBinAddr: 0x100008954, symSize: 0x2C }
  - { offsetInCU: 0xC8A2F, offset: 0xC8A2F, size: 0x8, addend: 0x0, symName: __ZNSt3__128__exception_guard_exceptionsINS_29_AllocatorDestroyRangeReverseINS_9allocatorINS_6threadEEENS_16reverse_iteratorIPS3_EEEEEC1B8ue170006ES8_, symObjAddr: 0x63C8, symBinAddr: 0x100008980, symSize: 0x34 }
  - { offsetInCU: 0xC8A68, offset: 0xC8A68, size: 0x8, addend: 0x0, symName: __ZNSt3__128__exception_guard_exceptionsINS_29_AllocatorDestroyRangeReverseINS_9allocatorINS_6threadEEENS_16reverse_iteratorIPS3_EEEEEC2B8ue170006ES8_, symObjAddr: 0x63FC, symBinAddr: 0x1000089B4, symSize: 0x30 }
  - { offsetInCU: 0xC8AA1, offset: 0xC8AA1, size: 0x8, addend: 0x0, symName: __ZNSt3__129_AllocatorDestroyRangeReverseINS_9allocatorINS_6threadEEENS_16reverse_iteratorIPS2_EEEC2B8ue170006ERS3_RS6_S9_, symObjAddr: 0x642C, symBinAddr: 0x1000089E4, symSize: 0x38 }
  - { offsetInCU: 0xC8AF8, offset: 0xC8AF8, size: 0x8, addend: 0x0, symName: __ZNSt3__19allocatorINS_6threadEE9constructB8ue170006IS1_JS1_EEEvPT_DpOT0_, symObjAddr: 0x6464, symBinAddr: 0x100008A1C, symSize: 0x30 }
  - { offsetInCU: 0xC8B4E, offset: 0xC8B4E, size: 0x8, addend: 0x0, symName: __ZNSt3__16threadC1B8ue170006EOS0_, symObjAddr: 0x6494, symBinAddr: 0x100008A4C, symSize: 0x34 }
  - { offsetInCU: 0xC8B86, offset: 0xC8B86, size: 0x8, addend: 0x0, symName: __ZNSt3__16threadC2B8ue170006EOS0_, symObjAddr: 0x64C8, symBinAddr: 0x100008A80, symSize: 0x2C }
  - { offsetInCU: 0xC8BC4, offset: 0xC8BC4, size: 0x8, addend: 0x0, symName: __ZNSt3__119__to_address_helperINS_16reverse_iteratorIPNS_6threadEEEvE6__callB8ue170006ERKS4_, symObjAddr: 0x64F4, symBinAddr: 0x100008AAC, symSize: 0x38 }
  - { offsetInCU: 0xC8BE7, offset: 0xC8BE7, size: 0x8, addend: 0x0, symName: __ZNKSt3__116reverse_iteratorIPNS_6threadEEptB8ue170006Ev, symObjAddr: 0x652C, symBinAddr: 0x100008AE4, symSize: 0x24 }
  - { offsetInCU: 0xC8C0D, offset: 0xC8C0D, size: 0x8, addend: 0x0, symName: __ZNSt3__128__exception_guard_exceptionsINS_29_AllocatorDestroyRangeReverseINS_9allocatorINS_6threadEEENS_16reverse_iteratorIPS3_EEEEED2B8ue170006Ev, symObjAddr: 0x6550, symBinAddr: 0x100008B08, symSize: 0x50 }
  - { offsetInCU: 0xC8C37, offset: 0xC8C37, size: 0x8, addend: 0x0, symName: __ZNKSt3__129_AllocatorDestroyRangeReverseINS_9allocatorINS_6threadEEENS_16reverse_iteratorIPS2_EEEclB8ue170006Ev, symObjAddr: 0x65A0, symBinAddr: 0x100008B58, symSize: 0xB4 }
  - { offsetInCU: 0xC8C5E, offset: 0xC8C5E, size: 0x8, addend: 0x0, symName: __ZNSt3__116reverse_iteratorINS0_IPNS_6threadEEEEC1B8ue170006ES3_, symObjAddr: 0x66C4, symBinAddr: 0x100008C7C, symSize: 0x3C }
  - { offsetInCU: 0xC8C96, offset: 0xC8C96, size: 0x8, addend: 0x0, symName: __ZNSt3__116allocator_traitsINS_9allocatorINS_6threadEEEE7destroyB8ue170006IS2_vEEvRS3_PT_, symObjAddr: 0x6760, symBinAddr: 0x100008D18, symSize: 0x2C }
  - { offsetInCU: 0xC8CD3, offset: 0xC8CD3, size: 0x8, addend: 0x0, symName: __ZNSt3__116reverse_iteratorINS0_IPNS_6threadEEEEppB8ue170006Ev, symObjAddr: 0x67B0, symBinAddr: 0x100008D68, symSize: 0x30 }
  - { offsetInCU: 0xC8CF9, offset: 0xC8CF9, size: 0x8, addend: 0x0, symName: __ZNKSt3__116reverse_iteratorINS0_IPNS_6threadEEEE4baseB8ue170006Ev, symObjAddr: 0x67E0, symBinAddr: 0x100008D98, symSize: 0x24 }
  - { offsetInCU: 0xC8D1F, offset: 0xC8D1F, size: 0x8, addend: 0x0, symName: __ZNSt3__19allocatorINS_6threadEE7destroyB8ue170006EPS1_, symObjAddr: 0x6804, symBinAddr: 0x100008DBC, symSize: 0x28 }
  - { offsetInCU: 0xC8D59, offset: 0xC8D59, size: 0x8, addend: 0x0, symName: __ZNSt3__119__to_address_helperINS_16reverse_iteratorINS1_IPNS_6threadEEEEEvE6__callB8ue170006ERKS5_, symObjAddr: 0x682C, symBinAddr: 0x100008DE4, symSize: 0x38 }
  - { offsetInCU: 0xC8D7C, offset: 0xC8D7C, size: 0x8, addend: 0x0, symName: __ZNKSt3__116reverse_iteratorINS0_IPNS_6threadEEEEptB8ue170006Ev, symObjAddr: 0x6864, symBinAddr: 0x100008E1C, symSize: 0x24 }
  - { offsetInCU: 0xC8DA2, offset: 0xC8DA2, size: 0x8, addend: 0x0, symName: __ZNKSt3__116reverse_iteratorINS0_IPNS_6threadEEEEdeB8ue170006Ev, symObjAddr: 0x6888, symBinAddr: 0x100008E40, symSize: 0x34 }
  - { offsetInCU: 0xC8DD7, offset: 0xC8DD7, size: 0x8, addend: 0x0, symName: __ZNSt3__116reverse_iteratorIPNS_6threadEEmmB8ue170006Ev, symObjAddr: 0x68BC, symBinAddr: 0x100008E74, symSize: 0x20 }
  - { offsetInCU: 0xC8DFD, offset: 0xC8DFD, size: 0x8, addend: 0x0, symName: __ZNSt3__116reverse_iteratorINS0_IPNS_6threadEEEEC2B8ue170006ES3_, symObjAddr: 0x68DC, symBinAddr: 0x100008E94, symSize: 0x2C }
  - { offsetInCU: 0xC8E35, offset: 0xC8E35, size: 0x8, addend: 0x0, symName: __ZNSt3__116reverse_iteratorIPNS_6threadEEC2B8ue170006ES2_, symObjAddr: 0x6908, symBinAddr: 0x100008EC0, symSize: 0x28 }
  - { offsetInCU: 0xC8E6D, offset: 0xC8E6D, size: 0x8, addend: 0x0, symName: __ZNSt3__114__split_bufferINS_6threadERNS_9allocatorIS1_EEED2Ev, symObjAddr: 0x6930, symBinAddr: 0x100008EE8, symSize: 0x8C }
  - { offsetInCU: 0xC8E99, offset: 0xC8E99, size: 0x8, addend: 0x0, symName: __ZNSt3__114__split_bufferINS_6threadERNS_9allocatorIS1_EEE5clearB8ue170006Ev, symObjAddr: 0x69BC, symBinAddr: 0x100008F74, symSize: 0x28 }
  - { offsetInCU: 0xC8EBF, offset: 0xC8EBF, size: 0x8, addend: 0x0, symName: __ZNSt3__116allocator_traitsINS_9allocatorINS_6threadEEEE10deallocateB8ue170006ERS3_PS2_m, symObjAddr: 0x69E4, symBinAddr: 0x100008F9C, symSize: 0x34 }
  - { offsetInCU: 0xC8F01, offset: 0xC8F01, size: 0x8, addend: 0x0, symName: __ZNKSt3__114__split_bufferINS_6threadERNS_9allocatorIS1_EEE8capacityB8ue170006Ev, symObjAddr: 0x6A18, symBinAddr: 0x100008FD0, symSize: 0x40 }
  - { offsetInCU: 0xC8F27, offset: 0xC8F27, size: 0x8, addend: 0x0, symName: __ZNSt3__114__split_bufferINS_6threadERNS_9allocatorIS1_EEE17__destruct_at_endB8ue170006EPS1_, symObjAddr: 0x6A58, symBinAddr: 0x100009010, symSize: 0x2C }
  - { offsetInCU: 0xC8F5B, offset: 0xC8F5B, size: 0x8, addend: 0x0, symName: __ZNSt3__114__split_bufferINS_6threadERNS_9allocatorIS1_EEE17__destruct_at_endB8ue170006EPS1_NS_17integral_constantIbLb0EEE, symObjAddr: 0x6A84, symBinAddr: 0x10000903C, symSize: 0x80 }
  - { offsetInCU: 0xC8F9B, offset: 0xC8F9B, size: 0x8, addend: 0x0, symName: __ZNSt3__19allocatorINS_6threadEE10deallocateB8ue170006EPS1_m, symObjAddr: 0x6B04, symBinAddr: 0x1000090BC, symSize: 0x40 }
  - { offsetInCU: 0xC8FDD, offset: 0xC8FDD, size: 0x8, addend: 0x0, symName: __ZNKSt3__114__split_bufferINS_6threadERNS_9allocatorIS1_EEE9__end_capB8ue170006Ev, symObjAddr: 0x6B44, symBinAddr: 0x1000090FC, symSize: 0x28 }
  - { offsetInCU: 0xC9003, offset: 0xC9003, size: 0x8, addend: 0x0, symName: __ZNKSt3__117__compressed_pairIPNS_6threadERNS_9allocatorIS1_EEE5firstB8ue170006Ev, symObjAddr: 0x6B6C, symBinAddr: 0x100009124, symSize: 0x24 }
  - { offsetInCU: 0xC9029, offset: 0xC9029, size: 0x8, addend: 0x0, symName: __ZN7httplib10ThreadPool6workerC2ERS0_, symObjAddr: 0x6B90, symBinAddr: 0x100009148, symSize: 0x20 }
  - { offsetInCU: 0xC9062, offset: 0xC9062, size: 0x8, addend: 0x0, symName: __ZNSt3__14listINS_8functionIFvvEEENS_9allocatorIS3_EEED2Ev, symObjAddr: 0x6BB0, symBinAddr: 0x100009168, symSize: 0x2C }
  - { offsetInCU: 0xC908F, offset: 0xC908F, size: 0x8, addend: 0x0, symName: __ZNSt3__110__list_impINS_8functionIFvvEEENS_9allocatorIS3_EEED2Ev, symObjAddr: 0x6BDC, symBinAddr: 0x100009194, symSize: 0x2C }
  - { offsetInCU: 0xC90BB, offset: 0xC90BB, size: 0x8, addend: 0x0, symName: __ZNSt3__110__list_impINS_8functionIFvvEEENS_9allocatorIS3_EEE5clearEv, symObjAddr: 0x6C08, symBinAddr: 0x1000091C0, symSize: 0xCC }
  - { offsetInCU: 0xC9141, offset: 0xC9141, size: 0x8, addend: 0x0, symName: __ZNKSt3__110__list_impINS_8functionIFvvEEENS_9allocatorIS3_EEE13__end_as_linkB8ue170006Ev, symObjAddr: 0x6CD4, symBinAddr: 0x10000928C, symSize: 0x28 }
  - { offsetInCU: 0xC9167, offset: 0xC9167, size: 0x8, addend: 0x0, symName: __ZNSt3__16vectorINS_6threadENS_9allocatorIS1_EEED2B8ue170006Ev, symObjAddr: 0x6CFC, symBinAddr: 0x1000092B4, symSize: 0x44 }
  - { offsetInCU: 0xC9191, offset: 0xC9191, size: 0x8, addend: 0x0, symName: __ZNSt3__16vectorINS_6threadENS_9allocatorIS1_EEE16__destroy_vectorC1B8ue170006ERS4_, symObjAddr: 0x6D40, symBinAddr: 0x1000092F8, symSize: 0x34 }
  - { offsetInCU: 0xC91CA, offset: 0xC91CA, size: 0x8, addend: 0x0, symName: __ZNSt3__16vectorINS_6threadENS_9allocatorIS1_EEE16__destroy_vectorclB8ue170006Ev, symObjAddr: 0x6D74, symBinAddr: 0x10000932C, symSize: 0x90 }
  - { offsetInCU: 0xC91F0, offset: 0xC91F0, size: 0x8, addend: 0x0, symName: __ZNSt3__16vectorINS_6threadENS_9allocatorIS1_EEE16__destroy_vectorC2B8ue170006ERS4_, symObjAddr: 0x6E04, symBinAddr: 0x1000093BC, symSize: 0x20 }
  - { offsetInCU: 0xC9229, offset: 0xC9229, size: 0x8, addend: 0x0, symName: __ZNSt3__16vectorINS_6threadENS_9allocatorIS1_EEE7__clearB8ue170006Ev, symObjAddr: 0x6E24, symBinAddr: 0x1000093DC, symSize: 0x28 }
  - { offsetInCU: 0xC924F, offset: 0xC924F, size: 0x8, addend: 0x0, symName: __ZNSt3__16vectorINS_6threadENS_9allocatorIS1_EEE22__base_destruct_at_endB8ue170006EPS1_, symObjAddr: 0x6E4C, symBinAddr: 0x100009404, symSize: 0x8C }
  - { offsetInCU: 0xC9294, offset: 0xC9294, size: 0x8, addend: 0x0, symName: __ZN7httplib10ThreadPoolD2Ev, symObjAddr: 0x6ED8, symBinAddr: 0x100009490, symSize: 0x5C }
  - { offsetInCU: 0xC92BE, offset: 0xC92BE, size: 0x8, addend: 0x0, symName: __ZNKSt3__14listINS_8functionIFvvEEENS_9allocatorIS3_EEE4sizeB8ue170006Ev, symObjAddr: 0x6F34, symBinAddr: 0x1000094EC, symSize: 0x28 }
  - { offsetInCU: 0xC92E4, offset: 0xC92E4, size: 0x8, addend: 0x0, symName: __ZNSt3__14listINS_8functionIFvvEEENS_9allocatorIS3_EEE9push_backEOS3_, symObjAddr: 0x6F5C, symBinAddr: 0x100009514, symSize: 0xF4 }
  - { offsetInCU: 0xC933B, offset: 0xC933B, size: 0x8, addend: 0x0, symName: __ZNSt3__14listINS_8functionIFvvEEENS_9allocatorIS3_EEE15__allocate_nodeB8ue170006ERNS4_INS_11__list_nodeIS3_PvEEEE, symObjAddr: 0x7050, symBinAddr: 0x100009608, symSize: 0x70 }
  - { offsetInCU: 0xC9380, offset: 0xC9380, size: 0x8, addend: 0x0, symName: __ZNSt3__116allocator_traitsINS_9allocatorINS_11__list_nodeINS_8functionIFvvEEEPvEEEEE9constructB8ue170006IS5_JS5_EvEEvRS8_PT_DpOT0_, symObjAddr: 0x70C0, symBinAddr: 0x100009678, symSize: 0x34 }
  - { offsetInCU: 0xC93D7, offset: 0xC93D7, size: 0x8, addend: 0x0, symName: __ZNKSt3__110unique_ptrINS_11__list_nodeINS_8functionIFvvEEEPvEENS_22__allocator_destructorINS_9allocatorIS6_EEEEEptB8ue170006Ev, symObjAddr: 0x70F4, symBinAddr: 0x1000096AC, symSize: 0x28 }
  - { offsetInCU: 0xC93FD, offset: 0xC93FD, size: 0x8, addend: 0x0, symName: __ZNSt3__14listINS_8functionIFvvEEENS_9allocatorIS3_EEE20__link_nodes_at_backEPNS_16__list_node_baseIS3_PvEESA_, symObjAddr: 0x711C, symBinAddr: 0x1000096D4, symSize: 0x60 }
  - { offsetInCU: 0xC9443, offset: 0xC9443, size: 0x8, addend: 0x0, symName: __ZNKSt3__110unique_ptrINS_11__list_nodeINS_8functionIFvvEEEPvEENS_22__allocator_destructorINS_9allocatorIS6_EEEEE3getB8ue170006Ev, symObjAddr: 0x717C, symBinAddr: 0x100009734, symSize: 0x28 }
  - { offsetInCU: 0xC9469, offset: 0xC9469, size: 0x8, addend: 0x0, symName: __ZNSt3__111__list_nodeINS_8functionIFvvEEEPvE9__as_linkB8ue170006Ev, symObjAddr: 0x71A4, symBinAddr: 0x10000975C, symSize: 0x24 }
  - { offsetInCU: 0xC948F, offset: 0xC948F, size: 0x8, addend: 0x0, symName: __ZNSt3__110unique_ptrINS_11__list_nodeINS_8functionIFvvEEEPvEENS_22__allocator_destructorINS_9allocatorIS6_EEEEE7releaseB8ue170006Ev, symObjAddr: 0x71C8, symBinAddr: 0x100009780, symSize: 0x44 }
  - { offsetInCU: 0xC94C5, offset: 0xC94C5, size: 0x8, addend: 0x0, symName: __ZNSt3__110unique_ptrINS_11__list_nodeINS_8functionIFvvEEEPvEENS_22__allocator_destructorINS_9allocatorIS6_EEEEED1B8ue170006Ev, symObjAddr: 0x720C, symBinAddr: 0x1000097C4, symSize: 0x2C }
  - { offsetInCU: 0xC94EF, offset: 0xC94EF, size: 0x8, addend: 0x0, symName: __ZNSt3__116allocator_traitsINS_9allocatorINS_11__list_nodeINS_8functionIFvvEEEPvEEEEE8allocateB8ue170006ERS8_m, symObjAddr: 0x7238, symBinAddr: 0x1000097F0, symSize: 0x2C }
  - { offsetInCU: 0xC9522, offset: 0xC9522, size: 0x8, addend: 0x0, symName: __ZNSt3__122__allocator_destructorINS_9allocatorINS_11__list_nodeINS_8functionIFvvEEEPvEEEEEC1B8ue170006ERS8_m, symObjAddr: 0x7264, symBinAddr: 0x10000981C, symSize: 0x3C }
  - { offsetInCU: 0xC956E, offset: 0xC956E, size: 0x8, addend: 0x0, symName: __ZNSt3__110unique_ptrINS_11__list_nodeINS_8functionIFvvEEEPvEENS_22__allocator_destructorINS_9allocatorIS6_EEEEEC1B8ue170006ILb1EvEEPS6_NS_16__dependent_typeINS_27__unique_ptr_deleter_sfinaeISA_EEXT_EE20__good_rval_ref_typeE, symObjAddr: 0x72A0, symBinAddr: 0x100009858, symSize: 0x3C }
  - { offsetInCU: 0xC95BF, offset: 0xC95BF, size: 0x8, addend: 0x0, symName: __ZNSt3__19allocatorINS_11__list_nodeINS_8functionIFvvEEEPvEEE8allocateB8ue170006Em, symObjAddr: 0x72DC, symBinAddr: 0x100009894, symSize: 0x5C }
  - { offsetInCU: 0xC95FE, offset: 0xC95FE, size: 0x8, addend: 0x0, symName: __ZNSt3__116allocator_traitsINS_9allocatorINS_11__list_nodeINS_8functionIFvvEEEPvEEEEE8max_sizeB8ue170006IS8_vEEmRKS8_, symObjAddr: 0x7338, symBinAddr: 0x1000098F0, symSize: 0x24 }
  - { offsetInCU: 0xC962C, offset: 0xC962C, size: 0x8, addend: 0x0, symName: __ZNKSt3__19allocatorINS_11__list_nodeINS_8functionIFvvEEEPvEEE8max_sizeB8ue170006Ev, symObjAddr: 0x735C, symBinAddr: 0x100009914, symSize: 0x18 }
  - { offsetInCU: 0xC9652, offset: 0xC9652, size: 0x8, addend: 0x0, symName: __ZNSt3__122__allocator_destructorINS_9allocatorINS_11__list_nodeINS_8functionIFvvEEEPvEEEEEC2B8ue170006ERS8_m, symObjAddr: 0x7374, symBinAddr: 0x10000992C, symSize: 0x2C }
  - { offsetInCU: 0xC9698, offset: 0xC9698, size: 0x8, addend: 0x0, symName: __ZNSt3__110unique_ptrINS_11__list_nodeINS_8functionIFvvEEEPvEENS_22__allocator_destructorINS_9allocatorIS6_EEEEEC2B8ue170006ILb1EvEEPS6_NS_16__dependent_typeINS_27__unique_ptr_deleter_sfinaeISA_EEXT_EE20__good_rval_ref_typeE, symObjAddr: 0x73A0, symBinAddr: 0x100009958, symSize: 0x48 }
  - { offsetInCU: 0xC96E9, offset: 0xC96E9, size: 0x8, addend: 0x0, symName: __ZNSt3__117__compressed_pairIPNS_11__list_nodeINS_8functionIFvvEEEPvEENS_22__allocator_destructorINS_9allocatorIS6_EEEEEC1B8ue170006IRS7_SB_EEOT_OT0_, symObjAddr: 0x73E8, symBinAddr: 0x1000099A0, symSize: 0x3C }
  - { offsetInCU: 0xC9741, offset: 0xC9741, size: 0x8, addend: 0x0, symName: __ZNSt3__117__compressed_pairIPNS_11__list_nodeINS_8functionIFvvEEEPvEENS_22__allocator_destructorINS_9allocatorIS6_EEEEEC2B8ue170006IRS7_SB_EEOT_OT0_, symObjAddr: 0x7424, symBinAddr: 0x1000099DC, symSize: 0x48 }
  - { offsetInCU: 0xC9799, offset: 0xC9799, size: 0x8, addend: 0x0, symName: __ZNSt3__122__compressed_pair_elemIPNS_11__list_nodeINS_8functionIFvvEEEPvEELi0ELb0EEC2B8ue170006IRS7_vEEOT_, symObjAddr: 0x746C, symBinAddr: 0x100009A24, symSize: 0x24 }
  - { offsetInCU: 0xC97DB, offset: 0xC97DB, size: 0x8, addend: 0x0, symName: __ZNSt3__122__compressed_pair_elemINS_22__allocator_destructorINS_9allocatorINS_11__list_nodeINS_8functionIFvvEEEPvEEEEEELi1ELb0EEC2B8ue170006ISA_vEEOT_, symObjAddr: 0x7490, symBinAddr: 0x100009A48, symSize: 0x24 }
  - { offsetInCU: 0xC981D, offset: 0xC981D, size: 0x8, addend: 0x0, symName: __ZNSt3__19allocatorINS_11__list_nodeINS_8functionIFvvEEEPvEEE9constructB8ue170006IS4_JS4_EEEvPT_DpOT0_, symObjAddr: 0x74B4, symBinAddr: 0x100009A6C, symSize: 0x30 }
  - { offsetInCU: 0xC9873, offset: 0xC9873, size: 0x8, addend: 0x0, symName: __ZNSt3__18functionIFvvEEC1EOS2_, symObjAddr: 0x74E4, symBinAddr: 0x100009A9C, symSize: 0x34 }
  - { offsetInCU: 0xC98AE, offset: 0xC98AE, size: 0x8, addend: 0x0, symName: __ZNSt3__18functionIFvvEEC2EOS2_, symObjAddr: 0x7518, symBinAddr: 0x100009AD0, symSize: 0x34 }
  - { offsetInCU: 0xC98E9, offset: 0xC98E9, size: 0x8, addend: 0x0, symName: __ZNSt3__110__function12__value_funcIFvvEEC1B8ue170006EOS3_, symObjAddr: 0x754C, symBinAddr: 0x100009B04, symSize: 0x34 }
  - { offsetInCU: 0xC9922, offset: 0xC9922, size: 0x8, addend: 0x0, symName: __ZNSt3__110__function12__value_funcIFvvEEC2B8ue170006EOS3_, symObjAddr: 0x7580, symBinAddr: 0x100009B38, symSize: 0xC4 }
  - { offsetInCU: 0xC995B, offset: 0xC995B, size: 0x8, addend: 0x0, symName: __ZNKSt3__117__compressed_pairIPNS_11__list_nodeINS_8functionIFvvEEEPvEENS_22__allocator_destructorINS_9allocatorIS6_EEEEE5firstB8ue170006Ev, symObjAddr: 0x7644, symBinAddr: 0x100009BFC, symSize: 0x24 }
  - { offsetInCU: 0xC9981, offset: 0xC9981, size: 0x8, addend: 0x0, symName: __ZNKSt3__122__compressed_pair_elemIPNS_11__list_nodeINS_8functionIFvvEEEPvEELi0ELb0EE5__getB8ue170006Ev, symObjAddr: 0x7668, symBinAddr: 0x100009C20, symSize: 0x14 }
  - { offsetInCU: 0xC99A7, offset: 0xC99A7, size: 0x8, addend: 0x0, symName: __ZNSt3__117__compressed_pairIPNS_11__list_nodeINS_8functionIFvvEEEPvEENS_22__allocator_destructorINS_9allocatorIS6_EEEEE5firstB8ue170006Ev, symObjAddr: 0x767C, symBinAddr: 0x100009C34, symSize: 0x24 }
  - { offsetInCU: 0xC99CD, offset: 0xC99CD, size: 0x8, addend: 0x0, symName: __ZNSt3__122__compressed_pair_elemIPNS_11__list_nodeINS_8functionIFvvEEEPvEELi0ELb0EE5__getB8ue170006Ev, symObjAddr: 0x76A0, symBinAddr: 0x100009C58, symSize: 0x14 }
  - { offsetInCU: 0xC99F3, offset: 0xC99F3, size: 0x8, addend: 0x0, symName: __ZNSt3__110unique_ptrINS_11__list_nodeINS_8functionIFvvEEEPvEENS_22__allocator_destructorINS_9allocatorIS6_EEEEED2B8ue170006Ev, symObjAddr: 0x76B4, symBinAddr: 0x100009C6C, symSize: 0x30 }
  - { offsetInCU: 0xC9A1D, offset: 0xC9A1D, size: 0x8, addend: 0x0, symName: __ZNSt3__110unique_ptrINS_11__list_nodeINS_8functionIFvvEEEPvEENS_22__allocator_destructorINS_9allocatorIS6_EEEEE5resetB8ue170006EPS6_, symObjAddr: 0x76E4, symBinAddr: 0x100009C9C, symSize: 0x78 }
  - { offsetInCU: 0xC9A62, offset: 0xC9A62, size: 0x8, addend: 0x0, symName: __ZNSt3__117__compressed_pairIPNS_11__list_nodeINS_8functionIFvvEEEPvEENS_22__allocator_destructorINS_9allocatorIS6_EEEEE6secondB8ue170006Ev, symObjAddr: 0x775C, symBinAddr: 0x100009D14, symSize: 0x28 }
  - { offsetInCU: 0xC9A88, offset: 0xC9A88, size: 0x8, addend: 0x0, symName: __ZNSt3__122__allocator_destructorINS_9allocatorINS_11__list_nodeINS_8functionIFvvEEEPvEEEEEclB8ue170006EPS7_, symObjAddr: 0x7784, symBinAddr: 0x100009D3C, symSize: 0x34 }
  - { offsetInCU: 0xC9ABC, offset: 0xC9ABC, size: 0x8, addend: 0x0, symName: __ZNSt3__122__compressed_pair_elemINS_22__allocator_destructorINS_9allocatorINS_11__list_nodeINS_8functionIFvvEEEPvEEEEEELi1ELb0EE5__getB8ue170006Ev, symObjAddr: 0x77B8, symBinAddr: 0x100009D70, symSize: 0x14 }
  - { offsetInCU: 0xC9AE2, offset: 0xC9AE2, size: 0x8, addend: 0x0, symName: __ZNSt3__16vectorINS_6threadENS_9allocatorIS1_EEE5beginB8ue170006Ev, symObjAddr: 0x77CC, symBinAddr: 0x100009D84, symSize: 0x30 }
  - { offsetInCU: 0xC9B0A, offset: 0xC9B0A, size: 0x8, addend: 0x0, symName: __ZNSt3__16vectorINS_6threadENS_9allocatorIS1_EEE3endB8ue170006Ev, symObjAddr: 0x77FC, symBinAddr: 0x100009DB4, symSize: 0x30 }
  - { offsetInCU: 0xC9B32, offset: 0xC9B32, size: 0x8, addend: 0x0, symName: __ZNKSt3__111__wrap_iterIPNS_6threadEEdeB8ue170006Ev, symObjAddr: 0x7860, symBinAddr: 0x100009E18, symSize: 0x18 }
  - { offsetInCU: 0xC9B58, offset: 0xC9B58, size: 0x8, addend: 0x0, symName: __ZNSt3__111__wrap_iterIPNS_6threadEEppB8ue170006Ev, symObjAddr: 0x7878, symBinAddr: 0x100009E30, symSize: 0x20 }
  - { offsetInCU: 0xC9B7E, offset: 0xC9B7E, size: 0x8, addend: 0x0, symName: __ZNSt3__16vectorINS_6threadENS_9allocatorIS1_EEE11__make_iterB8ue170006EPS1_, symObjAddr: 0x7898, symBinAddr: 0x100009E50, symSize: 0x30 }
  - { offsetInCU: 0xC9BB3, offset: 0xC9BB3, size: 0x8, addend: 0x0, symName: __ZNSt3__111__wrap_iterIPNS_6threadEEC1B8ue170006ES2_, symObjAddr: 0x78C8, symBinAddr: 0x100009E80, symSize: 0x34 }
  - { offsetInCU: 0xC9BEB, offset: 0xC9BEB, size: 0x8, addend: 0x0, symName: __ZNSt3__111__wrap_iterIPNS_6threadEEC2B8ue170006ES2_, symObjAddr: 0x78FC, symBinAddr: 0x100009EB4, symSize: 0x20 }
  - { offsetInCU: 0xC9C23, offset: 0xC9C23, size: 0x8, addend: 0x0, symName: __ZNKSt3__111__wrap_iterIPNS_6threadEE4baseB8ue170006Ev, symObjAddr: 0x7964, symBinAddr: 0x100009F1C, symSize: 0x18 }
  - { offsetInCU: 0xC9C49, offset: 0xC9C49, size: 0x8, addend: 0x0, symName: __ZNSt3__122__compressed_pair_elemIZN7httplib6ServerC1EvEUlvE_Li0ELb1EE5__getB8ue170006Ev, symObjAddr: 0x797C, symBinAddr: 0x100009F34, symSize: 0x14 }
  - { offsetInCU: 0xC9CA5, offset: 0xC9CA5, size: 0x8, addend: 0x0, symName: __ZNKSt9type_infoeqB8ue170006ERKS_, symObjAddr: 0x7990, symBinAddr: 0x100009F48, symSize: 0xDC }
  - { offsetInCU: 0xC9D43, offset: 0xC9D43, size: 0x8, addend: 0x0, symName: __ZNSt27__type_info_implementations30__non_unique_arm_rtti_bit_impl21__is_type_name_uniqueB8ue170006Em, symObjAddr: 0x7A6C, symBinAddr: 0x10000A024, symSize: 0x20 }
  - { offsetInCU: 0xC9D67, offset: 0xC9D67, size: 0x8, addend: 0x0, symName: __ZNSt3__16atomicIiEC2B8ue170006Ei, symObjAddr: 0x7A8C, symBinAddr: 0x10000A044, symSize: 0x34 }
  - { offsetInCU: 0xC9D9F, offset: 0xC9D9F, size: 0x8, addend: 0x0, symName: __ZNSt3__113__atomic_baseIiLb1EEC2B8ue170006Ei, symObjAddr: 0x7AC0, symBinAddr: 0x10000A078, symSize: 0x34 }
  - { offsetInCU: 0xC9DD7, offset: 0xC9DD7, size: 0x8, addend: 0x0, symName: __ZNSt3__113__atomic_baseIiLb0EEC2B8ue170006Ei, symObjAddr: 0x7AF4, symBinAddr: 0x10000A0AC, symSize: 0x34 }
  - { offsetInCU: 0xC9E0F, offset: 0xC9E0F, size: 0x8, addend: 0x0, symName: __ZNSt3__117__cxx_atomic_implIiNS_22__cxx_atomic_base_implIiEEEC1B8ue170006Ei, symObjAddr: 0x7B28, symBinAddr: 0x10000A0E0, symSize: 0x34 }
  - { offsetInCU: 0xC9E48, offset: 0xC9E48, size: 0x8, addend: 0x0, symName: __ZNSt3__117__cxx_atomic_implIiNS_22__cxx_atomic_base_implIiEEEC2B8ue170006Ei, symObjAddr: 0x7B5C, symBinAddr: 0x10000A114, symSize: 0x34 }
  - { offsetInCU: 0xC9E81, offset: 0xC9E81, size: 0x8, addend: 0x0, symName: __ZNSt3__122__cxx_atomic_base_implIiEC2Ei, symObjAddr: 0x7B90, symBinAddr: 0x10000A148, symSize: 0x20 }
  - { offsetInCU: 0xC9EBA, offset: 0xC9EBA, size: 0x8, addend: 0x0, symName: __ZNSt3__123__libcpp_numeric_limitsImLb1EE3maxB8ue170006Ev, symObjAddr: 0x7BB0, symBinAddr: 0x10000A168, symSize: 0x8 }
  - { offsetInCU: 0xC9ECE, offset: 0xC9ECE, size: 0x8, addend: 0x0, symName: __ZNSt3__16atomicIbEC2B8ue170006Eb, symObjAddr: 0x7BB8, symBinAddr: 0x10000A170, symSize: 0x40 }
  - { offsetInCU: 0xC9F06, offset: 0xC9F06, size: 0x8, addend: 0x0, symName: __ZNSt3__113__atomic_baseIbLb0EEC2B8ue170006Eb, symObjAddr: 0x7BF8, symBinAddr: 0x10000A1B0, symSize: 0x40 }
  - { offsetInCU: 0xC9F3E, offset: 0xC9F3E, size: 0x8, addend: 0x0, symName: __ZNSt3__117__cxx_atomic_implIbNS_22__cxx_atomic_base_implIbEEEC1B8ue170006Eb, symObjAddr: 0x7C38, symBinAddr: 0x10000A1F0, symSize: 0x40 }
  - { offsetInCU: 0xC9F77, offset: 0xC9F77, size: 0x8, addend: 0x0, symName: __ZNSt3__117__cxx_atomic_implIbNS_22__cxx_atomic_base_implIbEEEC2B8ue170006Eb, symObjAddr: 0x7C78, symBinAddr: 0x10000A230, symSize: 0x40 }
  - { offsetInCU: 0xC9FB0, offset: 0xC9FB0, size: 0x8, addend: 0x0, symName: __ZNSt3__122__cxx_atomic_base_implIbEC2Eb, symObjAddr: 0x7CB8, symBinAddr: 0x10000A270, symSize: 0x2C }
  - { offsetInCU: 0xC9FE9, offset: 0xC9FE9, size: 0x8, addend: 0x0, symName: __ZNSt3__16vectorIN7httplib6Server15MountPointEntryENS_9allocatorIS3_EEEC2B8ue170006Ev, symObjAddr: 0x7CE4, symBinAddr: 0x10000A29C, symSize: 0x4C }
  - { offsetInCU: 0xCA013, offset: 0xCA013, size: 0x8, addend: 0x0, symName: __ZNSt3__117__compressed_pairIPN7httplib6Server15MountPointEntryENS_9allocatorIS3_EEEC1B8ue170006IDnNS_18__default_init_tagEEEOT_OT0_, symObjAddr: 0x7D30, symBinAddr: 0x10000A2E8, symSize: 0x3C }
  - { offsetInCU: 0xCA06B, offset: 0xCA06B, size: 0x8, addend: 0x0, symName: __ZNSt3__117__compressed_pairIPN7httplib6Server15MountPointEntryENS_9allocatorIS3_EEEC2B8ue170006IDnNS_18__default_init_tagEEEOT_OT0_, symObjAddr: 0x7D6C, symBinAddr: 0x10000A324, symSize: 0x40 }
  - { offsetInCU: 0xCA0C3, offset: 0xCA0C3, size: 0x8, addend: 0x0, symName: __ZNSt3__122__compressed_pair_elemIPN7httplib6Server15MountPointEntryELi0ELb0EEC2B8ue170006IDnvEEOT_, symObjAddr: 0x7DAC, symBinAddr: 0x10000A364, symSize: 0x1C }
  - { offsetInCU: 0xCA105, offset: 0xCA105, size: 0x8, addend: 0x0, symName: __ZNSt3__122__compressed_pair_elemINS_9allocatorIN7httplib6Server15MountPointEntryEEELi1ELb1EEC2B8ue170006ENS_18__default_init_tagE, symObjAddr: 0x7DC8, symBinAddr: 0x10000A380, symSize: 0x2C }
  - { offsetInCU: 0xCA139, offset: 0xCA139, size: 0x8, addend: 0x0, symName: __ZNSt3__19allocatorIN7httplib6Server15MountPointEntryEEC2B8ue170006Ev, symObjAddr: 0x7DF4, symBinAddr: 0x10000A3AC, symSize: 0x2C }
  - { offsetInCU: 0xCA163, offset: 0xCA163, size: 0x8, addend: 0x0, symName: __ZNSt3__116__non_trivial_ifILb1ENS_9allocatorIN7httplib6Server15MountPointEntryEEEEC2B8ue170006Ev, symObjAddr: 0x7E20, symBinAddr: 0x10000A3D8, symSize: 0x14 }
  - { offsetInCU: 0xCA18D, offset: 0xCA18D, size: 0x8, addend: 0x0, symName: __ZNSt3__13mapINS_12basic_stringIcNS_11char_traitsIcEENS_9allocatorIcEEEES6_NS_4lessIS6_EENS4_INS_4pairIKS6_S6_EEEEEC2B8ue170006Ev, symObjAddr: 0x7E34, symBinAddr: 0x10000A3EC, symSize: 0x40 }
  - { offsetInCU: 0xCA1B7, offset: 0xCA1B7, size: 0x8, addend: 0x0, symName: __ZNSt3__119__map_value_compareINS_12basic_stringIcNS_11char_traitsIcEENS_9allocatorIcEEEENS_12__value_typeIS6_S6_EENS_4lessIS6_EELb1EEC1B8ue170006ESA_, symObjAddr: 0x7E74, symBinAddr: 0x10000A42C, symSize: 0x2C }
  - { offsetInCU: 0xCA1F0, offset: 0xCA1F0, size: 0x8, addend: 0x0, symName: __ZNSt3__16__treeINS_12__value_typeINS_12basic_stringIcNS_11char_traitsIcEENS_9allocatorIcEEEES7_EENS_19__map_value_compareIS7_S8_NS_4lessIS7_EELb1EEENS5_IS8_EEEC1ERKSC_, symObjAddr: 0x7EA0, symBinAddr: 0x10000A458, symSize: 0x34 }
  - { offsetInCU: 0xCA22B, offset: 0xCA22B, size: 0x8, addend: 0x0, symName: __ZNSt3__119__map_value_compareINS_12basic_stringIcNS_11char_traitsIcEENS_9allocatorIcEEEENS_12__value_typeIS6_S6_EENS_4lessIS6_EELb1EEC2B8ue170006ESA_, symObjAddr: 0x7ED4, symBinAddr: 0x10000A48C, symSize: 0x14 }
  - { offsetInCU: 0xCA264, offset: 0xCA264, size: 0x8, addend: 0x0, symName: __ZNSt3__16__treeINS_12__value_typeINS_12basic_stringIcNS_11char_traitsIcEENS_9allocatorIcEEEES7_EENS_19__map_value_compareIS7_S8_NS_4lessIS7_EELb1EEENS5_IS8_EEEC2ERKSC_, symObjAddr: 0x7EE8, symBinAddr: 0x10000A4A0, symSize: 0x7C }
  - { offsetInCU: 0xCA29F, offset: 0xCA29F, size: 0x8, addend: 0x0, symName: __ZNSt3__117__compressed_pairINS_15__tree_end_nodeIPNS_16__tree_node_baseIPvEEEENS_9allocatorINS_11__tree_nodeINS_12__value_typeINS_12basic_stringIcNS_11char_traitsIcEENS7_IcEEEESE_EES3_EEEEEC1B8ue170006ILb1EvEEv, symObjAddr: 0x7F64, symBinAddr: 0x10000A51C, symSize: 0x2C }
  - { offsetInCU: 0xCA2D4, offset: 0xCA2D4, size: 0x8, addend: 0x0, symName: __ZNSt3__117__compressed_pairImNS_19__map_value_compareINS_12basic_stringIcNS_11char_traitsIcEENS_9allocatorIcEEEENS_12__value_typeIS7_S7_EENS_4lessIS7_EELb1EEEEC1B8ue170006IiRKSC_EEOT_OT0_, symObjAddr: 0x7F90, symBinAddr: 0x10000A548, symSize: 0x3C }
  - { offsetInCU: 0xCA32C, offset: 0xCA32C, size: 0x8, addend: 0x0, symName: __ZNSt3__16__treeINS_12__value_typeINS_12basic_stringIcNS_11char_traitsIcEENS_9allocatorIcEEEES7_EENS_19__map_value_compareIS7_S8_NS_4lessIS7_EELb1EEENS5_IS8_EEE10__end_nodeB8ue170006Ev, symObjAddr: 0x7FCC, symBinAddr: 0x10000A584, symSize: 0x2C }
  - { offsetInCU: 0xCA352, offset: 0xCA352, size: 0x8, addend: 0x0, symName: __ZNSt3__16__treeINS_12__value_typeINS_12basic_stringIcNS_11char_traitsIcEENS_9allocatorIcEEEES7_EENS_19__map_value_compareIS7_S8_NS_4lessIS7_EELb1EEENS5_IS8_EEE12__begin_nodeB8ue170006Ev, symObjAddr: 0x7FF8, symBinAddr: 0x10000A5B0, symSize: 0x14 }
  - { offsetInCU: 0xCA378, offset: 0xCA378, size: 0x8, addend: 0x0, symName: __ZNSt3__117__compressed_pairINS_15__tree_end_nodeIPNS_16__tree_node_baseIPvEEEENS_9allocatorINS_11__tree_nodeINS_12__value_typeINS_12basic_stringIcNS_11char_traitsIcEENS7_IcEEEESE_EES3_EEEEEC2B8ue170006ILb1EvEEv, symObjAddr: 0x800C, symBinAddr: 0x10000A5C4, symSize: 0x34 }
  - { offsetInCU: 0xCA3AD, offset: 0xCA3AD, size: 0x8, addend: 0x0, symName: __ZNSt3__122__compressed_pair_elemINS_15__tree_end_nodeIPNS_16__tree_node_baseIPvEEEELi0ELb0EEC2B8ue170006ENS_16__value_init_tagE, symObjAddr: 0x8040, symBinAddr: 0x10000A5F8, symSize: 0x2C }
  - { offsetInCU: 0xCA3E1, offset: 0xCA3E1, size: 0x8, addend: 0x0, symName: __ZNSt3__122__compressed_pair_elemINS_9allocatorINS_11__tree_nodeINS_12__value_typeINS_12basic_stringIcNS_11char_traitsIcEENS1_IcEEEES8_EEPvEEEELi1ELb1EEC2B8ue170006ENS_16__value_init_tagE, symObjAddr: 0x806C, symBinAddr: 0x10000A624, symSize: 0x2C }
  - { offsetInCU: 0xCA415, offset: 0xCA415, size: 0x8, addend: 0x0, symName: __ZNSt3__115__tree_end_nodeIPNS_16__tree_node_baseIPvEEEC1B8ue170006Ev, symObjAddr: 0x8098, symBinAddr: 0x10000A650, symSize: 0x2C }
  - { offsetInCU: 0xCA43F, offset: 0xCA43F, size: 0x8, addend: 0x0, symName: __ZNSt3__115__tree_end_nodeIPNS_16__tree_node_baseIPvEEEC2B8ue170006Ev, symObjAddr: 0x80C4, symBinAddr: 0x10000A67C, symSize: 0x18 }
  - { offsetInCU: 0xCA469, offset: 0xCA469, size: 0x8, addend: 0x0, symName: __ZNSt3__19allocatorINS_11__tree_nodeINS_12__value_typeINS_12basic_stringIcNS_11char_traitsIcEENS0_IcEEEES7_EEPvEEEC2B8ue170006Ev, symObjAddr: 0x80DC, symBinAddr: 0x10000A694, symSize: 0x2C }
  - { offsetInCU: 0xCA493, offset: 0xCA493, size: 0x8, addend: 0x0, symName: __ZNSt3__116__non_trivial_ifILb1ENS_9allocatorINS_11__tree_nodeINS_12__value_typeINS_12basic_stringIcNS_11char_traitsIcEENS1_IcEEEES8_EEPvEEEEEC2B8ue170006Ev, symObjAddr: 0x8108, symBinAddr: 0x10000A6C0, symSize: 0x14 }
  - { offsetInCU: 0xCA4BD, offset: 0xCA4BD, size: 0x8, addend: 0x0, symName: __ZNSt3__117__compressed_pairImNS_19__map_value_compareINS_12basic_stringIcNS_11char_traitsIcEENS_9allocatorIcEEEENS_12__value_typeIS7_S7_EENS_4lessIS7_EELb1EEEEC2B8ue170006IiRKSC_EEOT_OT0_, symObjAddr: 0x811C, symBinAddr: 0x10000A6D4, symSize: 0x44 }
  - { offsetInCU: 0xCA515, offset: 0xCA515, size: 0x8, addend: 0x0, symName: __ZNSt3__122__compressed_pair_elemINS_19__map_value_compareINS_12basic_stringIcNS_11char_traitsIcEENS_9allocatorIcEEEENS_12__value_typeIS7_S7_EENS_4lessIS7_EELb1EEELi1ELb1EEC2B8ue170006IRKSC_vEEOT_, symObjAddr: 0x8160, symBinAddr: 0x10000A718, symSize: 0x18 }
  - { offsetInCU: 0xCA557, offset: 0xCA557, size: 0x8, addend: 0x0, symName: __ZNSt3__114pointer_traitsIPNS_15__tree_end_nodeIPNS_16__tree_node_baseIPvEEEEE10pointer_toB8ue170006ERS6_, symObjAddr: 0x8178, symBinAddr: 0x10000A730, symSize: 0x14 }
  - { offsetInCU: 0xCA57A, offset: 0xCA57A, size: 0x8, addend: 0x0, symName: __ZNSt3__117__compressed_pairINS_15__tree_end_nodeIPNS_16__tree_node_baseIPvEEEENS_9allocatorINS_11__tree_nodeINS_12__value_typeINS_12basic_stringIcNS_11char_traitsIcEENS7_IcEEEESE_EES3_EEEEE5firstB8ue170006Ev, symObjAddr: 0x818C, symBinAddr: 0x10000A744, symSize: 0x24 }
  - { offsetInCU: 0xCA5A0, offset: 0xCA5A0, size: 0x8, addend: 0x0, symName: __ZNSt3__122__compressed_pair_elemINS_15__tree_end_nodeIPNS_16__tree_node_baseIPvEEEELi0ELb0EE5__getB8ue170006Ev, symObjAddr: 0x81B0, symBinAddr: 0x10000A768, symSize: 0x14 }
  - { offsetInCU: 0xCA5C6, offset: 0xCA5C6, size: 0x8, addend: 0x0, symName: __ZNSt3__18functionIFvRKN7httplib7RequestERNS1_8ResponseEEEC2B8ue170006Ev, symObjAddr: 0x81C4, symBinAddr: 0x10000A77C, symSize: 0x2C }
  - { offsetInCU: 0xCA5F0, offset: 0xCA5F0, size: 0x8, addend: 0x0, symName: __ZNSt3__110__function12__value_funcIFvRKN7httplib7RequestERNS2_8ResponseEEEC1B8ue170006Ev, symObjAddr: 0x81F0, symBinAddr: 0x10000A7A8, symSize: 0x2C }
  - { offsetInCU: 0xCA61A, offset: 0xCA61A, size: 0x8, addend: 0x0, symName: __ZNSt3__110__function12__value_funcIFvRKN7httplib7RequestERNS2_8ResponseEEEC2B8ue170006Ev, symObjAddr: 0x821C, symBinAddr: 0x10000A7D4, symSize: 0x18 }
  - { offsetInCU: 0xCA644, offset: 0xCA644, size: 0x8, addend: 0x0, symName: __ZNSt3__16vectorINS_4pairINS_10unique_ptrIN7httplib6detail11MatcherBaseENS_14default_deleteIS5_EEEENS_8functionIFvRKNS3_7RequestERNS3_8ResponseEEEEEENS_9allocatorISH_EEEC2B8ue170006Ev, symObjAddr: 0x8234, symBinAddr: 0x10000A7EC, symSize: 0x4C }
  - { offsetInCU: 0xCA66E, offset: 0xCA66E, size: 0x8, addend: 0x0, symName: __ZNSt3__117__compressed_pairIPNS_4pairINS_10unique_ptrIN7httplib6detail11MatcherBaseENS_14default_deleteIS5_EEEENS_8functionIFvRKNS3_7RequestERNS3_8ResponseEEEEEENS_9allocatorISH_EEEC1B8ue170006IDnNS_18__default_init_tagEEEOT_OT0_, symObjAddr: 0x8280, symBinAddr: 0x10000A838, symSize: 0x3C }
  - { offsetInCU: 0xCA6C6, offset: 0xCA6C6, size: 0x8, addend: 0x0, symName: __ZNSt3__117__compressed_pairIPNS_4pairINS_10unique_ptrIN7httplib6detail11MatcherBaseENS_14default_deleteIS5_EEEENS_8functionIFvRKNS3_7RequestERNS3_8ResponseEEEEEENS_9allocatorISH_EEEC2B8ue170006IDnNS_18__default_init_tagEEEOT_OT0_, symObjAddr: 0x82BC, symBinAddr: 0x10000A874, symSize: 0x40 }
  - { offsetInCU: 0xCA71E, offset: 0xCA71E, size: 0x8, addend: 0x0, symName: __ZNSt3__122__compressed_pair_elemIPNS_4pairINS_10unique_ptrIN7httplib6detail11MatcherBaseENS_14default_deleteIS5_EEEENS_8functionIFvRKNS3_7RequestERNS3_8ResponseEEEEEELi0ELb0EEC2B8ue170006IDnvEEOT_, symObjAddr: 0x82FC, symBinAddr: 0x10000A8B4, symSize: 0x1C }
  - { offsetInCU: 0xCA760, offset: 0xCA760, size: 0x8, addend: 0x0, symName: __ZNSt3__122__compressed_pair_elemINS_9allocatorINS_4pairINS_10unique_ptrIN7httplib6detail11MatcherBaseENS_14default_deleteIS6_EEEENS_8functionIFvRKNS4_7RequestERNS4_8ResponseEEEEEEEELi1ELb1EEC2B8ue170006ENS_18__default_init_tagE, symObjAddr: 0x8318, symBinAddr: 0x10000A8D0, symSize: 0x2C }
  - { offsetInCU: 0xCA794, offset: 0xCA794, size: 0x8, addend: 0x0, symName: __ZNSt3__19allocatorINS_4pairINS_10unique_ptrIN7httplib6detail11MatcherBaseENS_14default_deleteIS5_EEEENS_8functionIFvRKNS3_7RequestERNS3_8ResponseEEEEEEEC2B8ue170006Ev, symObjAddr: 0x8344, symBinAddr: 0x10000A8FC, symSize: 0x2C }
  - { offsetInCU: 0xCA7BE, offset: 0xCA7BE, size: 0x8, addend: 0x0, symName: __ZNSt3__116__non_trivial_ifILb1ENS_9allocatorINS_4pairINS_10unique_ptrIN7httplib6detail11MatcherBaseENS_14default_deleteIS6_EEEENS_8functionIFvRKNS4_7RequestERNS4_8ResponseEEEEEEEEEC2B8ue170006Ev, symObjAddr: 0x8370, symBinAddr: 0x10000A928, symSize: 0x14 }
  - { offsetInCU: 0xCA7E8, offset: 0xCA7E8, size: 0x8, addend: 0x0, symName: __ZNSt3__16vectorINS_4pairINS_10unique_ptrIN7httplib6detail11MatcherBaseENS_14default_deleteIS5_EEEENS_8functionIFvRKNS3_7RequestERNS3_8ResponseERKNS3_13ContentReaderEEEEEENS_9allocatorISK_EEEC2B8ue170006Ev, symObjAddr: 0x8384, symBinAddr: 0x10000A93C, symSize: 0x4C }
  - { offsetInCU: 0xCA812, offset: 0xCA812, size: 0x8, addend: 0x0, symName: __ZNSt3__117__compressed_pairIPNS_4pairINS_10unique_ptrIN7httplib6detail11MatcherBaseENS_14default_deleteIS5_EEEENS_8functionIFvRKNS3_7RequestERNS3_8ResponseERKNS3_13ContentReaderEEEEEENS_9allocatorISK_EEEC1B8ue170006IDnNS_18__default_init_tagEEEOT_OT0_, symObjAddr: 0x83D0, symBinAddr: 0x10000A988, symSize: 0x3C }
  - { offsetInCU: 0xCA86A, offset: 0xCA86A, size: 0x8, addend: 0x0, symName: __ZNSt3__117__compressed_pairIPNS_4pairINS_10unique_ptrIN7httplib6detail11MatcherBaseENS_14default_deleteIS5_EEEENS_8functionIFvRKNS3_7RequestERNS3_8ResponseERKNS3_13ContentReaderEEEEEENS_9allocatorISK_EEEC2B8ue170006IDnNS_18__default_init_tagEEEOT_OT0_, symObjAddr: 0x840C, symBinAddr: 0x10000A9C4, symSize: 0x40 }
  - { offsetInCU: 0xCA8C2, offset: 0xCA8C2, size: 0x8, addend: 0x0, symName: __ZNSt3__122__compressed_pair_elemIPNS_4pairINS_10unique_ptrIN7httplib6detail11MatcherBaseENS_14default_deleteIS5_EEEENS_8functionIFvRKNS3_7RequestERNS3_8ResponseERKNS3_13ContentReaderEEEEEELi0ELb0EEC2B8ue170006IDnvEEOT_, symObjAddr: 0x844C, symBinAddr: 0x10000AA04, symSize: 0x1C }
  - { offsetInCU: 0xCA904, offset: 0xCA904, size: 0x8, addend: 0x0, symName: __ZNSt3__122__compressed_pair_elemINS_9allocatorINS_4pairINS_10unique_ptrIN7httplib6detail11MatcherBaseENS_14default_deleteIS6_EEEENS_8functionIFvRKNS4_7RequestERNS4_8ResponseERKNS4_13ContentReaderEEEEEEEELi1ELb1EEC2B8ue170006ENS_18__default_init_tagE, symObjAddr: 0x8468, symBinAddr: 0x10000AA20, symSize: 0x2C }
  - { offsetInCU: 0xCA938, offset: 0xCA938, size: 0x8, addend: 0x0, symName: __ZNSt3__19allocatorINS_4pairINS_10unique_ptrIN7httplib6detail11MatcherBaseENS_14default_deleteIS5_EEEENS_8functionIFvRKNS3_7RequestERNS3_8ResponseERKNS3_13ContentReaderEEEEEEEC2B8ue170006Ev, symObjAddr: 0x8494, symBinAddr: 0x10000AA4C, symSize: 0x2C }
  - { offsetInCU: 0xCA962, offset: 0xCA962, size: 0x8, addend: 0x0, symName: __ZNSt3__116__non_trivial_ifILb1ENS_9allocatorINS_4pairINS_10unique_ptrIN7httplib6detail11MatcherBaseENS_14default_deleteIS6_EEEENS_8functionIFvRKNS4_7RequestERNS4_8ResponseERKNS4_13ContentReaderEEEEEEEEEC2B8ue170006Ev, symObjAddr: 0x84C0, symBinAddr: 0x10000AA78, symSize: 0x14 }
  - { offsetInCU: 0xCA98C, offset: 0xCA98C, size: 0x8, addend: 0x0, symName: __ZNSt3__18functionIFN7httplib6Server15HandlerResponseERKNS1_7RequestERNS1_8ResponseEEEC2B8ue170006Ev, symObjAddr: 0x84D4, symBinAddr: 0x10000AA8C, symSize: 0x2C }
  - { offsetInCU: 0xCA9B6, offset: 0xCA9B6, size: 0x8, addend: 0x0, symName: __ZNSt3__110__function12__value_funcIFN7httplib6Server15HandlerResponseERKNS2_7RequestERNS2_8ResponseEEEC1B8ue170006Ev, symObjAddr: 0x8500, symBinAddr: 0x10000AAB8, symSize: 0x2C }
  - { offsetInCU: 0xCA9E0, offset: 0xCA9E0, size: 0x8, addend: 0x0, symName: __ZNSt3__110__function12__value_funcIFN7httplib6Server15HandlerResponseERKNS2_7RequestERNS2_8ResponseEEEC2B8ue170006Ev, symObjAddr: 0x852C, symBinAddr: 0x10000AAE4, symSize: 0x18 }
  - { offsetInCU: 0xCAA0A, offset: 0xCAA0A, size: 0x8, addend: 0x0, symName: __ZNSt3__18functionIFvRKN7httplib7RequestERNS1_8ResponseESt13exception_ptrEEC2B8ue170006Ev, symObjAddr: 0x8544, symBinAddr: 0x10000AAFC, symSize: 0x2C }
  - { offsetInCU: 0xCAA34, offset: 0xCAA34, size: 0x8, addend: 0x0, symName: __ZNSt3__110__function12__value_funcIFvRKN7httplib7RequestERNS2_8ResponseESt13exception_ptrEEC1B8ue170006Ev, symObjAddr: 0x8570, symBinAddr: 0x10000AB28, symSize: 0x2C }
  - { offsetInCU: 0xCAA5E, offset: 0xCAA5E, size: 0x8, addend: 0x0, symName: __ZNSt3__110__function12__value_funcIFvRKN7httplib7RequestERNS2_8ResponseESt13exception_ptrEEC2B8ue170006Ev, symObjAddr: 0x859C, symBinAddr: 0x10000AB54, symSize: 0x18 }
  - { offsetInCU: 0xCAA88, offset: 0xCAA88, size: 0x8, addend: 0x0, symName: __ZNSt3__18functionIFiRKN7httplib7RequestERNS1_8ResponseEEEC2B8ue170006Ev, symObjAddr: 0x85B4, symBinAddr: 0x10000AB6C, symSize: 0x2C }
  - { offsetInCU: 0xCAAB2, offset: 0xCAAB2, size: 0x8, addend: 0x0, symName: __ZNSt3__110__function12__value_funcIFiRKN7httplib7RequestERNS2_8ResponseEEEC1B8ue170006Ev, symObjAddr: 0x85E0, symBinAddr: 0x10000AB98, symSize: 0x2C }
  - { offsetInCU: 0xCAADC, offset: 0xCAADC, size: 0x8, addend: 0x0, symName: __ZNSt3__110__function12__value_funcIFiRKN7httplib7RequestERNS2_8ResponseEEEC2B8ue170006Ev, symObjAddr: 0x860C, symBinAddr: 0x10000ABC4, symSize: 0x18 }
  - { offsetInCU: 0xCAB06, offset: 0xCAB06, size: 0x8, addend: 0x0, symName: __ZNSt3__18functionIFvRKN7httplib7RequestERKNS1_8ResponseEEEC2B8ue170006Ev, symObjAddr: 0x8624, symBinAddr: 0x10000ABDC, symSize: 0x2C }
  - { offsetInCU: 0xCAB30, offset: 0xCAB30, size: 0x8, addend: 0x0, symName: __ZNSt3__110__function12__value_funcIFvRKN7httplib7RequestERKNS2_8ResponseEEEC1B8ue170006Ev, symObjAddr: 0x8650, symBinAddr: 0x10000AC08, symSize: 0x2C }
  - { offsetInCU: 0xCAB5A, offset: 0xCAB5A, size: 0x8, addend: 0x0, symName: __ZNSt3__110__function12__value_funcIFvRKN7httplib7RequestERKNS2_8ResponseEEEC2B8ue170006Ev, symObjAddr: 0x867C, symBinAddr: 0x10000AC34, symSize: 0x18 }
  - { offsetInCU: 0xCAB84, offset: 0xCAB84, size: 0x8, addend: 0x0, symName: __ZNSt3__18functionIFviEEC2IPS1_vEET_, symObjAddr: 0x8694, symBinAddr: 0x10000AC4C, symSize: 0x38 }
  - { offsetInCU: 0xCABC9, offset: 0xCABC9, size: 0x8, addend: 0x0, symName: __ZNSt3__110__function12__value_funcIFviEEC1B8ue170006IPS2_vEEOT_, symObjAddr: 0x86CC, symBinAddr: 0x10000AC84, symSize: 0x50 }
  - { offsetInCU: 0xCAC0C, offset: 0xCAC0C, size: 0x8, addend: 0x0, symName: __ZNSt3__19allocatorIPFviEEC1B8ue170006Ev, symObjAddr: 0x871C, symBinAddr: 0x10000ACD4, symSize: 0x2C }
  - { offsetInCU: 0xCAC36, offset: 0xCAC36, size: 0x8, addend: 0x0, symName: __ZNSt3__110__function12__value_funcIFviEEC1B8ue170006IPS2_NS_9allocatorIS5_EEEEOT_RKT0_, symObjAddr: 0x8748, symBinAddr: 0x10000AD00, symSize: 0x3C }
  - { offsetInCU: 0xCAC90, offset: 0xCAC90, size: 0x8, addend: 0x0, symName: __ZNSt3__19allocatorIPFviEEC2B8ue170006Ev, symObjAddr: 0x8784, symBinAddr: 0x10000AD3C, symSize: 0x2C }
  - { offsetInCU: 0xCACBA, offset: 0xCACBA, size: 0x8, addend: 0x0, symName: __ZNSt3__116__non_trivial_ifILb1ENS_9allocatorIPFviEEEEC2B8ue170006Ev, symObjAddr: 0x87B0, symBinAddr: 0x10000AD68, symSize: 0x14 }
  - { offsetInCU: 0xCACE4, offset: 0xCACE4, size: 0x8, addend: 0x0, symName: __ZNSt3__110__function12__value_funcIFviEEC2B8ue170006IPS2_NS_9allocatorIS5_EEEEOT_RKT0_, symObjAddr: 0x87C4, symBinAddr: 0x10000AD7C, symSize: 0x98 }
  - { offsetInCU: 0xCAD92, offset: 0xCAD92, size: 0x8, addend: 0x0, symName: __ZNSt3__19allocatorINS_10__function6__funcIPFviENS0_IS4_EES3_EEEC1B8ue170006IS4_EERKNS0_IT_EE, symObjAddr: 0x887C, symBinAddr: 0x10000AE34, symSize: 0x34 }
  - { offsetInCU: 0xCADD5, offset: 0xCADD5, size: 0x8, addend: 0x0, symName: __ZNSt3__19allocatorIPFviEEC1B8ue170006INS_10__function6__funcIS2_S3_S1_EEEERKNS0_IT_EE, symObjAddr: 0x88B0, symBinAddr: 0x10000AE68, symSize: 0x34 }
  - { offsetInCU: 0xCAE12, offset: 0xCAE12, size: 0x8, addend: 0x0, symName: __ZNSt3__110__function6__funcIPFviENS_9allocatorIS3_EES2_EC1B8ue170006EOS3_OS5_, symObjAddr: 0x88E4, symBinAddr: 0x10000AE9C, symSize: 0x3C }
  - { offsetInCU: 0xCAE5A, offset: 0xCAE5A, size: 0x8, addend: 0x0, symName: __ZNSt3__19allocatorINS_10__function6__funcIPFviENS0_IS4_EES3_EEEC2B8ue170006IS4_EERKNS0_IT_EE, symObjAddr: 0x8920, symBinAddr: 0x10000AED8, symSize: 0x30 }
  - { offsetInCU: 0xCAE97, offset: 0xCAE97, size: 0x8, addend: 0x0, symName: __ZNSt3__116__non_trivial_ifILb1ENS_9allocatorINS_10__function6__funcIPFviENS1_IS5_EES4_EEEEEC2B8ue170006Ev, symObjAddr: 0x8950, symBinAddr: 0x10000AF08, symSize: 0x14 }
  - { offsetInCU: 0xCAEC1, offset: 0xCAEC1, size: 0x8, addend: 0x0, symName: __ZNSt3__19allocatorIPFviEEC2B8ue170006INS_10__function6__funcIS2_S3_S1_EEEERKNS0_IT_EE, symObjAddr: 0x8964, symBinAddr: 0x10000AF1C, symSize: 0x30 }
  - { offsetInCU: 0xCAEFE, offset: 0xCAEFE, size: 0x8, addend: 0x0, symName: __ZNSt3__110__function6__funcIPFviENS_9allocatorIS3_EES2_EC2B8ue170006EOS3_OS5_, symObjAddr: 0x8994, symBinAddr: 0x10000AF4C, symSize: 0x88 }
  - { offsetInCU: 0xCAF46, offset: 0xCAF46, size: 0x8, addend: 0x0, symName: __ZNSt3__110__function6__baseIFviEEC2B8ue170006Ev, symObjAddr: 0x8A1C, symBinAddr: 0x10000AFD4, symSize: 0x24 }
